---
triple:          'arm64-apple-darwin'
binary-path:     1802925EFolioA
relocations:
  - { offsetInCU: 0x9189, offset: 0x9189, size: 0x8, addend: 0x0, symName: __ZNSt3__113__fill_n_trueB8ue170006INS_6vectorIbNS_9allocatorIbEEEEEEvNS_14__bit_iteratorIT_Lb0EXLi0EEEENS6_9size_typeE, symObjAddr: 0xA390, symBinAddr: 0x10000C7DC, symSize: 0x160 }
  - { offsetInCU: 0x924E, offset: 0x924E, size: 0x8, addend: 0x0, symName: __ZNSt3__114__fill_n_falseB8ue170006INS_6vectorIbNS_9allocatorIbEEEEEEvNS_14__bit_iteratorIT_Lb0EXLi0EEEENS6_9size_typeE, symObjAddr: 0xA524, symBinAddr: 0x10000C970, symSize: 0x15C }
  - { offsetInCU: 0xC402, offset: 0xC402, size: 0x8, addend: 0x0, symName: __ZNSt3__124__put_character_sequenceB8ue170006IcNS_11char_traitsIcEEEERNS_13basic_ostreamIT_T0_EES7_PKS4_m, symObjAddr: 0x10058, symBinAddr: 0x1000124A4, symSize: 0x1EC }
  - { offsetInCU: 0xD287, offset: 0xD287, size: 0x8, addend: 0x0, symName: __ZNSt3__117__floyd_sift_downB8ue170006INS_17_ClassicAlgPolicyERNS_7greaterI5StateEENS_11__wrap_iterIPS3_EEEET1_S9_OT0_NS_15iterator_traitsIS9_E15difference_typeE, symObjAddr: 0x117B4, symBinAddr: 0x100013C00, symSize: 0x148 }
  - { offsetInCU: 0xFABF, offset: 0xFABF, size: 0x8, addend: 0x0, symName: __ZNSt3__1neB8ue170006IPKNS_5tupleIJiiiEEEEEbRKNS_11__wrap_iterIT_EES9_, symObjAddr: 0x58C, symBinAddr: 0x1000029D8, symSize: 0x34 }
  - { offsetInCU: 0xFB02, offset: 0xFB02, size: 0x8, addend: 0x0, symName: __ZNSt3__13tieB8ue170006IJiiiEEENS_5tupleIJDpRT_EEES4_, symObjAddr: 0x5D8, symBinAddr: 0x100002A24, symSize: 0x40 }
  - { offsetInCU: 0x100A7, offset: 0x100A7, size: 0x8, addend: 0x0, symName: __ZNSt3__13maxB8ue170006IiEERKT_S3_S3_, symObjAddr: 0x654, symBinAddr: 0x100002AA0, symSize: 0x2C }
  - { offsetInCU: 0x100EA, offset: 0x100EA, size: 0x8, addend: 0x0, symName: __ZNSt3__13minB8ue170006IiEERKT_S3_S3_, symObjAddr: 0x680, symBinAddr: 0x100002ACC, symSize: 0x2C }
  - { offsetInCU: 0x1012D, offset: 0x1012D, size: 0x8, addend: 0x0, symName: __ZNSt3__1neB8ue170006IPiEEbRKNS_11__wrap_iterIT_EES6_, symObjAddr: 0xBDC, symBinAddr: 0x100003028, symSize: 0x34 }
  - { offsetInCU: 0x10170, offset: 0x10170, size: 0x8, addend: 0x0, symName: __ZNSt3__1lsB8ue170006INS_11char_traitsIcEEEERNS_13basic_ostreamIcT_EES6_PKc, symObjAddr: 0x1250, symBinAddr: 0x10000369C, symSize: 0x48 }
  - { offsetInCU: 0x101B6, offset: 0x101B6, size: 0x8, addend: 0x0, symName: __ZNSt3__1lsB8ue170006IcNS_11char_traitsIcEEEERNS_13basic_ostreamIT_T0_EES7_RKNS_8__iom_t6E, symObjAddr: 0x1298, symBinAddr: 0x1000036E4, symSize: 0x40 }
  - { offsetInCU: 0x10205, offset: 0x10205, size: 0x8, addend: 0x0, symName: __ZNSt3__14setwB8ue170006Ei, symObjAddr: 0x12D8, symBinAddr: 0x100003724, symSize: 0x2C }
  - { offsetInCU: 0x10233, offset: 0x10233, size: 0x8, addend: 0x0, symName: __ZNSt3__14endlB8ue170006IcNS_11char_traitsIcEEEERNS_13basic_ostreamIT_T0_EES7_, symObjAddr: 0x1330, symBinAddr: 0x10000377C, symSize: 0x58 }
  - { offsetInCU: 0x10273, offset: 0x10273, size: 0x8, addend: 0x0, symName: '__ZNSt3__110accumulateB8ue170006INS_11__wrap_iterIPKNS_5tupleIJiiiEEEEEiZ9print_mapRKNS_6vectorINS7_IiNS_9allocatorIiEEEENS8_ISA_EEEERK5StateiE3$_0EET0_T_SK_SJ_T1_', symObjAddr: 0x1388, symBinAddr: 0x1000037D4, symSize: 0x74 }
  - { offsetInCU: 0x102E4, offset: 0x102E4, size: 0x8, addend: 0x0, symName: __ZNSt3__15beginB8ue170006INS_6vectorINS_5tupleIJiiiEEENS_9allocatorIS3_EEEEEEDTcldtfp_5beginEERKT_, symObjAddr: 0x13FC, symBinAddr: 0x100003848, symSize: 0x2C }
  - { offsetInCU: 0x10319, offset: 0x10319, size: 0x8, addend: 0x0, symName: __ZNSt3__13endB8ue170006INS_6vectorINS_5tupleIJiiiEEENS_9allocatorIS3_EEEEEEDTcldtfp_3endEERKT_, symObjAddr: 0x1428, symBinAddr: 0x100003874, symSize: 0x2C }
  - { offsetInCU: 0x105B3, offset: 0x105B3, size: 0x8, addend: 0x0, symName: __ZNSt3__1neB8ue170006IP5StateEEbRKNS_11__wrap_iterIT_EES7_, symObjAddr: 0x18FC, symBinAddr: 0x100003D48, symSize: 0x34 }
  - { offsetInCU: 0x105F6, offset: 0x105F6, size: 0x8, addend: 0x0, symName: __ZNSt3__1neB8ue170006IPNS_5tupleIJNS_6vectorINS2_IiNS_9allocatorIiEEEENS3_IS5_EEEEiiEEEEEbRKNS_11__wrap_iterIT_EESE_, symObjAddr: 0x53C0, symBinAddr: 0x10000780C, symSize: 0x34 }
  - { offsetInCU: 0x10639, offset: 0x10639, size: 0x8, addend: 0x0, symName: __ZNSt3__13getB8ue170006ILm0EJNS_6vectorINS1_IiNS_9allocatorIiEEEENS2_IS4_EEEEiiEEERNS_13tuple_elementIXT_ENS_5tupleIJDpT0_EEEE4typeERSB_, symObjAddr: 0x540C, symBinAddr: 0x100007858, symSize: 0x24 }
  - { offsetInCU: 0x10686, offset: 0x10686, size: 0x8, addend: 0x0, symName: __ZNSt3__13getB8ue170006ILm1EJNS_6vectorINS1_IiNS_9allocatorIiEEEENS2_IS4_EEEEiiEEERNS_13tuple_elementIXT_ENS_5tupleIJDpT0_EEEE4typeERSB_, symObjAddr: 0x5430, symBinAddr: 0x10000787C, symSize: 0x28 }
  - { offsetInCU: 0x106D3, offset: 0x106D3, size: 0x8, addend: 0x0, symName: __ZNSt3__13getB8ue170006ILm2EJNS_6vectorINS1_IiNS_9allocatorIiEEEENS2_IS4_EEEEiiEEERNS_13tuple_elementIXT_ENS_5tupleIJDpT0_EEEE4typeERSB_, symObjAddr: 0x5458, symBinAddr: 0x1000078A4, symSize: 0x28 }
  - { offsetInCU: 0x10720, offset: 0x10720, size: 0x8, addend: 0x0, symName: __ZNSt3__1eqB8ue170006IPKNS_5tupleIJiiiEEEEEbRKNS_11__wrap_iterIT_EES9_, symObjAddr: 0x54CC, symBinAddr: 0x100007918, symSize: 0x48 }
  - { offsetInCU: 0x1079C, offset: 0x1079C, size: 0x8, addend: 0x0, symName: __ZNSt3__13maxB8ue170006IiNS_6__lessIvvEEEERKT_S5_S5_T0_, symObjAddr: 0x56B4, symBinAddr: 0x100007B00, symSize: 0x54 }
  - { offsetInCU: 0x1086C, offset: 0x1086C, size: 0x8, addend: 0x0, symName: __ZNSt3__13minB8ue170006IiNS_6__lessIvvEEEERKT_S5_S5_T0_, symObjAddr: 0x573C, symBinAddr: 0x100007B88, symSize: 0x54 }
  - { offsetInCU: 0x108C6, offset: 0x108C6, size: 0x8, addend: 0x0, symName: __ZNSt3__1eqB8ue170006IPiEEbRKNS_11__wrap_iterIT_EES6_, symObjAddr: 0x5790, symBinAddr: 0x100007BDC, symSize: 0x48 }
  - { offsetInCU: 0x10909, offset: 0x10909, size: 0x8, addend: 0x0, symName: __ZNSt3__122__make_exception_guardB8ue170006INS_6vectorINS_5tupleIJiiiEEENS_9allocatorIS3_EEE16__destroy_vectorEEENS_28__exception_guard_exceptionsIT_EES9_, symObjAddr: 0x5AD4, symBinAddr: 0x100007F20, symSize: 0x40 }
  - { offsetInCU: 0x1093E, offset: 0x1093E, size: 0x8, addend: 0x0, symName: __ZNSt3__119__allocate_at_leastB8ue170006INS_9allocatorINS_5tupleIJiiiEEEEEEENS_19__allocation_resultINS_16allocator_traitsIT_E7pointerEEERS7_m, symObjAddr: 0x5DC4, symBinAddr: 0x100008210, symSize: 0x40 }
  - { offsetInCU: 0x10981, offset: 0x10981, size: 0x8, addend: 0x0, symName: __ZNSt3__13minB8ue170006ImEERKT_S3_S3_, symObjAddr: 0x5F1C, symBinAddr: 0x100008368, symSize: 0x2C }
  - { offsetInCU: 0x10BAE, offset: 0x10BAE, size: 0x8, addend: 0x0, symName: __ZNSt3__13minB8ue170006ImNS_6__lessIvvEEEERKT_S5_S5_T0_, symObjAddr: 0x5F8C, symBinAddr: 0x1000083D8, symSize: 0x54 }
  - { offsetInCU: 0x10C08, offset: 0x10C08, size: 0x8, addend: 0x0, symName: __ZNSt3__120__throw_length_errorB8ue170006EPKc, symObjAddr: 0x6034, symBinAddr: 0x100008480, symSize: 0x64 }
  - { offsetInCU: 0x10C32, offset: 0x10C32, size: 0x8, addend: 0x0, symName: __ZNSt3__117__libcpp_allocateB8ue170006Emm, symObjAddr: 0x61A8, symBinAddr: 0x1000085F4, symSize: 0x60 }
  - { offsetInCU: 0x10C8C, offset: 0x10C8C, size: 0x8, addend: 0x0, symName: __ZNSt3__124__is_overaligned_for_newB8ue170006Em, symObjAddr: 0x6208, symBinAddr: 0x100008654, symSize: 0x20 }
  - { offsetInCU: 0x10CBA, offset: 0x10CBA, size: 0x8, addend: 0x0, symName: __ZNSt3__121__libcpp_operator_newB8ue170006IJmSt11align_val_tEEEPvDpT_, symObjAddr: 0x6228, symBinAddr: 0x100008674, symSize: 0x2C }
  - { offsetInCU: 0x10D07, offset: 0x10D07, size: 0x8, addend: 0x0, symName: __ZNSt3__121__libcpp_operator_newB8ue170006IJmEEEPvDpT_, symObjAddr: 0x6254, symBinAddr: 0x1000086A0, symSize: 0x24 }
  - { offsetInCU: 0x10D40, offset: 0x10D40, size: 0x8, addend: 0x0, symName: __ZNSt3__112__to_addressB8ue170006INS_5tupleIJiiiEEEEEPT_S4_, symObjAddr: 0x6370, symBinAddr: 0x1000087BC, symSize: 0x14 }
  - { offsetInCU: 0x10D75, offset: 0x10D75, size: 0x8, addend: 0x0, symName: __ZNSt3__130__uninitialized_allocator_copyB8ue170006INS_9allocatorINS_5tupleIJiiiEEEEEPS3_S5_S5_EET2_RT_T0_T1_S6_, symObjAddr: 0x6420, symBinAddr: 0x10000886C, symSize: 0x80 }
  - { offsetInCU: 0x10E12, offset: 0x10E12, size: 0x8, addend: 0x0, symName: __ZNSt3__114__unwrap_rangeB8ue170006IPNS_5tupleIJiiiEEES3_EENS_4pairIT0_S5_EET_S7_, symObjAddr: 0x6518, symBinAddr: 0x100008964, symSize: 0x60 }
  - { offsetInCU: 0x10E5E, offset: 0x10E5E, size: 0x8, addend: 0x0, symName: __ZNSt3__135__uninitialized_allocator_copy_implB8ue170006INS_9allocatorINS_5tupleIJiiiEEEEEPS3_S5_S5_EET2_RT_T0_T1_S6_, symObjAddr: 0x6578, symBinAddr: 0x1000089C4, symSize: 0xF4 }
  - { offsetInCU: 0x10EFC, offset: 0x10EFC, size: 0x8, addend: 0x0, symName: __ZNSt3__113__unwrap_iterB8ue170006IPNS_5tupleIJiiiEEENS_18__unwrap_iter_implIS3_Lb1EEELi0EEEDTclsrT0_8__unwrapclsr3stdE7declvalIT_EEEES7_, symObjAddr: 0x666C, symBinAddr: 0x100008AB8, symSize: 0x24 }
  - { offsetInCU: 0x10F40, offset: 0x10F40, size: 0x8, addend: 0x0, symName: __ZNSt3__113__rewrap_iterB8ue170006IPNS_5tupleIJiiiEEES3_NS_18__unwrap_iter_implIS3_Lb1EEEEET_S6_T0_, symObjAddr: 0x6690, symBinAddr: 0x100008ADC, symSize: 0x3C }
  - { offsetInCU: 0x10F95, offset: 0x10F95, size: 0x8, addend: 0x0, symName: __ZNSt3__19make_pairB8ue170006IPNS_5tupleIJiiiEEES3_EENS_4pairINS_18__unwrap_ref_decayIT_E4typeENS5_IT0_E4typeEEEOS6_OS9_, symObjAddr: 0x66CC, symBinAddr: 0x100008B18, symSize: 0x38 }
  - { offsetInCU: 0x110B8, offset: 0x110B8, size: 0x8, addend: 0x0, symName: __ZNSt3__122__make_exception_guardB8ue170006INS_29_AllocatorDestroyRangeReverseINS_9allocatorINS_5tupleIJiiiEEEEEPS4_EEEENS_28__exception_guard_exceptionsIT_EES9_, symObjAddr: 0x6774, symBinAddr: 0x100008BC0, symSize: 0x4C }
  - { offsetInCU: 0x110EE, offset: 0x110EE, size: 0x8, addend: 0x0, symName: __ZNSt3__119__allocator_destroyB8ue170006INS_9allocatorINS_5tupleIJiiiEEEEENS_16reverse_iteratorIPS3_EES7_EEvRT_T0_T1_, symObjAddr: 0x6A04, symBinAddr: 0x100008E50, symSize: 0x70 }
  - { offsetInCU: 0x11151, offset: 0x11151, size: 0x8, addend: 0x0, symName: __ZNSt3__1neB8ue170006IPNS_5tupleIJiiiEEES3_EEbRKNS_16reverse_iteratorIT_EERKNS4_IT0_EE, symObjAddr: 0x6AA8, symBinAddr: 0x100008EF4, symSize: 0x48 }
  - { offsetInCU: 0x1119D, offset: 0x1119D, size: 0x8, addend: 0x0, symName: __ZNSt3__112__to_addressB8ue170006INS_16reverse_iteratorIPNS_5tupleIJiiiEEEEEvEEu7__decayIDTclsr19__to_address_helperIT_EE6__callclsr3stdE7declvalIRKS6_EEEEES8_, symObjAddr: 0x6B1C, symBinAddr: 0x100008F68, symSize: 0x24 }
  - { offsetInCU: 0x1124F, offset: 0x1124F, size: 0x8, addend: 0x0, symName: __ZNSt3__119__libcpp_deallocateB8ue170006EPvmm, symObjAddr: 0x6FB4, symBinAddr: 0x100009400, symSize: 0x60 }
  - { offsetInCU: 0x112B4, offset: 0x112B4, size: 0x8, addend: 0x0, symName: __ZNSt3__127__do_deallocate_handle_sizeB8ue170006IJSt11align_val_tEEEvPvmDpT_, symObjAddr: 0x7014, symBinAddr: 0x100009460, symSize: 0x30 }
  - { offsetInCU: 0x11307, offset: 0x11307, size: 0x8, addend: 0x0, symName: __ZNSt3__127__do_deallocate_handle_sizeB8ue170006IJEEEvPvmDpT_, symObjAddr: 0x7044, symBinAddr: 0x100009490, symSize: 0x28 }
  - { offsetInCU: 0x11345, offset: 0x11345, size: 0x8, addend: 0x0, symName: __ZNSt3__124__libcpp_operator_deleteB8ue170006IJPvSt11align_val_tEEEvDpT_, symObjAddr: 0x706C, symBinAddr: 0x1000094B8, symSize: 0x2C }
  - { offsetInCU: 0x1138E, offset: 0x1138E, size: 0x8, addend: 0x0, symName: __ZNSt3__124__libcpp_operator_deleteB8ue170006IJPvEEEvDpT_, symObjAddr: 0x7098, symBinAddr: 0x1000094E4, symSize: 0x24 }
  - { offsetInCU: 0x113C3, offset: 0x113C3, size: 0x8, addend: 0x0, symName: __ZNSt3__1eqB8ue170006IP5StateEEbRKNS_11__wrap_iterIT_EES7_, symObjAddr: 0x7188, symBinAddr: 0x1000095D4, symSize: 0x48 }
  - { offsetInCU: 0x11425, offset: 0x11425, size: 0x8, addend: 0x0, symName: __ZNSt3__122__make_exception_guardB8ue170006INS_6vectorINS1_IiNS_9allocatorIiEEEENS2_IS4_EEE16__destroy_vectorEEENS_28__exception_guard_exceptionsIT_EES9_, symObjAddr: 0x7618, symBinAddr: 0x100009A64, symSize: 0x40 }
  - { offsetInCU: 0x1145A, offset: 0x1145A, size: 0x8, addend: 0x0, symName: __ZNSt3__119__allocate_at_leastB8ue170006INS_9allocatorINS_6vectorIiNS1_IiEEEEEEEENS_19__allocation_resultINS_16allocator_traitsIT_E7pointerEEERS8_m, symObjAddr: 0x7908, symBinAddr: 0x100009D54, symSize: 0x40 }
  - { offsetInCU: 0x1149D, offset: 0x1149D, size: 0x8, addend: 0x0, symName: __ZNSt3__112__to_addressB8ue170006INS_6vectorIiNS_9allocatorIiEEEEEEPT_S6_, symObjAddr: 0x7BF0, symBinAddr: 0x10000A03C, symSize: 0x14 }
  - { offsetInCU: 0x114D2, offset: 0x114D2, size: 0x8, addend: 0x0, symName: __ZNSt3__130__uninitialized_allocator_copyB8ue170006INS_9allocatorINS_6vectorIiNS1_IiEEEEEEPS4_S6_S6_EET2_RT_T0_T1_S7_, symObjAddr: 0x7CA0, symBinAddr: 0x10000A0EC, symSize: 0x80 }
  - { offsetInCU: 0x1156F, offset: 0x1156F, size: 0x8, addend: 0x0, symName: __ZNSt3__114__unwrap_rangeB8ue170006IPNS_6vectorIiNS_9allocatorIiEEEES5_EENS_4pairIT0_S7_EET_S9_, symObjAddr: 0x7D98, symBinAddr: 0x10000A1E4, symSize: 0x60 }
  - { offsetInCU: 0x115BB, offset: 0x115BB, size: 0x8, addend: 0x0, symName: __ZNSt3__135__uninitialized_allocator_copy_implB8ue170006INS_9allocatorINS_6vectorIiNS1_IiEEEEEEPS4_S6_S6_EET2_RT_T0_T1_S7_, symObjAddr: 0x7DF8, symBinAddr: 0x10000A244, symSize: 0xF4 }
  - { offsetInCU: 0x11659, offset: 0x11659, size: 0x8, addend: 0x0, symName: __ZNSt3__113__unwrap_iterB8ue170006IPNS_6vectorIiNS_9allocatorIiEEEENS_18__unwrap_iter_implIS5_Lb1EEELi0EEEDTclsrT0_8__unwrapclsr3stdE7declvalIT_EEEES9_, symObjAddr: 0x7EEC, symBinAddr: 0x10000A338, symSize: 0x24 }
  - { offsetInCU: 0x1169D, offset: 0x1169D, size: 0x8, addend: 0x0, symName: __ZNSt3__113__rewrap_iterB8ue170006IPNS_6vectorIiNS_9allocatorIiEEEES5_NS_18__unwrap_iter_implIS5_Lb1EEEEET_S8_T0_, symObjAddr: 0x7F10, symBinAddr: 0x10000A35C, symSize: 0x3C }
  - { offsetInCU: 0x116F2, offset: 0x116F2, size: 0x8, addend: 0x0, symName: __ZNSt3__19make_pairB8ue170006IPNS_6vectorIiNS_9allocatorIiEEEES5_EENS_4pairINS_18__unwrap_ref_decayIT_E4typeENS7_IT0_E4typeEEEOS8_OSB_, symObjAddr: 0x7F4C, symBinAddr: 0x10000A398, symSize: 0x38 }
  - { offsetInCU: 0x11815, offset: 0x11815, size: 0x8, addend: 0x0, symName: __ZNSt3__122__make_exception_guardB8ue170006INS_29_AllocatorDestroyRangeReverseINS_9allocatorINS_6vectorIiNS2_IiEEEEEEPS5_EEEENS_28__exception_guard_exceptionsIT_EESA_, symObjAddr: 0x7FF4, symBinAddr: 0x10000A440, symSize: 0x4C }
  - { offsetInCU: 0x1184B, offset: 0x1184B, size: 0x8, addend: 0x0, symName: __ZNSt3__122__make_exception_guardB8ue170006INS_6vectorIiNS_9allocatorIiEEE16__destroy_vectorEEENS_28__exception_guard_exceptionsIT_EES7_, symObjAddr: 0x8470, symBinAddr: 0x10000A8BC, symSize: 0x40 }
  - { offsetInCU: 0x11880, offset: 0x11880, size: 0x8, addend: 0x0, symName: __ZNSt3__119__allocate_at_leastB8ue170006INS_9allocatorIiEEEENS_19__allocation_resultINS_16allocator_traitsIT_E7pointerEEERS5_m, symObjAddr: 0x8758, symBinAddr: 0x10000ABA4, symSize: 0x40 }
  - { offsetInCU: 0x118C3, offset: 0x118C3, size: 0x8, addend: 0x0, symName: __ZNSt3__112__to_addressB8ue170006IiEEPT_S2_, symObjAddr: 0x8A1C, symBinAddr: 0x10000AE68, symSize: 0x14 }
  - { offsetInCU: 0x118F8, offset: 0x118F8, size: 0x8, addend: 0x0, symName: __ZNSt3__130__uninitialized_allocator_copyB8ue170006INS_9allocatorIiEEPiS3_S3_EET2_RT_T0_T1_S4_, symObjAddr: 0x8ACC, symBinAddr: 0x10000AF18, symSize: 0x80 }
  - { offsetInCU: 0x11995, offset: 0x11995, size: 0x8, addend: 0x0, symName: __ZNSt3__114__unwrap_rangeB8ue170006IPiS1_EENS_4pairIT0_S3_EET_S5_, symObjAddr: 0x8BBC, symBinAddr: 0x10000B008, symSize: 0x60 }
  - { offsetInCU: 0x119E1, offset: 0x119E1, size: 0x8, addend: 0x0, symName: __ZNSt3__135__uninitialized_allocator_copy_implB8ue170006INS_9allocatorIiEEiiiLPv0EEEPT2_RT_PT0_S9_S5_, symObjAddr: 0x8C1C, symBinAddr: 0x10000B068, symSize: 0x38 }
  - { offsetInCU: 0x11A62, offset: 0x11A62, size: 0x8, addend: 0x0, symName: __ZNSt3__113__unwrap_iterB8ue170006IPiNS_18__unwrap_iter_implIS1_Lb1EEELi0EEEDTclsrT0_8__unwrapclsr3stdE7declvalIT_EEEES5_, symObjAddr: 0x8C54, symBinAddr: 0x10000B0A0, symSize: 0x24 }
  - { offsetInCU: 0x11AA6, offset: 0x11AA6, size: 0x8, addend: 0x0, symName: __ZNSt3__113__rewrap_iterB8ue170006IPiS1_NS_18__unwrap_iter_implIS1_Lb1EEEEET_S4_T0_, symObjAddr: 0x8C78, symBinAddr: 0x10000B0C4, symSize: 0x3C }
  - { offsetInCU: 0x11AFB, offset: 0x11AFB, size: 0x8, addend: 0x0, symName: __ZNSt3__19make_pairB8ue170006IPiS1_EENS_4pairINS_18__unwrap_ref_decayIT_E4typeENS3_IT0_E4typeEEEOS4_OS7_, symObjAddr: 0x8CB4, symBinAddr: 0x10000B100, symSize: 0x38 }
  - { offsetInCU: 0x11C4D, offset: 0x11C4D, size: 0x8, addend: 0x0, symName: __ZNSt3__14copyB8ue170006IPiS1_EET0_T_S3_S2_, symObjAddr: 0x8D5C, symBinAddr: 0x10000B1A8, symSize: 0x40 }
  - { offsetInCU: 0x11CA7, offset: 0x11CA7, size: 0x8, addend: 0x0, symName: __ZNSt3__16__copyB8ue170006INS_17_ClassicAlgPolicyEPiS2_S2_EENS_4pairIT0_T2_EES4_T1_S5_, symObjAddr: 0x8D9C, symBinAddr: 0x10000B1E8, symSize: 0x44 }
  - { offsetInCU: 0x11D13, offset: 0x11D13, size: 0x8, addend: 0x0, symName: __ZNSt3__123__dispatch_copy_or_moveB8ue170006INS_17_ClassicAlgPolicyENS_11__copy_loopIS1_EENS_14__copy_trivialEPiS5_S5_EENS_4pairIT2_T4_EES7_T3_S8_, symObjAddr: 0x8DE0, symBinAddr: 0x10000B22C, symSize: 0x44 }
  - { offsetInCU: 0x11D91, offset: 0x11D91, size: 0x8, addend: 0x0, symName: __ZNSt3__121__unwrap_and_dispatchB8ue170006INS_10__overloadINS_11__copy_loopINS_17_ClassicAlgPolicyEEENS_14__copy_trivialEEEPiS7_S7_Li0EEENS_4pairIT0_T2_EES9_T1_SA_, symObjAddr: 0x8E24, symBinAddr: 0x10000B270, symSize: 0xB4 }
  - { offsetInCU: 0x11EA1, offset: 0x11EA1, size: 0x8, addend: 0x0, symName: __ZNSt3__114__rewrap_rangeB8ue170006IPiS1_EET_S2_T0_, symObjAddr: 0x8F20, symBinAddr: 0x10000B36C, symSize: 0x2C }
  - { offsetInCU: 0x11EED, offset: 0x11EED, size: 0x8, addend: 0x0, symName: __ZNSt3__119__copy_trivial_implB8ue170006IiiEENS_4pairIPT_PT0_EES3_S3_S5_, symObjAddr: 0x8F4C, symBinAddr: 0x10000B398, symSize: 0x80 }
  - { offsetInCU: 0x11F55, offset: 0x11F55, size: 0x8, addend: 0x0, symName: __ZNSt3__119__constexpr_memmoveB8ue170006IiiLi0EEEPT_S2_PT0_NS_15__element_countE, symObjAddr: 0x8FCC, symBinAddr: 0x10000B418, symSize: 0x64 }
  - { offsetInCU: 0x11FC3, offset: 0x11FC3, size: 0x8, addend: 0x0, symName: __ZNSt3__19make_pairB8ue170006IRPiS1_EENS_4pairINS_18__unwrap_ref_decayIT_E4typeENS4_IT0_E4typeEEEOS5_OS8_, symObjAddr: 0x9030, symBinAddr: 0x10000B47C, symSize: 0x38 }
  - { offsetInCU: 0x12065, offset: 0x12065, size: 0x8, addend: 0x0, symName: __ZNSt3__119__allocator_destroyB8ue170006INS_9allocatorINS_6vectorIiNS1_IiEEEEEENS_16reverse_iteratorIPS4_EES8_EEvRT_T0_T1_, symObjAddr: 0x9524, symBinAddr: 0x10000B970, symSize: 0x70 }
  - { offsetInCU: 0x120C8, offset: 0x120C8, size: 0x8, addend: 0x0, symName: __ZNSt3__1neB8ue170006IPNS_6vectorIiNS_9allocatorIiEEEES5_EEbRKNS_16reverse_iteratorIT_EERKNS6_IT0_EE, symObjAddr: 0x95C8, symBinAddr: 0x10000BA14, symSize: 0x48 }
  - { offsetInCU: 0x12114, offset: 0x12114, size: 0x8, addend: 0x0, symName: __ZNSt3__112__to_addressB8ue170006INS_16reverse_iteratorIPNS_6vectorIiNS_9allocatorIiEEEEEEvEEu7__decayIDTclsr19__to_address_helperIT_EE6__callclsr3stdE7declvalIRKS8_EEEEESA_, symObjAddr: 0x963C, symBinAddr: 0x10000BA88, symSize: 0x24 }
  - { offsetInCU: 0x121C6, offset: 0x121C6, size: 0x8, addend: 0x0, symName: __ZNSt3__1eqB8ue170006IPNS_5tupleIJNS_6vectorINS2_IiNS_9allocatorIiEEEENS3_IS5_EEEEiiEEEEEbRKNS_11__wrap_iterIT_EESE_, symObjAddr: 0x9B98, symBinAddr: 0x10000BFE4, symSize: 0x48 }
  - { offsetInCU: 0x12209, offset: 0x12209, size: 0x8, addend: 0x0, symName: __ZNSt3__119__allocate_at_leastB8ue170006INS_9allocatorImEEEENS_19__allocation_resultINS_16allocator_traitsIT_E7pointerEEERS5_m, symObjAddr: 0xA050, symBinAddr: 0x10000C49C, symSize: 0x40 }
  - { offsetInCU: 0x12438, offset: 0x12438, size: 0x8, addend: 0x0, symName: __ZNSt3__16fill_nB8ue170006INS_6vectorIbNS_9allocatorIbEEEEEEvNS_14__bit_iteratorIT_Lb0EXLi0EEEENS6_9size_typeEb, symObjAddr: 0xA298, symBinAddr: 0x10000C6E4, symSize: 0x94 }
  - { offsetInCU: 0x1248A, offset: 0x1248A, size: 0x8, addend: 0x0, symName: __ZNSt3__16fill_nB8ue170006IPmmmEET_S2_T0_RKT1_, symObjAddr: 0xA680, symBinAddr: 0x10000CACC, symSize: 0x44 }
  - { offsetInCU: 0x124ED, offset: 0x124ED, size: 0x8, addend: 0x0, symName: __ZNSt3__112__to_addressB8ue170006ImEEPT_S2_, symObjAddr: 0xA6C4, symBinAddr: 0x10000CB10, symSize: 0x14 }
  - { offsetInCU: 0x12522, offset: 0x12522, size: 0x8, addend: 0x0, symName: __ZNSt3__18__fill_nB8ue170006IPmmmEET_S2_T0_RKT1_, symObjAddr: 0xA6D8, symBinAddr: 0x10000CB24, symSize: 0x64 }
  - { offsetInCU: 0x12585, offset: 0x12585, size: 0x8, addend: 0x0, symName: __ZNSt3__121__convert_to_integralB8ue170006Em, symObjAddr: 0xA73C, symBinAddr: 0x10000CB88, symSize: 0x14 }
  - { offsetInCU: 0x125B1, offset: 0x125B1, size: 0x8, addend: 0x0, symName: __ZNSt3__16fill_nB8ue170006IPmmiEET_S2_T0_RKT1_, symObjAddr: 0xA780, symBinAddr: 0x10000CBCC, symSize: 0x44 }
  - { offsetInCU: 0x12614, offset: 0x12614, size: 0x8, addend: 0x0, symName: __ZNSt3__18__fill_nB8ue170006IPmmiEET_S2_T0_RKT1_, symObjAddr: 0xA7C4, symBinAddr: 0x10000CC10, symSize: 0x64 }
  - { offsetInCU: 0x12677, offset: 0x12677, size: 0x8, addend: 0x0, symName: __ZNSt3__122__make_exception_guardB8ue170006INS_6vectorINS1_IbNS_9allocatorIbEEEENS2_IS4_EEE16__destroy_vectorEEENS_28__exception_guard_exceptionsIT_EES9_, symObjAddr: 0xAB30, symBinAddr: 0x10000CF7C, symSize: 0x40 }
  - { offsetInCU: 0x126AC, offset: 0x126AC, size: 0x8, addend: 0x0, symName: __ZNSt3__119__allocate_at_leastB8ue170006INS_9allocatorINS_6vectorIbNS1_IbEEEEEEEENS_19__allocation_resultINS_16allocator_traitsIT_E7pointerEEERS8_m, symObjAddr: 0xAF2C, symBinAddr: 0x10000D378, symSize: 0x40 }
  - { offsetInCU: 0x126EF, offset: 0x126EF, size: 0x8, addend: 0x0, symName: __ZNSt3__112__to_addressB8ue170006INS_6vectorIbNS_9allocatorIbEEEEEEPT_S6_, symObjAddr: 0xB274, symBinAddr: 0x10000D6C0, symSize: 0x14 }
  - { offsetInCU: 0x12724, offset: 0x12724, size: 0x8, addend: 0x0, symName: __ZNSt3__16__copyB8ue170006INS_17_ClassicAlgPolicyENS_14__bit_iteratorINS_6vectorIbNS_9allocatorIbEEEELb1ELm0EEES7_NS2_IS6_Lb0ELm0EEEEENS_4pairIT0_T2_EESA_T1_SB_, symObjAddr: 0xB764, symBinAddr: 0x10000DBB0, symSize: 0x7C }
  - { offsetInCU: 0x12791, offset: 0x12791, size: 0x8, addend: 0x0, symName: __ZNSt3__123__dispatch_copy_or_moveB8ue170006INS_17_ClassicAlgPolicyENS_11__copy_loopIS1_EENS_14__copy_trivialENS_14__bit_iteratorINS_6vectorIbNS_9allocatorIbEEEELb1ELm0EEESA_NS5_IS9_Lb0ELm0EEEEENS_4pairIT2_T4_EESD_T3_SE_, symObjAddr: 0xB7E0, symBinAddr: 0x10000DC2C, symSize: 0x7C }
  - { offsetInCU: 0x12810, offset: 0x12810, size: 0x8, addend: 0x0, symName: __ZNSt3__121__unwrap_and_dispatchB8ue170006INS_10__overloadINS_11__copy_loopINS_17_ClassicAlgPolicyEEENS_14__copy_trivialEEENS_14__bit_iteratorINS_6vectorIbNS_9allocatorIbEEEELb1ELm0EEESC_NS7_ISB_Lb0ELm0EEELi0EEENS_4pairIT0_T2_EESF_T1_SG_, symObjAddr: 0xB85C, symBinAddr: 0x10000DCA8, symSize: 0x150 }
  - { offsetInCU: 0x128A1, offset: 0x128A1, size: 0x8, addend: 0x0, symName: __ZNSt3__114__unwrap_rangeB8ue170006INS_14__bit_iteratorINS_6vectorIbNS_9allocatorIbEEEELb1ELm0EEES6_EENS_4pairIT0_S8_EET_SA_, symObjAddr: 0xB9AC, symBinAddr: 0x10000DDF8, symSize: 0x84 }
  - { offsetInCU: 0x12A1C, offset: 0x12A1C, size: 0x8, addend: 0x0, symName: __ZNSt3__113__unwrap_iterB8ue170006INS_14__bit_iteratorINS_6vectorIbNS_9allocatorIbEEEELb0ELm0EEENS_18__unwrap_iter_implIS6_Lb0EEELi0EEEDTclsrT0_8__unwrapclsr3stdE7declvalIT_EEEESA_, symObjAddr: 0xBAF4, symBinAddr: 0x10000DF40, symSize: 0x44 }
  - { offsetInCU: 0x12A61, offset: 0x12A61, size: 0x8, addend: 0x0, symName: __ZNSt3__19make_pairB8ue170006INS_14__bit_iteratorINS_6vectorIbNS_9allocatorIbEEEELb1ELm0EEENS1_IS5_Lb0ELm0EEEEENS_4pairINS_18__unwrap_ref_decayIT_E4typeENS9_IT0_E4typeEEEOSA_OSD_, symObjAddr: 0xBB38, symBinAddr: 0x10000DF84, symSize: 0x40 }
  - { offsetInCU: 0x12AB0, offset: 0x12AB0, size: 0x8, addend: 0x0, symName: __ZNSt3__114__rewrap_rangeB8ue170006INS_14__bit_iteratorINS_6vectorIbNS_9allocatorIbEEEELb1ELm0EEES6_EET_S7_T0_, symObjAddr: 0xBB78, symBinAddr: 0x10000DFC4, symSize: 0x5C }
  - { offsetInCU: 0x12AFC, offset: 0x12AFC, size: 0x8, addend: 0x0, symName: __ZNSt3__113__rewrap_iterB8ue170006INS_14__bit_iteratorINS_6vectorIbNS_9allocatorIbEEEELb0ELm0EEES6_NS_18__unwrap_iter_implIS6_Lb0EEEEET_S9_T0_, symObjAddr: 0xBBD4, symBinAddr: 0x10000E020, symSize: 0x74 }
  - { offsetInCU: 0x12B53, offset: 0x12B53, size: 0x8, addend: 0x0, symName: __ZNSt3__19make_pairB8ue170006INS_14__bit_iteratorINS_6vectorIbNS_9allocatorIbEEEELb1ELm0EEES6_EENS_4pairINS_18__unwrap_ref_decayIT_E4typeENS8_IT0_E4typeEEEOS9_OSC_, symObjAddr: 0xBC48, symBinAddr: 0x10000E094, symSize: 0x38 }
  - { offsetInCU: 0x12BA2, offset: 0x12BA2, size: 0x8, addend: 0x0, symName: __ZNSt3__113__unwrap_iterB8ue170006INS_14__bit_iteratorINS_6vectorIbNS_9allocatorIbEEEELb1ELm0EEENS_18__unwrap_iter_implIS6_Lb0EEELi0EEEDTclsrT0_8__unwrapclsr3stdE7declvalIT_EEEESA_, symObjAddr: 0xBC80, symBinAddr: 0x10000E0CC, symSize: 0x44 }
  - { offsetInCU: 0x12D02, offset: 0x12D02, size: 0x8, addend: 0x0, symName: __ZNSt3__1neB8ue170006ERKNS_14__bit_iteratorINS_6vectorIbNS_9allocatorIbEEEELb1ELm0EEES7_, symObjAddr: 0xBD58, symBinAddr: 0x10000E1A4, symSize: 0x34 }
  - { offsetInCU: 0x12D3F, offset: 0x12D3F, size: 0x8, addend: 0x0, symName: __ZNSt3__1eqB8ue170006ERKNS_14__bit_iteratorINS_6vectorIbNS_9allocatorIbEEEELb1ELm0EEES7_, symObjAddr: 0xBEF8, symBinAddr: 0x10000E344, symSize: 0x64 }
  - { offsetInCU: 0x12DC4, offset: 0x12DC4, size: 0x8, addend: 0x0, symName: __ZNSt3__113__rewrap_iterB8ue170006INS_14__bit_iteratorINS_6vectorIbNS_9allocatorIbEEEELb1ELm0EEES6_NS_18__unwrap_iter_implIS6_Lb0EEEEET_S9_T0_, symObjAddr: 0xC0E8, symBinAddr: 0x10000E534, symSize: 0x74 }
  - { offsetInCU: 0x12E19, offset: 0x12E19, size: 0x8, addend: 0x0, symName: __ZNSt3__124__memberwise_copy_assignB8ue170006INS_5tupleIJRiS2_S2_EEENS1_IJiiiEEEJLm0ELm1ELm2EEEEvRT_RKT0_NS_15__tuple_indicesIJXspT1_EEEE, symObjAddr: 0xC6C8, symBinAddr: 0x10000EB14, symSize: 0xB0 }
  - { offsetInCU: 0x12E87, offset: 0x12E87, size: 0x8, addend: 0x0, symName: __ZNSt3__19__swallowB8ue170006IJiiiEEEvDpOT_, symObjAddr: 0xC778, symBinAddr: 0x10000EBC4, symSize: 0x18 }
  - { offsetInCU: 0x12ED8, offset: 0x12ED8, size: 0x8, addend: 0x0, symName: __ZNSt3__13getB8ue170006ILm0EJiiiEEERKNS_13tuple_elementIXT_ENS_5tupleIJDpT0_EEEE4typeERKS5_, symObjAddr: 0xC790, symBinAddr: 0x10000EBDC, symSize: 0x24 }
  - { offsetInCU: 0x12F24, offset: 0x12F24, size: 0x8, addend: 0x0, symName: __ZNSt3__13getB8ue170006ILm0EJRiS1_S1_EEERNS_13tuple_elementIXT_ENS_5tupleIJDpT0_EEEE4typeERS6_, symObjAddr: 0xC7B4, symBinAddr: 0x10000EC00, symSize: 0x24 }
  - { offsetInCU: 0x12F70, offset: 0x12F70, size: 0x8, addend: 0x0, symName: __ZNSt3__13getB8ue170006ILm1EJiiiEEERKNS_13tuple_elementIXT_ENS_5tupleIJDpT0_EEEE4typeERKS5_, symObjAddr: 0xC7D8, symBinAddr: 0x10000EC24, symSize: 0x28 }
  - { offsetInCU: 0x12FBC, offset: 0x12FBC, size: 0x8, addend: 0x0, symName: __ZNSt3__13getB8ue170006ILm1EJRiS1_S1_EEERNS_13tuple_elementIXT_ENS_5tupleIJDpT0_EEEE4typeERS6_, symObjAddr: 0xC800, symBinAddr: 0x10000EC4C, symSize: 0x28 }
  - { offsetInCU: 0x13008, offset: 0x13008, size: 0x8, addend: 0x0, symName: __ZNSt3__13getB8ue170006ILm2EJiiiEEERKNS_13tuple_elementIXT_ENS_5tupleIJDpT0_EEEE4typeERKS5_, symObjAddr: 0xC828, symBinAddr: 0x10000EC74, symSize: 0x28 }
  - { offsetInCU: 0x13055, offset: 0x13055, size: 0x8, addend: 0x0, symName: __ZNSt3__13getB8ue170006ILm2EJRiS1_S1_EEERNS_13tuple_elementIXT_ENS_5tupleIJDpT0_EEEE4typeERS6_, symObjAddr: 0xC850, symBinAddr: 0x10000EC9C, symSize: 0x28 }
  - { offsetInCU: 0x130A1, offset: 0x130A1, size: 0x8, addend: 0x0, symName: __ZNSt3__112__to_addressB8ue170006I5StateEEPT_S3_, symObjAddr: 0xCE08, symBinAddr: 0x10000F254, symSize: 0x14 }
  - { offsetInCU: 0x130D6, offset: 0x130D6, size: 0x8, addend: 0x0, symName: __ZNSt3__130__uninitialized_allocator_copyB8ue170006INS_9allocatorIiEEPKiS4_PiEET2_RT_T0_T1_S6_, symObjAddr: 0xD270, symBinAddr: 0x10000F6BC, symSize: 0x80 }
  - { offsetInCU: 0x13173, offset: 0x13173, size: 0x8, addend: 0x0, symName: __ZNSt3__114__unwrap_rangeB8ue170006IPKiS2_EENS_4pairIT0_S4_EET_S6_, symObjAddr: 0xD2F0, symBinAddr: 0x10000F73C, symSize: 0x60 }
  - { offsetInCU: 0x131BF, offset: 0x131BF, size: 0x8, addend: 0x0, symName: __ZNSt3__135__uninitialized_allocator_copy_implB8ue170006INS_9allocatorIiEEKiiiLPv0EEEPT2_RT_PT0_SA_S6_, symObjAddr: 0xD350, symBinAddr: 0x10000F79C, symSize: 0x38 }
  - { offsetInCU: 0x13240, offset: 0x13240, size: 0x8, addend: 0x0, symName: __ZNSt3__19make_pairB8ue170006IPKiS2_EENS_4pairINS_18__unwrap_ref_decayIT_E4typeENS4_IT0_E4typeEEEOS5_OS8_, symObjAddr: 0xD388, symBinAddr: 0x10000F7D4, symSize: 0x38 }
  - { offsetInCU: 0x1328F, offset: 0x1328F, size: 0x8, addend: 0x0, symName: __ZNSt3__113__unwrap_iterB8ue170006IPKiNS_18__unwrap_iter_implIS2_Lb1EEELi0EEEDTclsrT0_8__unwrapclsr3stdE7declvalIT_EEEES6_, symObjAddr: 0xD3C0, symBinAddr: 0x10000F80C, symSize: 0x24 }
  - { offsetInCU: 0x133FA, offset: 0x133FA, size: 0x8, addend: 0x0, symName: __ZNSt3__112__to_addressB8ue170006IKiEEPT_S3_, symObjAddr: 0xD478, symBinAddr: 0x10000F8C4, symSize: 0x14 }
  - { offsetInCU: 0x1342F, offset: 0x1342F, size: 0x8, addend: 0x0, symName: __ZNSt3__14copyB8ue170006IPKiPiEET0_T_S5_S4_, symObjAddr: 0xD48C, symBinAddr: 0x10000F8D8, symSize: 0x40 }
  - { offsetInCU: 0x13489, offset: 0x13489, size: 0x8, addend: 0x0, symName: __ZNSt3__16__copyB8ue170006INS_17_ClassicAlgPolicyEPKiS3_PiEENS_4pairIT0_T2_EES6_T1_S7_, symObjAddr: 0xD4CC, symBinAddr: 0x10000F918, symSize: 0x44 }
  - { offsetInCU: 0x134F5, offset: 0x134F5, size: 0x8, addend: 0x0, symName: __ZNSt3__123__dispatch_copy_or_moveB8ue170006INS_17_ClassicAlgPolicyENS_11__copy_loopIS1_EENS_14__copy_trivialEPKiS6_PiEENS_4pairIT2_T4_EES9_T3_SA_, symObjAddr: 0xD510, symBinAddr: 0x10000F95C, symSize: 0x44 }
  - { offsetInCU: 0x13573, offset: 0x13573, size: 0x8, addend: 0x0, symName: __ZNSt3__121__unwrap_and_dispatchB8ue170006INS_10__overloadINS_11__copy_loopINS_17_ClassicAlgPolicyEEENS_14__copy_trivialEEEPKiS8_PiLi0EEENS_4pairIT0_T2_EESB_T1_SC_, symObjAddr: 0xD554, symBinAddr: 0x10000F9A0, symSize: 0xB4 }
  - { offsetInCU: 0x13704, offset: 0x13704, size: 0x8, addend: 0x0, symName: __ZNSt3__19make_pairB8ue170006IPKiPiEENS_4pairINS_18__unwrap_ref_decayIT_E4typeENS5_IT0_E4typeEEEOS6_OS9_, symObjAddr: 0xD650, symBinAddr: 0x10000FA9C, symSize: 0x38 }
  - { offsetInCU: 0x13753, offset: 0x13753, size: 0x8, addend: 0x0, symName: __ZNSt3__114__rewrap_rangeB8ue170006IPKiS2_EET_S3_T0_, symObjAddr: 0xD688, symBinAddr: 0x10000FAD4, symSize: 0x2C }
  - { offsetInCU: 0x1379F, offset: 0x1379F, size: 0x8, addend: 0x0, symName: __ZNSt3__119__copy_trivial_implB8ue170006IKiiEENS_4pairIPT_PT0_EES4_S4_S6_, symObjAddr: 0xD6B4, symBinAddr: 0x10000FB00, symSize: 0x80 }
  - { offsetInCU: 0x13807, offset: 0x13807, size: 0x8, addend: 0x0, symName: __ZNSt3__119__constexpr_memmoveB8ue170006IiKiLi0EEEPT_S3_PT0_NS_15__element_countE, symObjAddr: 0xD734, symBinAddr: 0x10000FB80, symSize: 0x64 }
  - { offsetInCU: 0x13875, offset: 0x13875, size: 0x8, addend: 0x0, symName: __ZNSt3__19make_pairB8ue170006IRPKiPiEENS_4pairINS_18__unwrap_ref_decayIT_E4typeENS6_IT0_E4typeEEEOS7_OSA_, symObjAddr: 0xD798, symBinAddr: 0x10000FBE4, symSize: 0x38 }
  - { offsetInCU: 0x138C4, offset: 0x138C4, size: 0x8, addend: 0x0, symName: __ZNSt3__113__rewrap_iterB8ue170006IPKiS2_NS_18__unwrap_iter_implIS2_Lb1EEEEET_S5_T0_, symObjAddr: 0xD8B0, symBinAddr: 0x10000FCFC, symSize: 0x3C }
  - { offsetInCU: 0x13938, offset: 0x13938, size: 0x8, addend: 0x0, symName: __ZNSt3__13maxB8ue170006ImEERKT_S3_S3_, symObjAddr: 0xDFF0, symBinAddr: 0x10001043C, symSize: 0x2C }
  - { offsetInCU: 0x1397B, offset: 0x1397B, size: 0x8, addend: 0x0, symName: __ZNSt3__13maxB8ue170006ImNS_6__lessIvvEEEERKT_S5_S5_T0_, symObjAddr: 0xE01C, symBinAddr: 0x100010468, symSize: 0x54 }
  - { offsetInCU: 0x139D5, offset: 0x139D5, size: 0x8, addend: 0x0, symName: __ZNSt3__142__uninitialized_allocator_move_if_noexceptB8ue170006INS_9allocatorINS_5tupleIJiiiEEEEENS_16reverse_iteratorIPS3_EES7_S7_EET2_RT_T0_T1_S8_, symObjAddr: 0xE2A8, symBinAddr: 0x1000106F4, symSize: 0x11C }
  - { offsetInCU: 0x13A75, offset: 0x13A75, size: 0x8, addend: 0x0, symName: __ZNSt3__14swapB8ue170006IPNS_5tupleIJiiiEEEEENS_9enable_ifIXaasr21is_move_constructibleIT_EE5valuesr18is_move_assignableIS5_EE5valueEvE4typeERS5_S8_, symObjAddr: 0xE3C4, symBinAddr: 0x100010810, symSize: 0x3C }
  - { offsetInCU: 0x13AC6, offset: 0x13AC6, size: 0x8, addend: 0x0, symName: __ZNSt3__122__make_exception_guardB8ue170006INS_29_AllocatorDestroyRangeReverseINS_9allocatorINS_5tupleIJiiiEEEEENS_16reverse_iteratorIPS4_EEEEEENS_28__exception_guard_exceptionsIT_EESB_, symObjAddr: 0xE400, symBinAddr: 0x10001084C, symSize: 0x4C }
  - { offsetInCU: 0x13AFC, offset: 0x13AFC, size: 0x8, addend: 0x0, symName: __ZNSt3__119__allocator_destroyB8ue170006INS_9allocatorINS_5tupleIJiiiEEEEENS_16reverse_iteratorINS5_IPS3_EEEES8_EEvRT_T0_T1_, symObjAddr: 0xE6DC, symBinAddr: 0x100010B28, symSize: 0x70 }
  - { offsetInCU: 0x13B61, offset: 0x13B61, size: 0x8, addend: 0x0, symName: __ZNSt3__1neB8ue170006INS_16reverse_iteratorIPNS_5tupleIJiiiEEEEES5_EEbRKNS1_IT_EERKNS1_IT0_EE, symObjAddr: 0xE788, symBinAddr: 0x100010BD4, symSize: 0x60 }
  - { offsetInCU: 0x13BAD, offset: 0x13BAD, size: 0x8, addend: 0x0, symName: __ZNSt3__112__to_addressB8ue170006INS_16reverse_iteratorINS1_IPNS_5tupleIJiiiEEEEEEEvEEu7__decayIDTclsr19__to_address_helperIT_EE6__callclsr3stdE7declvalIRKS7_EEEEES9_, symObjAddr: 0xE7E8, symBinAddr: 0x100010C34, symSize: 0x24 }
  - { offsetInCU: 0x13C0C, offset: 0x13C0C, size: 0x8, addend: 0x0, symName: __ZNSt3__119__allocate_at_leastB8ue170006INS_9allocatorI5StateEEEENS_19__allocation_resultINS_16allocator_traitsIT_E7pointerEEERS6_m, symObjAddr: 0xF278, symBinAddr: 0x1000116C4, symSize: 0x40 }
  - { offsetInCU: 0x13C4F, offset: 0x13C4F, size: 0x8, addend: 0x0, symName: __ZNSt3__142__uninitialized_allocator_move_if_noexceptB8ue170006INS_9allocatorI5StateEENS_16reverse_iteratorIPS2_EES6_S6_EET2_RT_T0_T1_S7_, symObjAddr: 0xF42C, symBinAddr: 0x100011878, symSize: 0x12C }
  - { offsetInCU: 0x13CEF, offset: 0x13CEF, size: 0x8, addend: 0x0, symName: __ZNSt3__14swapB8ue170006IP5StateEENS_9enable_ifIXaasr21is_move_constructibleIT_EE5valuesr18is_move_assignableIS4_EE5valueEvE4typeERS4_S7_, symObjAddr: 0xF5A4, symBinAddr: 0x1000119F0, symSize: 0x3C }
  - { offsetInCU: 0x13D40, offset: 0x13D40, size: 0x8, addend: 0x0, symName: __ZNSt3__122__make_exception_guardB8ue170006INS_29_AllocatorDestroyRangeReverseINS_9allocatorI5StateEENS_16reverse_iteratorIPS3_EEEEEENS_28__exception_guard_exceptionsIT_EESA_, symObjAddr: 0xF68C, symBinAddr: 0x100011AD8, symSize: 0x4C }
  - { offsetInCU: 0x13D76, offset: 0x13D76, size: 0x8, addend: 0x0, symName: __ZNSt3__1neB8ue170006IP5StateS2_EEbRKNS_16reverse_iteratorIT_EERKNS3_IT0_EE, symObjAddr: 0xF71C, symBinAddr: 0x100011B68, symSize: 0x48 }
  - { offsetInCU: 0x13DC2, offset: 0x13DC2, size: 0x8, addend: 0x0, symName: __ZNSt3__112__to_addressB8ue170006INS_16reverse_iteratorIP5StateEEvEEu7__decayIDTclsr19__to_address_helperIT_EE6__callclsr3stdE7declvalIRKS5_EEEEES7_, symObjAddr: 0xF798, symBinAddr: 0x100011BE4, symSize: 0x24 }
  - { offsetInCU: 0x13E21, offset: 0x13E21, size: 0x8, addend: 0x0, symName: __ZNSt3__119__allocator_destroyB8ue170006INS_9allocatorI5StateEENS_16reverse_iteratorINS4_IPS2_EEEES7_EEvRT_T0_T1_, symObjAddr: 0xFBE4, symBinAddr: 0x100012030, symSize: 0x70 }
  - { offsetInCU: 0x13E86, offset: 0x13E86, size: 0x8, addend: 0x0, symName: __ZNSt3__1neB8ue170006INS_16reverse_iteratorIP5StateEES4_EEbRKNS1_IT_EERKNS1_IT0_EE, symObjAddr: 0xFC90, symBinAddr: 0x1000120DC, symSize: 0x60 }
  - { offsetInCU: 0x13ED2, offset: 0x13ED2, size: 0x8, addend: 0x0, symName: __ZNSt3__112__to_addressB8ue170006INS_16reverse_iteratorINS1_IP5StateEEEEvEEu7__decayIDTclsr19__to_address_helperIT_EE6__callclsr3stdE7declvalIRKS6_EEEEES8_, symObjAddr: 0xFCF0, symBinAddr: 0x10001213C, symSize: 0x24 }
  - { offsetInCU: 0x13F31, offset: 0x13F31, size: 0x8, addend: 0x0, symName: __ZNSt3__116__pad_and_outputB8ue170006IcNS_11char_traitsIcEEEENS_19ostreambuf_iteratorIT_T0_EES6_PKS4_S8_S8_RNS_8ios_baseES4_, symObjAddr: 0x10294, symBinAddr: 0x1000126E0, symSize: 0x240 }
  - { offsetInCU: 0x14000, offset: 0x14000, size: 0x8, addend: 0x0, symName: __ZNSt3__112__to_addressB8ue170006IcEEPT_S2_, symObjAddr: 0x107FC, symBinAddr: 0x100012C48, symSize: 0x14 }
  - { offsetInCU: 0x14068, offset: 0x14068, size: 0x8, addend: 0x0, symName: __ZNSt3__19use_facetB8ue170006INS_5ctypeIcEEEERKT_RKNS_6localeE, symObjAddr: 0x10AB4, symBinAddr: 0x100012F00, symSize: 0x2C }
  - { offsetInCU: 0x14535, offset: 0x14535, size: 0x8, addend: 0x0, symName: __ZNSt3__118__constexpr_strlenB8ue170006EPKc, symObjAddr: 0x10B4C, symBinAddr: 0x100012F98, symSize: 0x24 }
  - { offsetInCU: 0x14561, offset: 0x14561, size: 0x8, addend: 0x0, symName: __ZNSt3__19push_heapB8ue170006INS_11__wrap_iterIP5StateEENS_7greaterIS2_EEEEvT_S7_T0_, symObjAddr: 0x10D7C, symBinAddr: 0x1000131C8, symSize: 0x40 }
  - { offsetInCU: 0x145B7, offset: 0x145B7, size: 0x8, addend: 0x0, symName: __ZNSt3__111__push_heapB8ue170006INS_17_ClassicAlgPolicyENS_11__wrap_iterIP5StateEENS_7greaterIS3_EEEEvT0_S8_RT1_, symObjAddr: 0x10F24, symBinAddr: 0x100013370, symSize: 0x5C }
  - { offsetInCU: 0x14624, offset: 0x14624, size: 0x8, addend: 0x0, symName: __ZNSt3__1miB8ue170006IP5StateS2_EEDTmicldtfp_4baseEcldtfp0_4baseEERKNS_11__wrap_iterIT_EERKNS4_IT0_EE, symObjAddr: 0x10F80, symBinAddr: 0x1000133CC, symSize: 0x48 }
  - { offsetInCU: 0x14670, offset: 0x14670, size: 0x8, addend: 0x0, symName: __ZNSt3__19__sift_upB8ue170006INS_17_ClassicAlgPolicyERNS_7greaterI5StateEENS_11__wrap_iterIPS3_EEEEvT1_S9_OT0_NS_15iterator_traitsIS9_E15difference_typeE, symObjAddr: 0x10FC8, symBinAddr: 0x100013414, symSize: 0x19C }
  - { offsetInCU: 0x1477B, offset: 0x1477B, size: 0x8, addend: 0x0, symName: __ZNSt3__18pop_heapB8ue170006INS_11__wrap_iterIP5StateEENS_7greaterIS2_EEEEvT_S7_T0_, symObjAddr: 0x115CC, symBinAddr: 0x100013A18, symSize: 0x58 }
  - { offsetInCU: 0x147DF, offset: 0x147DF, size: 0x8, addend: 0x0, symName: __ZNSt3__110__pop_heapB8ue170006INS_17_ClassicAlgPolicyENS_7greaterI5StateEENS_11__wrap_iterIPS3_EEEEvT1_S8_RT0_NS_15iterator_traitsIS8_E15difference_typeE, symObjAddr: 0x11650, symBinAddr: 0x100013A9C, symSize: 0x164 }
  - { offsetInCU: 0x14889, offset: 0x14889, size: 0x8, addend: 0x0, symName: __ZNSt3__130__uninitialized_allocator_copyB8ue170006INS_9allocatorINS_6vectorIiNS1_IiEEEEEEPKS4_S7_PS4_EET2_RT_T0_T1_S9_, symObjAddr: 0x11DAC, symBinAddr: 0x1000141F8, symSize: 0x80 }
  - { offsetInCU: 0x14926, offset: 0x14926, size: 0x8, addend: 0x0, symName: __ZNSt3__114__unwrap_rangeB8ue170006IPKNS_6vectorIiNS_9allocatorIiEEEES6_EENS_4pairIT0_S8_EET_SA_, symObjAddr: 0x11E2C, symBinAddr: 0x100014278, symSize: 0x60 }
  - { offsetInCU: 0x14972, offset: 0x14972, size: 0x8, addend: 0x0, symName: __ZNSt3__135__uninitialized_allocator_copy_implB8ue170006INS_9allocatorINS_6vectorIiNS1_IiEEEEEEPKS4_S7_PS4_EET2_RT_T0_T1_S9_, symObjAddr: 0x11E8C, symBinAddr: 0x1000142D8, symSize: 0xF4 }
  - { offsetInCU: 0x14A10, offset: 0x14A10, size: 0x8, addend: 0x0, symName: __ZNSt3__19make_pairB8ue170006IPKNS_6vectorIiNS_9allocatorIiEEEES6_EENS_4pairINS_18__unwrap_ref_decayIT_E4typeENS8_IT0_E4typeEEEOS9_OSC_, symObjAddr: 0x11F80, symBinAddr: 0x1000143CC, symSize: 0x38 }
  - { offsetInCU: 0x14A5F, offset: 0x14A5F, size: 0x8, addend: 0x0, symName: __ZNSt3__113__unwrap_iterB8ue170006IPKNS_6vectorIiNS_9allocatorIiEEEENS_18__unwrap_iter_implIS6_Lb1EEELi0EEEDTclsrT0_8__unwrapclsr3stdE7declvalIT_EEEESA_, symObjAddr: 0x11FB8, symBinAddr: 0x100014404, symSize: 0x24 }
  - { offsetInCU: 0x14BCA, offset: 0x14BCA, size: 0x8, addend: 0x0, symName: __ZNSt3__112__to_addressB8ue170006IKNS_6vectorIiNS_9allocatorIiEEEEEEPT_S7_, symObjAddr: 0x12070, symBinAddr: 0x1000144BC, symSize: 0x14 }
  - { offsetInCU: 0x14BFF, offset: 0x14BFF, size: 0x8, addend: 0x0, symName: __ZNSt3__122__make_exception_guardB8ue170006INS_6vectorINS_5tupleIJNS1_INS1_IiNS_9allocatorIiEEEENS3_IS5_EEEEiiEEENS3_IS8_EEE16__destroy_vectorEEENS_28__exception_guard_exceptionsIT_EESD_, symObjAddr: 0x12244, symBinAddr: 0x100014690, symSize: 0x40 }
  - { offsetInCU: 0x14C34, offset: 0x14C34, size: 0x8, addend: 0x0, symName: __ZNSt3__119__allocate_at_leastB8ue170006INS_9allocatorINS_5tupleIJNS_6vectorINS3_IiNS1_IiEEEENS1_IS5_EEEEiiEEEEEEENS_19__allocation_resultINS_16allocator_traitsIT_E7pointerEEERSC_m, symObjAddr: 0x12644, symBinAddr: 0x100014A90, symSize: 0x40 }
  - { offsetInCU: 0x14C77, offset: 0x14C77, size: 0x8, addend: 0x0, symName: __ZNSt3__112__to_addressB8ue170006INS_5tupleIJNS_6vectorINS2_IiNS_9allocatorIiEEEENS3_IS5_EEEEiiEEEEEPT_SA_, symObjAddr: 0x12968, symBinAddr: 0x100014DB4, symSize: 0x14 }
  - { offsetInCU: 0x14CAC, offset: 0x14CAC, size: 0x8, addend: 0x0, symName: __ZNSt3__130__uninitialized_allocator_copyB8ue170006INS_9allocatorINS_5tupleIJNS_6vectorINS3_IiNS1_IiEEEENS1_IS5_EEEEiiEEEEEPKS8_SB_PS8_EET2_RT_T0_T1_SD_, symObjAddr: 0x12A18, symBinAddr: 0x100014E64, symSize: 0x80 }
  - { offsetInCU: 0x14D49, offset: 0x14D49, size: 0x8, addend: 0x0, symName: __ZNSt3__114__unwrap_rangeB8ue170006IPKNS_5tupleIJNS_6vectorINS2_IiNS_9allocatorIiEEEENS3_IS5_EEEEiiEEESA_EENS_4pairIT0_SC_EET_SE_, symObjAddr: 0x12B08, symBinAddr: 0x100014F54, symSize: 0x60 }
  - { offsetInCU: 0x14D95, offset: 0x14D95, size: 0x8, addend: 0x0, symName: __ZNSt3__135__uninitialized_allocator_copy_implB8ue170006INS_9allocatorINS_5tupleIJNS_6vectorINS3_IiNS1_IiEEEENS1_IS5_EEEEiiEEEEEPKS8_SB_PS8_EET2_RT_T0_T1_SD_, symObjAddr: 0x12B68, symBinAddr: 0x100014FB4, symSize: 0xF4 }
  - { offsetInCU: 0x14E33, offset: 0x14E33, size: 0x8, addend: 0x0, symName: __ZNSt3__113__unwrap_iterB8ue170006IPNS_5tupleIJNS_6vectorINS2_IiNS_9allocatorIiEEEENS3_IS5_EEEEiiEEENS_18__unwrap_iter_implIS9_Lb1EEELi0EEEDTclsrT0_8__unwrapclsr3stdE7declvalIT_EEEESD_, symObjAddr: 0x12C5C, symBinAddr: 0x1000150A8, symSize: 0x24 }
  - { offsetInCU: 0x14E77, offset: 0x14E77, size: 0x8, addend: 0x0, symName: __ZNSt3__113__rewrap_iterB8ue170006IPNS_5tupleIJNS_6vectorINS2_IiNS_9allocatorIiEEEENS3_IS5_EEEEiiEEES9_NS_18__unwrap_iter_implIS9_Lb1EEEEET_SC_T0_, symObjAddr: 0x12C80, symBinAddr: 0x1000150CC, symSize: 0x3C }
  - { offsetInCU: 0x14ECC, offset: 0x14ECC, size: 0x8, addend: 0x0, symName: __ZNSt3__19make_pairB8ue170006IPKNS_5tupleIJNS_6vectorINS2_IiNS_9allocatorIiEEEENS3_IS5_EEEEiiEEESA_EENS_4pairINS_18__unwrap_ref_decayIT_E4typeENSC_IT0_E4typeEEEOSD_OSG_, symObjAddr: 0x12CBC, symBinAddr: 0x100015108, symSize: 0x38 }
  - { offsetInCU: 0x14F1B, offset: 0x14F1B, size: 0x8, addend: 0x0, symName: __ZNSt3__113__unwrap_iterB8ue170006IPKNS_5tupleIJNS_6vectorINS2_IiNS_9allocatorIiEEEENS3_IS5_EEEEiiEEENS_18__unwrap_iter_implISA_Lb1EEELi0EEEDTclsrT0_8__unwrapclsr3stdE7declvalIT_EEEESE_, symObjAddr: 0x12CF4, symBinAddr: 0x100015140, symSize: 0x24 }
  - { offsetInCU: 0x15086, offset: 0x15086, size: 0x8, addend: 0x0, symName: __ZNSt3__112__to_addressB8ue170006IKNS_5tupleIJNS_6vectorINS2_IiNS_9allocatorIiEEEENS3_IS5_EEEEiiEEEEEPT_SB_, symObjAddr: 0x12DAC, symBinAddr: 0x1000151F8, symSize: 0x14 }
  - { offsetInCU: 0x150BB, offset: 0x150BB, size: 0x8, addend: 0x0, symName: __ZNSt3__122__make_exception_guardB8ue170006INS_29_AllocatorDestroyRangeReverseINS_9allocatorINS_5tupleIJNS_6vectorINS4_IiNS2_IiEEEENS2_IS6_EEEEiiEEEEEPS9_EEEENS_28__exception_guard_exceptionsIT_EESE_, symObjAddr: 0x12DC0, symBinAddr: 0x10001520C, symSize: 0x4C }
  - { offsetInCU: 0x150F1, offset: 0x150F1, size: 0x8, addend: 0x0, symName: __ZNSt3__119__allocator_destroyB8ue170006INS_9allocatorINS_5tupleIJNS_6vectorINS3_IiNS1_IiEEEENS1_IS5_EEEEiiEEEEENS_16reverse_iteratorIPS8_EESC_EEvRT_T0_T1_, symObjAddr: 0x1316C, symBinAddr: 0x1000155B8, symSize: 0x70 }
  - { offsetInCU: 0x15154, offset: 0x15154, size: 0x8, addend: 0x0, symName: __ZNSt3__1neB8ue170006IPNS_5tupleIJNS_6vectorINS2_IiNS_9allocatorIiEEEENS3_IS5_EEEEiiEEES9_EEbRKNS_16reverse_iteratorIT_EERKNSA_IT0_EE, symObjAddr: 0x13210, symBinAddr: 0x10001565C, symSize: 0x48 }
  - { offsetInCU: 0x151A0, offset: 0x151A0, size: 0x8, addend: 0x0, symName: __ZNSt3__112__to_addressB8ue170006INS_16reverse_iteratorIPNS_5tupleIJNS_6vectorINS3_IiNS_9allocatorIiEEEENS4_IS6_EEEEiiEEEEEvEEu7__decayIDTclsr19__to_address_helperIT_EE6__callclsr3stdE7declvalIRKSC_EEEEESE_, symObjAddr: 0x13284, symBinAddr: 0x1000156D0, symSize: 0x24 }
  - { offsetInCU: 0x15A06, offset: 0x15A06, size: 0x8, addend: 0x0, symName: __ZSt28__throw_bad_array_new_lengthB8ue170006v, symObjAddr: 0x6174, symBinAddr: 0x1000085C0, symSize: 0x34 }
  - { offsetInCU: 0x16730, offset: 0x16730, size: 0x8, addend: 0x0, symName: __ZNSt3__16vectorINS_5tupleIJiiiEEENS_9allocatorIS2_EEE26__swap_out_circular_bufferERNS_14__split_bufferIS2_RS4_EE, symObjAddr: 0xDEB4, symBinAddr: 0x100010300, symSize: 0x110 }
  - { offsetInCU: 0x167B0, offset: 0x167B0, size: 0x8, addend: 0x0, symName: __ZNSt3__16vectorI5StateNS_9allocatorIS1_EEE26__swap_out_circular_bufferERNS_14__split_bufferIS1_RS3_EE, symObjAddr: 0xEF18, symBinAddr: 0x100011364, symSize: 0x110 }
  - { offsetInCU: 0x18E92, offset: 0x18E92, size: 0x8, addend: 0x0, symName: __Z17protection_radiusi, symObjAddr: 0x0, symBinAddr: 0x10000244C, symSize: 0x80 }
  - { offsetInCU: 0x18EBE, offset: 0x18EBE, size: 0x8, addend: 0x0, symName: __Z28calculate_protected_familiesRKNSt3__16vectorINS0_IiNS_9allocatorIiEEEENS1_IS3_EEEERK5State, symObjAddr: 0xB8, symBinAddr: 0x100002504, symSize: 0x354 }
  - { offsetInCU: 0x18FC6, offset: 0x18FC6, size: 0x8, addend: 0x0, symName: __ZNKSt3__16vectorINS0_IiNS_9allocatorIiEEEENS1_IS3_EEE4sizeB8ue170006Ev, symObjAddr: 0x40C, symBinAddr: 0x100002858, symSize: 0x28 }
  - { offsetInCU: 0x18FEC, offset: 0x18FEC, size: 0x8, addend: 0x0, symName: __ZNKSt3__16vectorINS0_IiNS_9allocatorIiEEEENS1_IS3_EEEixB8ue170006Em, symObjAddr: 0x434, symBinAddr: 0x100002880, symSize: 0x2C }
  - { offsetInCU: 0x19023, offset: 0x19023, size: 0x8, addend: 0x0, symName: __ZNKSt3__16vectorIiNS_9allocatorIiEEE4sizeB8ue170006Ev, symObjAddr: 0x460, symBinAddr: 0x1000028AC, symSize: 0x28 }
  - { offsetInCU: 0x19049, offset: 0x19049, size: 0x8, addend: 0x0, symName: __ZNSt3__16vectorIbNS_9allocatorIbEEEC1EmRKb, symObjAddr: 0x488, symBinAddr: 0x1000028D4, symSize: 0x3C }
  - { offsetInCU: 0x19093, offset: 0x19093, size: 0x8, addend: 0x0, symName: __ZNSt3__16vectorINS0_IbNS_9allocatorIbEEEENS1_IS3_EEEC1EmRKS3_, symObjAddr: 0x4C4, symBinAddr: 0x100002910, symSize: 0x3C }
  - { offsetInCU: 0x190DD, offset: 0x190DD, size: 0x8, addend: 0x0, symName: __ZNSt3__16vectorIbNS_9allocatorIbEEED1B8ue170006Ev, symObjAddr: 0x500, symBinAddr: 0x10000294C, symSize: 0x2C }
  - { offsetInCU: 0x19107, offset: 0x19107, size: 0x8, addend: 0x0, symName: __ZNKSt3__16vectorINS_5tupleIJiiiEEENS_9allocatorIS2_EEE5beginB8ue170006Ev, symObjAddr: 0x52C, symBinAddr: 0x100002978, symSize: 0x30 }
  - { offsetInCU: 0x1912F, offset: 0x1912F, size: 0x8, addend: 0x0, symName: __ZNKSt3__16vectorINS_5tupleIJiiiEEENS_9allocatorIS2_EEE3endB8ue170006Ev, symObjAddr: 0x55C, symBinAddr: 0x1000029A8, symSize: 0x30 }
  - { offsetInCU: 0x19157, offset: 0x19157, size: 0x8, addend: 0x0, symName: __ZNKSt3__111__wrap_iterIPKNS_5tupleIJiiiEEEEdeB8ue170006Ev, symObjAddr: 0x5C0, symBinAddr: 0x100002A0C, symSize: 0x18 }
  - { offsetInCU: 0x19213, offset: 0x19213, size: 0x8, addend: 0x0, symName: __ZNSt3__15tupleIJRiS1_S1_EEaSB8ue170006IJiiiELi0EEERS2_RKNS0_IJDpT_EEE, symObjAddr: 0x618, symBinAddr: 0x100002A64, symSize: 0x3C }
  - { offsetInCU: 0x19263, offset: 0x19263, size: 0x8, addend: 0x0, symName: __ZNSt3__16vectorINS0_IbNS_9allocatorIbEEEENS1_IS3_EEEixB8ue170006Em, symObjAddr: 0x6AC, symBinAddr: 0x100002AF8, symSize: 0x2C }
  - { offsetInCU: 0x1929A, offset: 0x1929A, size: 0x8, addend: 0x0, symName: __ZNSt3__16vectorIbNS_9allocatorIbEEEixB8ue170006Em, symObjAddr: 0x6D8, symBinAddr: 0x100002B24, symSize: 0x3C }
  - { offsetInCU: 0x192CF, offset: 0x192CF, size: 0x8, addend: 0x0, symName: __ZNKSt3__115__bit_referenceINS_6vectorIbNS_9allocatorIbEEEELb1EEcvbB8ue170006Ev, symObjAddr: 0x714, symBinAddr: 0x100002B60, symSize: 0x2C }
  - { offsetInCU: 0x192F5, offset: 0x192F5, size: 0x8, addend: 0x0, symName: __ZNKSt3__16vectorIiNS_9allocatorIiEEEixB8ue170006Em, symObjAddr: 0x740, symBinAddr: 0x100002B8C, symSize: 0x24 }
  - { offsetInCU: 0x1932C, offset: 0x1932C, size: 0x8, addend: 0x0, symName: __ZNSt3__115__bit_referenceINS_6vectorIbNS_9allocatorIbEEEELb1EEaSB8ue170006Eb, symObjAddr: 0x764, symBinAddr: 0x100002BB0, symSize: 0x6C }
  - { offsetInCU: 0x19360, offset: 0x19360, size: 0x8, addend: 0x0, symName: __ZNSt3__111__wrap_iterIPKNS_5tupleIJiiiEEEEppB8ue170006Ev, symObjAddr: 0x7D0, symBinAddr: 0x100002C1C, symSize: 0x20 }
  - { offsetInCU: 0x19386, offset: 0x19386, size: 0x8, addend: 0x0, symName: __ZNSt3__16vectorINS0_IbNS_9allocatorIbEEEENS1_IS3_EEED1B8ue170006Ev, symObjAddr: 0x7F0, symBinAddr: 0x100002C3C, symSize: 0x2C }
  - { offsetInCU: 0x193AF, offset: 0x193AF, size: 0x8, addend: 0x0, symName: __Z19generate_successorsRK5StateRKNSt3__16vectorINS3_IiNS2_9allocatorIiEEEENS4_IS6_EEEEi, symObjAddr: 0x81C, symBinAddr: 0x100002C68, symSize: 0x2F8 }
  - { offsetInCU: 0x194AF, offset: 0x194AF, size: 0x8, addend: 0x0, symName: __ZNSt3__16vectorI5StateNS_9allocatorIS1_EEEC1B8ue170006Ev, symObjAddr: 0xB14, symBinAddr: 0x100002F60, symSize: 0x2C }
  - { offsetInCU: 0x194D9, offset: 0x194D9, size: 0x8, addend: 0x0, symName: __ZNSt3__16vectorIiNS_9allocatorIiEEEC1B8ue170006ESt16initializer_listIiE, symObjAddr: 0xB40, symBinAddr: 0x100002F8C, symSize: 0x3C }
  - { offsetInCU: 0x19514, offset: 0x19514, size: 0x8, addend: 0x0, symName: __ZNSt3__16vectorIiNS_9allocatorIiEEE5beginB8ue170006Ev, symObjAddr: 0xB7C, symBinAddr: 0x100002FC8, symSize: 0x30 }
  - { offsetInCU: 0x1953C, offset: 0x1953C, size: 0x8, addend: 0x0, symName: __ZNSt3__16vectorIiNS_9allocatorIiEEE3endB8ue170006Ev, symObjAddr: 0xBAC, symBinAddr: 0x100002FF8, symSize: 0x30 }
  - { offsetInCU: 0x19564, offset: 0x19564, size: 0x8, addend: 0x0, symName: __ZNKSt3__111__wrap_iterIPiEdeB8ue170006Ev, symObjAddr: 0xC10, symBinAddr: 0x10000305C, symSize: 0x18 }
  - { offsetInCU: 0x1958A, offset: 0x1958A, size: 0x8, addend: 0x0, symName: __ZN5StateC1ERKS_, symObjAddr: 0xC28, symBinAddr: 0x100003074, symSize: 0x34 }
  - { offsetInCU: 0x195BF, offset: 0x195BF, size: 0x8, addend: 0x0, symName: __ZNSt3__16vectorINS_5tupleIJiiiEEENS_9allocatorIS2_EEE12emplace_backIJRmS7_RiEEERS2_DpOT_, symObjAddr: 0xC5C, symBinAddr: 0x1000030A8, symSize: 0x8C }
  - { offsetInCU: 0x19629, offset: 0x19629, size: 0x8, addend: 0x0, symName: __ZNSt3__16vectorI5StateNS_9allocatorIS1_EEE9push_backB8ue170006ERKS1_, symObjAddr: 0xCE8, symBinAddr: 0x100003134, symSize: 0x6C }
  - { offsetInCU: 0x19660, offset: 0x19660, size: 0x8, addend: 0x0, symName: __ZN5StateD1Ev, symObjAddr: 0xD54, symBinAddr: 0x1000031A0, symSize: 0x2C }
  - { offsetInCU: 0x1968C, offset: 0x1968C, size: 0x8, addend: 0x0, symName: __ZNSt3__111__wrap_iterIPiEppB8ue170006Ev, symObjAddr: 0xD80, symBinAddr: 0x1000031CC, symSize: 0x20 }
  - { offsetInCU: 0x196B2, offset: 0x196B2, size: 0x8, addend: 0x0, symName: __ZNSt3__16vectorIiNS_9allocatorIiEEED1B8ue170006Ev, symObjAddr: 0xDA0, symBinAddr: 0x1000031EC, symSize: 0x2C }
  - { offsetInCU: 0x196DC, offset: 0x196DC, size: 0x8, addend: 0x0, symName: __ZNSt3__16vectorI5StateNS_9allocatorIS1_EEED1B8ue170006Ev, symObjAddr: 0xDCC, symBinAddr: 0x100003218, symSize: 0x2C }
  - { offsetInCU: 0x19705, offset: 0x19705, size: 0x8, addend: 0x0, symName: __Z9print_mapRKNSt3__16vectorINS0_IiNS_9allocatorIiEEEENS1_IS3_EEEERK5Statei, symObjAddr: 0xDF8, symBinAddr: 0x100003244, symSize: 0x458 }
  - { offsetInCU: 0x1987E, offset: 0x1987E, size: 0x8, addend: 0x0, symName: __ZNSt3__113basic_ostreamIcNS_11char_traitsIcEEElsB8ue170006EPFRS3_S4_E, symObjAddr: 0x1304, symBinAddr: 0x100003750, symSize: 0x2C }
  - { offsetInCU: 0x198B2, offset: 0x198B2, size: 0x8, addend: 0x0, symName: __ZNKSt3__16vectorINS_5tupleIJiiiEEENS_9allocatorIS2_EEE4sizeB8ue170006Ev, symObjAddr: 0x1454, symBinAddr: 0x1000038A0, symSize: 0x28 }
  - { offsetInCU: 0x198D7, offset: 0x198D7, size: 0x8, addend: 0x0, symName: __Z16process_instanceRKNSt3__16vectorINS0_IiNS_9allocatorIiEEEENS1_IS3_EEEEii, symObjAddr: 0x147C, symBinAddr: 0x1000038C8, symSize: 0x264 }
  - { offsetInCU: 0x199E9, offset: 0x199E9, size: 0x8, addend: 0x0, symName: __ZNSt3__114priority_queueI5StateNS_6vectorIS1_NS_9allocatorIS1_EEEENS_7greaterIS1_EEEC1B8ue170006Ev, symObjAddr: 0x16E0, symBinAddr: 0x100003B2C, symSize: 0x2C }
  - { offsetInCU: 0x19A13, offset: 0x19A13, size: 0x8, addend: 0x0, symName: __ZNSt3__114priority_queueI5StateNS_6vectorIS1_NS_9allocatorIS1_EEEENS_7greaterIS1_EEE4pushEOS1_, symObjAddr: 0x170C, symBinAddr: 0x100003B58, symSize: 0x58 }
  - { offsetInCU: 0x19A4A, offset: 0x19A4A, size: 0x8, addend: 0x0, symName: __ZNSt3__16vectorINS_5tupleIJiiiEEENS_9allocatorIS2_EEEC1B8ue170006Ev, symObjAddr: 0x1764, symBinAddr: 0x100003BB0, symSize: 0x2C }
  - { offsetInCU: 0x19A74, offset: 0x19A74, size: 0x8, addend: 0x0, symName: __ZN5StateC1ENSt3__16vectorINS0_5tupleIJiiiEEENS0_9allocatorIS3_EEEEii, symObjAddr: 0x1790, symBinAddr: 0x100003BDC, symSize: 0x44 }
  - { offsetInCU: 0x19AC9, offset: 0x19AC9, size: 0x8, addend: 0x0, symName: __ZNSt3__16vectorINS_5tupleIJiiiEEENS_9allocatorIS2_EEED1B8ue170006Ev, symObjAddr: 0x17D4, symBinAddr: 0x100003C20, symSize: 0x2C }
  - { offsetInCU: 0x19AF3, offset: 0x19AF3, size: 0x8, addend: 0x0, symName: __ZNKSt3__114priority_queueI5StateNS_6vectorIS1_NS_9allocatorIS1_EEEENS_7greaterIS1_EEE5emptyB8ue170006Ev, symObjAddr: 0x1800, symBinAddr: 0x100003C4C, symSize: 0x28 }
  - { offsetInCU: 0x19B19, offset: 0x19B19, size: 0x8, addend: 0x0, symName: __ZNKSt3__114priority_queueI5StateNS_6vectorIS1_NS_9allocatorIS1_EEEENS_7greaterIS1_EEE3topB8ue170006Ev, symObjAddr: 0x1828, symBinAddr: 0x100003C74, symSize: 0x24 }
  - { offsetInCU: 0x19B3F, offset: 0x19B3F, size: 0x8, addend: 0x0, symName: __ZNSt3__114priority_queueI5StateNS_6vectorIS1_NS_9allocatorIS1_EEEENS_7greaterIS1_EEE3popEv, symObjAddr: 0x184C, symBinAddr: 0x100003C98, symSize: 0x50 }
  - { offsetInCU: 0x19B67, offset: 0x19B67, size: 0x8, addend: 0x0, symName: __ZNSt3__16vectorI5StateNS_9allocatorIS1_EEE5beginB8ue170006Ev, symObjAddr: 0x189C, symBinAddr: 0x100003CE8, symSize: 0x30 }
  - { offsetInCU: 0x19B8F, offset: 0x19B8F, size: 0x8, addend: 0x0, symName: __ZNSt3__16vectorI5StateNS_9allocatorIS1_EEE3endB8ue170006Ev, symObjAddr: 0x18CC, symBinAddr: 0x100003D18, symSize: 0x30 }
  - { offsetInCU: 0x19BB7, offset: 0x19BB7, size: 0x8, addend: 0x0, symName: __ZNKSt3__111__wrap_iterIP5StateEdeB8ue170006Ev, symObjAddr: 0x1930, symBinAddr: 0x100003D7C, symSize: 0x18 }
  - { offsetInCU: 0x19BDD, offset: 0x19BDD, size: 0x8, addend: 0x0, symName: __ZNSt3__114priority_queueI5StateNS_6vectorIS1_NS_9allocatorIS1_EEEENS_7greaterIS1_EEE4pushERKS1_, symObjAddr: 0x1948, symBinAddr: 0x100003D94, symSize: 0x58 }
  - { offsetInCU: 0x19C14, offset: 0x19C14, size: 0x8, addend: 0x0, symName: __ZNSt3__111__wrap_iterIP5StateEppB8ue170006Ev, symObjAddr: 0x19A0, symBinAddr: 0x100003DEC, symSize: 0x20 }
  - { offsetInCU: 0x19C3A, offset: 0x19C3A, size: 0x8, addend: 0x0, symName: __ZNSt3__114priority_queueI5StateNS_6vectorIS1_NS_9allocatorIS1_EEEENS_7greaterIS1_EEED1Ev, symObjAddr: 0x19C0, symBinAddr: 0x100003E0C, symSize: 0x2C }
  - { offsetInCU: 0x19C67, offset: 0x19C67, size: 0x8, addend: 0x0, symName: _main, symObjAddr: 0x19EC, symBinAddr: 0x100003E38, symSize: 0x3860 }
  - { offsetInCU: 0x19D4E, offset: 0x19D4E, size: 0x8, addend: 0x0, symName: __ZNSt3__16vectorINS0_IiNS_9allocatorIiEEEENS1_IS3_EEEC1B8ue170006ESt16initializer_listIS3_E, symObjAddr: 0x524C, symBinAddr: 0x100007698, symSize: 0x3C }
  - { offsetInCU: 0x19D89, offset: 0x19D89, size: 0x8, addend: 0x0, symName: __ZNSt3__15tupleIJNS_6vectorINS1_IiNS_9allocatorIiEEEENS2_IS4_EEEEiiEEC1B8ue170006INS_4_AndELi0EEERKS6_RKiSD_, symObjAddr: 0x5288, symBinAddr: 0x1000076D4, symSize: 0x44 }
  - { offsetInCU: 0x19DEF, offset: 0x19DEF, size: 0x8, addend: 0x0, symName: __ZNSt3__16vectorINS_5tupleIJNS0_INS0_IiNS_9allocatorIiEEEENS2_IS4_EEEEiiEEENS2_IS7_EEEC1B8ue170006ESt16initializer_listIS7_E, symObjAddr: 0x52CC, symBinAddr: 0x100007718, symSize: 0x3C }
  - { offsetInCU: 0x19E2A, offset: 0x19E2A, size: 0x8, addend: 0x0, symName: __ZNSt3__15tupleIJNS_6vectorINS1_IiNS_9allocatorIiEEEENS2_IS4_EEEEiiEED1Ev, symObjAddr: 0x5308, symBinAddr: 0x100007754, symSize: 0x2C }
  - { offsetInCU: 0x19E57, offset: 0x19E57, size: 0x8, addend: 0x0, symName: __ZNSt3__16vectorINS0_IiNS_9allocatorIiEEEENS1_IS3_EEED1B8ue170006Ev, symObjAddr: 0x5334, symBinAddr: 0x100007780, symSize: 0x2C }
  - { offsetInCU: 0x19E81, offset: 0x19E81, size: 0x8, addend: 0x0, symName: __ZNSt3__16vectorINS_5tupleIJNS0_INS0_IiNS_9allocatorIiEEEENS2_IS4_EEEEiiEEENS2_IS7_EEE5beginB8ue170006Ev, symObjAddr: 0x5360, symBinAddr: 0x1000077AC, symSize: 0x30 }
  - { offsetInCU: 0x19EA9, offset: 0x19EA9, size: 0x8, addend: 0x0, symName: __ZNSt3__16vectorINS_5tupleIJNS0_INS0_IiNS_9allocatorIiEEEENS2_IS4_EEEEiiEEENS2_IS7_EEE3endB8ue170006Ev, symObjAddr: 0x5390, symBinAddr: 0x1000077DC, symSize: 0x30 }
  - { offsetInCU: 0x19ED1, offset: 0x19ED1, size: 0x8, addend: 0x0, symName: __ZNKSt3__111__wrap_iterIPNS_5tupleIJNS_6vectorINS2_IiNS_9allocatorIiEEEENS3_IS5_EEEEiiEEEEdeB8ue170006Ev, symObjAddr: 0x53F4, symBinAddr: 0x100007840, symSize: 0x18 }
  - { offsetInCU: 0x19EF7, offset: 0x19EF7, size: 0x8, addend: 0x0, symName: __ZNSt3__111__wrap_iterIPNS_5tupleIJNS_6vectorINS2_IiNS_9allocatorIiEEEENS3_IS5_EEEEiiEEEEppB8ue170006Ev, symObjAddr: 0x5480, symBinAddr: 0x1000078CC, symSize: 0x20 }
  - { offsetInCU: 0x19F1D, offset: 0x19F1D, size: 0x8, addend: 0x0, symName: __ZNSt3__16vectorINS_5tupleIJNS0_INS0_IiNS_9allocatorIiEEEENS2_IS4_EEEEiiEEENS2_IS7_EEED1B8ue170006Ev, symObjAddr: 0x54A0, symBinAddr: 0x1000078EC, symSize: 0x2C }
  - { offsetInCU: 0x19F47, offset: 0x19F47, size: 0x8, addend: 0x0, symName: __ZNKSt3__111__wrap_iterIPKNS_5tupleIJiiiEEEE4baseB8ue170006Ev, symObjAddr: 0x5514, symBinAddr: 0x100007960, symSize: 0x18 }
  - { offsetInCU: 0x19F6D, offset: 0x19F6D, size: 0x8, addend: 0x0, symName: __ZNSt3__15tupleIJRiS1_S1_EEC1B8ue170006INS_4_AndELi0EEES1_S1_S1_, symObjAddr: 0x552C, symBinAddr: 0x100007978, symSize: 0x44 }
  - { offsetInCU: 0x19FD3, offset: 0x19FD3, size: 0x8, addend: 0x0, symName: __ZNSt3__15tupleIJRiS1_S1_EEC2B8ue170006INS_4_AndELi0EEES1_S1_S1_, symObjAddr: 0x5570, symBinAddr: 0x1000079BC, symSize: 0x44 }
  - { offsetInCU: 0x1A039, offset: 0x1A039, size: 0x8, addend: 0x0, symName: __ZNSt3__112__tuple_implINS_15__tuple_indicesIJLm0ELm1ELm2EEEEJRiS3_S3_EEC1B8ue170006IJLm0ELm1ELm2EEJS3_S3_S3_EJEJEJS3_S3_S3_EEENS1_IJXspT_EEEENS_13__tuple_typesIJDpT0_EEENS1_IJXspT1_EEEENS7_IJDpT2_EEEDpOT3_, symObjAddr: 0x55B4, symBinAddr: 0x100007A00, symSize: 0x44 }
  - { offsetInCU: 0x1A108, offset: 0x1A108, size: 0x8, addend: 0x0, symName: __ZNSt3__112__tuple_implINS_15__tuple_indicesIJLm0ELm1ELm2EEEEJRiS3_S3_EEC2B8ue170006IJLm0ELm1ELm2EEJS3_S3_S3_EJEJEJS3_S3_S3_EEENS1_IJXspT_EEEENS_13__tuple_typesIJDpT0_EEENS1_IJXspT1_EEEENS7_IJDpT2_EEEDpOT3_, symObjAddr: 0x55F8, symBinAddr: 0x100007A44, symSize: 0x5C }
  - { offsetInCU: 0x1A1D7, offset: 0x1A1D7, size: 0x8, addend: 0x0, symName: __ZNSt3__112__tuple_leafILm0ERiLb0EEC2B8ue170006IS1_vEEOT_, symObjAddr: 0x5654, symBinAddr: 0x100007AA0, symSize: 0x20 }
  - { offsetInCU: 0x1A21A, offset: 0x1A21A, size: 0x8, addend: 0x0, symName: __ZNSt3__112__tuple_leafILm1ERiLb0EEC2B8ue170006IS1_vEEOT_, symObjAddr: 0x5674, symBinAddr: 0x100007AC0, symSize: 0x20 }
  - { offsetInCU: 0x1A25D, offset: 0x1A25D, size: 0x8, addend: 0x0, symName: __ZNSt3__112__tuple_leafILm2ERiLb0EEC2B8ue170006IS1_vEEOT_, symObjAddr: 0x5694, symBinAddr: 0x100007AE0, symSize: 0x20 }
  - { offsetInCU: 0x1A2AA, offset: 0x1A2AA, size: 0x8, addend: 0x0, symName: __ZNKSt3__16__lessIvvEclB8ue170006IiiEEbRKT_RKT0_, symObjAddr: 0x5708, symBinAddr: 0x100007B54, symSize: 0x34 }
  - { offsetInCU: 0x1A2FE, offset: 0x1A2FE, size: 0x8, addend: 0x0, symName: __ZNKSt3__111__wrap_iterIPiE4baseB8ue170006Ev, symObjAddr: 0x57D8, symBinAddr: 0x100007C24, symSize: 0x18 }
  - { offsetInCU: 0x1A324, offset: 0x1A324, size: 0x8, addend: 0x0, symName: __ZN5StateC2ERKS_, symObjAddr: 0x57F0, symBinAddr: 0x100007C3C, symSize: 0x40 }
  - { offsetInCU: 0x1A359, offset: 0x1A359, size: 0x8, addend: 0x0, symName: __ZNSt3__16vectorINS_5tupleIJiiiEEENS_9allocatorIS2_EEEC1ERKS5_, symObjAddr: 0x5830, symBinAddr: 0x100007C7C, symSize: 0x34 }
  - { offsetInCU: 0x1A394, offset: 0x1A394, size: 0x8, addend: 0x0, symName: __ZNSt3__16vectorINS_5tupleIJiiiEEENS_9allocatorIS2_EEEC2ERKS5_, symObjAddr: 0x5864, symBinAddr: 0x100007CB0, symSize: 0x94 }
  - { offsetInCU: 0x1A3D9, offset: 0x1A3D9, size: 0x8, addend: 0x0, symName: __ZNSt3__116allocator_traitsINS_9allocatorINS_5tupleIJiiiEEEEEE37select_on_container_copy_constructionB8ue170006IS4_vvEES4_RKS4_, symObjAddr: 0x58F8, symBinAddr: 0x100007D44, symSize: 0x10 }
  - { offsetInCU: 0x1A408, offset: 0x1A408, size: 0x8, addend: 0x0, symName: __ZNKSt3__16vectorINS_5tupleIJiiiEEENS_9allocatorIS2_EEE7__allocB8ue170006Ev, symObjAddr: 0x5908, symBinAddr: 0x100007D54, symSize: 0x28 }
  - { offsetInCU: 0x1A43A, offset: 0x1A43A, size: 0x8, addend: 0x0, symName: __ZNSt3__117__compressed_pairIPNS_5tupleIJiiiEEENS_9allocatorIS2_EEEC1B8ue170006IDnS5_EEOT_OT0_, symObjAddr: 0x5930, symBinAddr: 0x100007D7C, symSize: 0x3C }
  - { offsetInCU: 0x1A492, offset: 0x1A492, size: 0x8, addend: 0x0, symName: __ZNSt3__16vectorINS_5tupleIJiiiEEENS_9allocatorIS2_EEE16__init_with_sizeB8ue170006IPS2_S7_EEvT_T0_m, symObjAddr: 0x596C, symBinAddr: 0x100007DB8, symSize: 0xB8 }
  - { offsetInCU: 0x1A506, offset: 0x1A506, size: 0x8, addend: 0x0, symName: __ZNKSt3__117__compressed_pairIPNS_5tupleIJiiiEEENS_9allocatorIS2_EEE6secondB8ue170006Ev, symObjAddr: 0x5A24, symBinAddr: 0x100007E70, symSize: 0x24 }
  - { offsetInCU: 0x1A52C, offset: 0x1A52C, size: 0x8, addend: 0x0, symName: __ZNKSt3__122__compressed_pair_elemINS_9allocatorINS_5tupleIJiiiEEEEELi1ELb1EE5__getB8ue170006Ev, symObjAddr: 0x5A48, symBinAddr: 0x100007E94, symSize: 0x14 }
  - { offsetInCU: 0x1A552, offset: 0x1A552, size: 0x8, addend: 0x0, symName: __ZNSt3__117__compressed_pairIPNS_5tupleIJiiiEEENS_9allocatorIS2_EEEC2B8ue170006IDnS5_EEOT_OT0_, symObjAddr: 0x5A5C, symBinAddr: 0x100007EA8, symSize: 0x44 }
  - { offsetInCU: 0x1A5AA, offset: 0x1A5AA, size: 0x8, addend: 0x0, symName: __ZNSt3__122__compressed_pair_elemIPNS_5tupleIJiiiEEELi0ELb0EEC2B8ue170006IDnvEEOT_, symObjAddr: 0x5AA0, symBinAddr: 0x100007EEC, symSize: 0x1C }
  - { offsetInCU: 0x1A5EC, offset: 0x1A5EC, size: 0x8, addend: 0x0, symName: __ZNSt3__122__compressed_pair_elemINS_9allocatorINS_5tupleIJiiiEEEEELi1ELb1EEC2B8ue170006IS4_vEEOT_, symObjAddr: 0x5ABC, symBinAddr: 0x100007F08, symSize: 0x18 }
  - { offsetInCU: 0x1A62E, offset: 0x1A62E, size: 0x8, addend: 0x0, symName: __ZNSt3__16vectorINS_5tupleIJiiiEEENS_9allocatorIS2_EEE16__destroy_vectorC1B8ue170006ERS5_, symObjAddr: 0x5B14, symBinAddr: 0x100007F60, symSize: 0x34 }
  - { offsetInCU: 0x1A667, offset: 0x1A667, size: 0x8, addend: 0x0, symName: __ZNSt3__16vectorINS_5tupleIJiiiEEENS_9allocatorIS2_EEE11__vallocateB8ue170006Em, symObjAddr: 0x5B48, symBinAddr: 0x100007F94, symSize: 0xB4 }
  - { offsetInCU: 0x1A6AB, offset: 0x1A6AB, size: 0x8, addend: 0x0, symName: __ZNSt3__16vectorINS_5tupleIJiiiEEENS_9allocatorIS2_EEE18__construct_at_endIPS2_S7_EEvT_T0_m, symObjAddr: 0x5BFC, symBinAddr: 0x100008048, symSize: 0x8C }
  - { offsetInCU: 0x1A721, offset: 0x1A721, size: 0x8, addend: 0x0, symName: __ZNSt3__128__exception_guard_exceptionsINS_6vectorINS_5tupleIJiiiEEENS_9allocatorIS3_EEE16__destroy_vectorEE10__completeB8ue170006Ev, symObjAddr: 0x5C88, symBinAddr: 0x1000080D4, symSize: 0x1C }
  - { offsetInCU: 0x1A747, offset: 0x1A747, size: 0x8, addend: 0x0, symName: __ZNSt3__128__exception_guard_exceptionsINS_6vectorINS_5tupleIJiiiEEENS_9allocatorIS3_EEE16__destroy_vectorEED1B8ue170006Ev, symObjAddr: 0x5CA4, symBinAddr: 0x1000080F0, symSize: 0x2C }
  - { offsetInCU: 0x1A771, offset: 0x1A771, size: 0x8, addend: 0x0, symName: __ZNSt3__128__exception_guard_exceptionsINS_6vectorINS_5tupleIJiiiEEENS_9allocatorIS3_EEE16__destroy_vectorEEC1B8ue170006ES7_, symObjAddr: 0x5CD0, symBinAddr: 0x10000811C, symSize: 0x34 }
  - { offsetInCU: 0x1A7A9, offset: 0x1A7A9, size: 0x8, addend: 0x0, symName: __ZNSt3__128__exception_guard_exceptionsINS_6vectorINS_5tupleIJiiiEEENS_9allocatorIS3_EEE16__destroy_vectorEEC2B8ue170006ES7_, symObjAddr: 0x5D04, symBinAddr: 0x100008150, symSize: 0x24 }
  - { offsetInCU: 0x1A7E1, offset: 0x1A7E1, size: 0x8, addend: 0x0, symName: __ZNSt3__16vectorINS_5tupleIJiiiEEENS_9allocatorIS2_EEE16__destroy_vectorC2B8ue170006ERS5_, symObjAddr: 0x5D28, symBinAddr: 0x100008174, symSize: 0x20 }
  - { offsetInCU: 0x1A81A, offset: 0x1A81A, size: 0x8, addend: 0x0, symName: __ZNKSt3__16vectorINS_5tupleIJiiiEEENS_9allocatorIS2_EEE8max_sizeEv, symObjAddr: 0x5D48, symBinAddr: 0x100008194, symSize: 0x60 }
  - { offsetInCU: 0x1A842, offset: 0x1A842, size: 0x8, addend: 0x0, symName: __ZNKSt3__16vectorINS_5tupleIJiiiEEENS_9allocatorIS2_EEE20__throw_length_errorB8ue170006Ev, symObjAddr: 0x5DA8, symBinAddr: 0x1000081F4, symSize: 0x1C }
  - { offsetInCU: 0x1A868, offset: 0x1A868, size: 0x8, addend: 0x0, symName: __ZNSt3__16vectorINS_5tupleIJiiiEEENS_9allocatorIS2_EEE7__allocB8ue170006Ev, symObjAddr: 0x5E04, symBinAddr: 0x100008250, symSize: 0x28 }
  - { offsetInCU: 0x1A88E, offset: 0x1A88E, size: 0x8, addend: 0x0, symName: __ZNSt3__16vectorINS_5tupleIJiiiEEENS_9allocatorIS2_EEE9__end_capB8ue170006Ev, symObjAddr: 0x5E2C, symBinAddr: 0x100008278, symSize: 0x28 }
  - { offsetInCU: 0x1A8B4, offset: 0x1A8B4, size: 0x8, addend: 0x0, symName: __ZNKSt3__16vectorINS_5tupleIJiiiEEENS_9allocatorIS2_EEE14__annotate_newB8ue170006Em, symObjAddr: 0x5E54, symBinAddr: 0x1000082A0, symSize: 0xC8 }
  - { offsetInCU: 0x1A8E9, offset: 0x1A8E9, size: 0x8, addend: 0x0, symName: __ZNSt3__116allocator_traitsINS_9allocatorINS_5tupleIJiiiEEEEEE8max_sizeB8ue170006IS4_vEEmRKS4_, symObjAddr: 0x5F48, symBinAddr: 0x100008394, symSize: 0x24 }
  - { offsetInCU: 0x1A917, offset: 0x1A917, size: 0x8, addend: 0x0, symName: __ZNSt3__114numeric_limitsIlE3maxB8ue170006Ev, symObjAddr: 0x5F6C, symBinAddr: 0x1000083B8, symSize: 0x14 }
  - { offsetInCU: 0x1A92B, offset: 0x1A92B, size: 0x8, addend: 0x0, symName: __ZNKSt3__16__lessIvvEclB8ue170006ImmEEbRKT_RKT0_, symObjAddr: 0x5FE0, symBinAddr: 0x10000842C, symSize: 0x34 }
  - { offsetInCU: 0x1A97F, offset: 0x1A97F, size: 0x8, addend: 0x0, symName: __ZNKSt3__19allocatorINS_5tupleIJiiiEEEE8max_sizeB8ue170006Ev, symObjAddr: 0x6014, symBinAddr: 0x100008460, symSize: 0x18 }
  - { offsetInCU: 0x1A9A5, offset: 0x1A9A5, size: 0x8, addend: 0x0, symName: __ZNSt3__123__libcpp_numeric_limitsIlLb1EE3maxB8ue170006Ev, symObjAddr: 0x602C, symBinAddr: 0x100008478, symSize: 0x8 }
  - { offsetInCU: 0x1A9B9, offset: 0x1A9B9, size: 0x8, addend: 0x0, symName: __ZNSt12length_errorC1B8ue170006EPKc, symObjAddr: 0x6098, symBinAddr: 0x1000084E4, symSize: 0x34 }
  - { offsetInCU: 0x1A9F1, offset: 0x1A9F1, size: 0x8, addend: 0x0, symName: __ZNSt12length_errorC2B8ue170006EPKc, symObjAddr: 0x60CC, symBinAddr: 0x100008518, symSize: 0x4C }
  - { offsetInCU: 0x1AA29, offset: 0x1AA29, size: 0x8, addend: 0x0, symName: __ZNSt3__19allocatorINS_5tupleIJiiiEEEE8allocateB8ue170006Em, symObjAddr: 0x6118, symBinAddr: 0x100008564, symSize: 0x5C }
  - { offsetInCU: 0x1AA5D, offset: 0x1AA5D, size: 0x8, addend: 0x0, symName: __ZNSt3__117__compressed_pairIPNS_5tupleIJiiiEEENS_9allocatorIS2_EEE6secondB8ue170006Ev, symObjAddr: 0x6278, symBinAddr: 0x1000086C4, symSize: 0x24 }
  - { offsetInCU: 0x1AA83, offset: 0x1AA83, size: 0x8, addend: 0x0, symName: __ZNSt3__122__compressed_pair_elemINS_9allocatorINS_5tupleIJiiiEEEEELi1ELb1EE5__getB8ue170006Ev, symObjAddr: 0x629C, symBinAddr: 0x1000086E8, symSize: 0x14 }
  - { offsetInCU: 0x1AAA9, offset: 0x1AAA9, size: 0x8, addend: 0x0, symName: __ZNSt3__117__compressed_pairIPNS_5tupleIJiiiEEENS_9allocatorIS2_EEE5firstB8ue170006Ev, symObjAddr: 0x62B0, symBinAddr: 0x1000086FC, symSize: 0x24 }
  - { offsetInCU: 0x1AACF, offset: 0x1AACF, size: 0x8, addend: 0x0, symName: __ZNSt3__122__compressed_pair_elemIPNS_5tupleIJiiiEEELi0ELb0EE5__getB8ue170006Ev, symObjAddr: 0x62D4, symBinAddr: 0x100008720, symSize: 0x14 }
  - { offsetInCU: 0x1AAF5, offset: 0x1AAF5, size: 0x8, addend: 0x0, symName: __ZNKSt3__16vectorINS_5tupleIJiiiEEENS_9allocatorIS2_EEE31__annotate_contiguous_containerB8ue170006EPKvS7_S7_S7_, symObjAddr: 0x62E8, symBinAddr: 0x100008734, symSize: 0x20 }
  - { offsetInCU: 0x1AB47, offset: 0x1AB47, size: 0x8, addend: 0x0, symName: __ZNKSt3__16vectorINS_5tupleIJiiiEEENS_9allocatorIS2_EEE4dataB8ue170006Ev, symObjAddr: 0x6308, symBinAddr: 0x100008754, symSize: 0x28 }
  - { offsetInCU: 0x1AB6D, offset: 0x1AB6D, size: 0x8, addend: 0x0, symName: __ZNKSt3__16vectorINS_5tupleIJiiiEEENS_9allocatorIS2_EEE8capacityB8ue170006Ev, symObjAddr: 0x6330, symBinAddr: 0x10000877C, symSize: 0x40 }
  - { offsetInCU: 0x1AB93, offset: 0x1AB93, size: 0x8, addend: 0x0, symName: __ZNKSt3__16vectorINS_5tupleIJiiiEEENS_9allocatorIS2_EEE9__end_capB8ue170006Ev, symObjAddr: 0x6384, symBinAddr: 0x1000087D0, symSize: 0x28 }
  - { offsetInCU: 0x1ABB9, offset: 0x1ABB9, size: 0x8, addend: 0x0, symName: __ZNKSt3__117__compressed_pairIPNS_5tupleIJiiiEEENS_9allocatorIS2_EEE5firstB8ue170006Ev, symObjAddr: 0x63AC, symBinAddr: 0x1000087F8, symSize: 0x24 }
  - { offsetInCU: 0x1ABDF, offset: 0x1ABDF, size: 0x8, addend: 0x0, symName: __ZNKSt3__122__compressed_pair_elemIPNS_5tupleIJiiiEEELi0ELb0EE5__getB8ue170006Ev, symObjAddr: 0x63D0, symBinAddr: 0x10000881C, symSize: 0x14 }
  - { offsetInCU: 0x1AC1E, offset: 0x1AC1E, size: 0x8, addend: 0x0, symName: __ZNSt3__16vectorINS_5tupleIJiiiEEENS_9allocatorIS2_EEE21_ConstructTransactionC1B8ue170006ERS5_m, symObjAddr: 0x63E4, symBinAddr: 0x100008830, symSize: 0x3C }
  - { offsetInCU: 0x1AC66, offset: 0x1AC66, size: 0x8, addend: 0x0, symName: __ZNSt3__16vectorINS_5tupleIJiiiEEENS_9allocatorIS2_EEE21_ConstructTransactionD1B8ue170006Ev, symObjAddr: 0x64A0, symBinAddr: 0x1000088EC, symSize: 0x2C }
  - { offsetInCU: 0x1AC90, offset: 0x1AC90, size: 0x8, addend: 0x0, symName: __ZNSt3__16vectorINS_5tupleIJiiiEEENS_9allocatorIS2_EEE21_ConstructTransactionC2B8ue170006ERS5_m, symObjAddr: 0x64CC, symBinAddr: 0x100008918, symSize: 0x4C }
  - { offsetInCU: 0x1ACF8, offset: 0x1ACF8, size: 0x8, addend: 0x0, symName: __ZNSt3__14pairIPNS_5tupleIJiiiEEES3_EC1B8ue170006IS3_S3_LPv0EEEOT_OT0_, symObjAddr: 0x6704, symBinAddr: 0x100008B50, symSize: 0x3C }
  - { offsetInCU: 0x1AD56, offset: 0x1AD56, size: 0x8, addend: 0x0, symName: __ZNSt3__14pairIPNS_5tupleIJiiiEEES3_EC2B8ue170006IS3_S3_LPv0EEEOT_OT0_, symObjAddr: 0x6740, symBinAddr: 0x100008B8C, symSize: 0x34 }
  - { offsetInCU: 0x1ADB4, offset: 0x1ADB4, size: 0x8, addend: 0x0, symName: __ZNSt3__129_AllocatorDestroyRangeReverseINS_9allocatorINS_5tupleIJiiiEEEEEPS3_EC1B8ue170006ERS4_RS5_S8_, symObjAddr: 0x67C0, symBinAddr: 0x100008C0C, symSize: 0x44 }
  - { offsetInCU: 0x1AE0B, offset: 0x1AE0B, size: 0x8, addend: 0x0, symName: __ZNSt3__116allocator_traitsINS_9allocatorINS_5tupleIJiiiEEEEEE9constructB8ue170006IS3_JRS3_EvEEvRS4_PT_DpOT0_, symObjAddr: 0x6804, symBinAddr: 0x100008C50, symSize: 0x34 }
  - { offsetInCU: 0x1AE62, offset: 0x1AE62, size: 0x8, addend: 0x0, symName: __ZNSt3__128__exception_guard_exceptionsINS_29_AllocatorDestroyRangeReverseINS_9allocatorINS_5tupleIJiiiEEEEEPS4_EEE10__completeB8ue170006Ev, symObjAddr: 0x6838, symBinAddr: 0x100008C84, symSize: 0x1C }
  - { offsetInCU: 0x1AE88, offset: 0x1AE88, size: 0x8, addend: 0x0, symName: __ZNSt3__128__exception_guard_exceptionsINS_29_AllocatorDestroyRangeReverseINS_9allocatorINS_5tupleIJiiiEEEEEPS4_EEED1B8ue170006Ev, symObjAddr: 0x6854, symBinAddr: 0x100008CA0, symSize: 0x2C }
  - { offsetInCU: 0x1AEB2, offset: 0x1AEB2, size: 0x8, addend: 0x0, symName: __ZNSt3__128__exception_guard_exceptionsINS_29_AllocatorDestroyRangeReverseINS_9allocatorINS_5tupleIJiiiEEEEEPS4_EEEC1B8ue170006ES7_, symObjAddr: 0x6880, symBinAddr: 0x100008CCC, symSize: 0x34 }
  - { offsetInCU: 0x1AEEB, offset: 0x1AEEB, size: 0x8, addend: 0x0, symName: __ZNSt3__128__exception_guard_exceptionsINS_29_AllocatorDestroyRangeReverseINS_9allocatorINS_5tupleIJiiiEEEEEPS4_EEEC2B8ue170006ES7_, symObjAddr: 0x68B4, symBinAddr: 0x100008D00, symSize: 0x30 }
  - { offsetInCU: 0x1AF24, offset: 0x1AF24, size: 0x8, addend: 0x0, symName: __ZNSt3__129_AllocatorDestroyRangeReverseINS_9allocatorINS_5tupleIJiiiEEEEEPS3_EC2B8ue170006ERS4_RS5_S8_, symObjAddr: 0x68E4, symBinAddr: 0x100008D30, symSize: 0x38 }
  - { offsetInCU: 0x1AF7B, offset: 0x1AF7B, size: 0x8, addend: 0x0, symName: __ZNSt3__19allocatorINS_5tupleIJiiiEEEE9constructB8ue170006IS2_JRS2_EEEvPT_DpOT0_, symObjAddr: 0x691C, symBinAddr: 0x100008D68, symSize: 0x30 }
  - { offsetInCU: 0x1AFD1, offset: 0x1AFD1, size: 0x8, addend: 0x0, symName: __ZNSt3__128__exception_guard_exceptionsINS_29_AllocatorDestroyRangeReverseINS_9allocatorINS_5tupleIJiiiEEEEEPS4_EEED2B8ue170006Ev, symObjAddr: 0x694C, symBinAddr: 0x100008D98, symSize: 0x50 }
  - { offsetInCU: 0x1AFFB, offset: 0x1AFFB, size: 0x8, addend: 0x0, symName: __ZNKSt3__129_AllocatorDestroyRangeReverseINS_9allocatorINS_5tupleIJiiiEEEEEPS3_EclB8ue170006Ev, symObjAddr: 0x699C, symBinAddr: 0x100008DE8, symSize: 0x68 }
  - { offsetInCU: 0x1B021, offset: 0x1B021, size: 0x8, addend: 0x0, symName: __ZNSt3__116reverse_iteratorIPNS_5tupleIJiiiEEEEC1B8ue170006ES3_, symObjAddr: 0x6A74, symBinAddr: 0x100008EC0, symSize: 0x34 }
  - { offsetInCU: 0x1B059, offset: 0x1B059, size: 0x8, addend: 0x0, symName: __ZNSt3__116allocator_traitsINS_9allocatorINS_5tupleIJiiiEEEEEE7destroyB8ue170006IS3_vEEvRS4_PT_, symObjAddr: 0x6AF0, symBinAddr: 0x100008F3C, symSize: 0x2C }
  - { offsetInCU: 0x1B096, offset: 0x1B096, size: 0x8, addend: 0x0, symName: __ZNSt3__116reverse_iteratorIPNS_5tupleIJiiiEEEEppB8ue170006Ev, symObjAddr: 0x6B40, symBinAddr: 0x100008F8C, symSize: 0x20 }
  - { offsetInCU: 0x1B0BC, offset: 0x1B0BC, size: 0x8, addend: 0x0, symName: __ZNKSt3__116reverse_iteratorIPNS_5tupleIJiiiEEEE4baseB8ue170006Ev, symObjAddr: 0x6B60, symBinAddr: 0x100008FAC, symSize: 0x18 }
  - { offsetInCU: 0x1B0E2, offset: 0x1B0E2, size: 0x8, addend: 0x0, symName: __ZNSt3__19allocatorINS_5tupleIJiiiEEEE7destroyB8ue170006EPS2_, symObjAddr: 0x6B78, symBinAddr: 0x100008FC4, symSize: 0x14 }
  - { offsetInCU: 0x1B11B, offset: 0x1B11B, size: 0x8, addend: 0x0, symName: __ZNSt3__119__to_address_helperINS_16reverse_iteratorIPNS_5tupleIJiiiEEEEEvE6__callB8ue170006ERKS5_, symObjAddr: 0x6B8C, symBinAddr: 0x100008FD8, symSize: 0x38 }
  - { offsetInCU: 0x1B13E, offset: 0x1B13E, size: 0x8, addend: 0x0, symName: __ZNKSt3__116reverse_iteratorIPNS_5tupleIJiiiEEEEptB8ue170006Ev, symObjAddr: 0x6BC4, symBinAddr: 0x100009010, symSize: 0x24 }
  - { offsetInCU: 0x1B164, offset: 0x1B164, size: 0x8, addend: 0x0, symName: __ZNKSt3__116reverse_iteratorIPNS_5tupleIJiiiEEEEdeB8ue170006Ev, symObjAddr: 0x6BE8, symBinAddr: 0x100009034, symSize: 0x28 }
  - { offsetInCU: 0x1B198, offset: 0x1B198, size: 0x8, addend: 0x0, symName: __ZNSt3__116reverse_iteratorIPNS_5tupleIJiiiEEEEC2B8ue170006ES3_, symObjAddr: 0x6C10, symBinAddr: 0x10000905C, symSize: 0x28 }
  - { offsetInCU: 0x1B1D0, offset: 0x1B1D0, size: 0x8, addend: 0x0, symName: __ZNSt3__118__unwrap_iter_implIPNS_5tupleIJiiiEEELb1EE8__unwrapB8ue170006ES3_, symObjAddr: 0x6C38, symBinAddr: 0x100009084, symSize: 0x24 }
  - { offsetInCU: 0x1B1F3, offset: 0x1B1F3, size: 0x8, addend: 0x0, symName: __ZNSt3__118__unwrap_iter_implIPNS_5tupleIJiiiEEELb1EE8__rewrapB8ue170006ES3_S3_, symObjAddr: 0x6C5C, symBinAddr: 0x1000090A8, symSize: 0x58 }
  - { offsetInCU: 0x1B224, offset: 0x1B224, size: 0x8, addend: 0x0, symName: __ZNSt3__16vectorINS_5tupleIJiiiEEENS_9allocatorIS2_EEE21_ConstructTransactionD2B8ue170006Ev, symObjAddr: 0x6CB4, symBinAddr: 0x100009100, symSize: 0x20 }
  - { offsetInCU: 0x1B24E, offset: 0x1B24E, size: 0x8, addend: 0x0, symName: __ZNSt3__128__exception_guard_exceptionsINS_6vectorINS_5tupleIJiiiEEENS_9allocatorIS3_EEE16__destroy_vectorEED2B8ue170006Ev, symObjAddr: 0x6CD4, symBinAddr: 0x100009120, symSize: 0x50 }
  - { offsetInCU: 0x1B278, offset: 0x1B278, size: 0x8, addend: 0x0, symName: __ZNSt3__16vectorINS_5tupleIJiiiEEENS_9allocatorIS2_EEE16__destroy_vectorclB8ue170006Ev, symObjAddr: 0x6D24, symBinAddr: 0x100009170, symSize: 0x90 }
  - { offsetInCU: 0x1B29E, offset: 0x1B29E, size: 0x8, addend: 0x0, symName: __ZNSt3__16vectorINS_5tupleIJiiiEEENS_9allocatorIS2_EEE7__clearB8ue170006Ev, symObjAddr: 0x6DB4, symBinAddr: 0x100009200, symSize: 0x28 }
  - { offsetInCU: 0x1B2C4, offset: 0x1B2C4, size: 0x8, addend: 0x0, symName: __ZNKSt3__16vectorINS_5tupleIJiiiEEENS_9allocatorIS2_EEE17__annotate_deleteB8ue170006Ev, symObjAddr: 0x6DDC, symBinAddr: 0x100009228, symSize: 0xD4 }
  - { offsetInCU: 0x1B2EA, offset: 0x1B2EA, size: 0x8, addend: 0x0, symName: __ZNSt3__116allocator_traitsINS_9allocatorINS_5tupleIJiiiEEEEEE10deallocateB8ue170006ERS4_PS3_m, symObjAddr: 0x6EB0, symBinAddr: 0x1000092FC, symSize: 0x34 }
  - { offsetInCU: 0x1B32C, offset: 0x1B32C, size: 0x8, addend: 0x0, symName: __ZNSt3__16vectorINS_5tupleIJiiiEEENS_9allocatorIS2_EEE22__base_destruct_at_endB8ue170006EPS2_, symObjAddr: 0x6EE4, symBinAddr: 0x100009330, symSize: 0x8C }
  - { offsetInCU: 0x1B370, offset: 0x1B370, size: 0x8, addend: 0x0, symName: __ZNSt3__19allocatorINS_5tupleIJiiiEEEE10deallocateB8ue170006EPS2_m, symObjAddr: 0x6F70, symBinAddr: 0x1000093BC, symSize: 0x44 }
  - { offsetInCU: 0x1B3B2, offset: 0x1B3B2, size: 0x8, addend: 0x0, symName: __ZN5StateD2Ev, symObjAddr: 0x70BC, symBinAddr: 0x100009508, symSize: 0x2C }
  - { offsetInCU: 0x1B3DE, offset: 0x1B3DE, size: 0x8, addend: 0x0, symName: __ZNSt3__18__iom_t6C1B8ue170006Ei, symObjAddr: 0x70E8, symBinAddr: 0x100009534, symSize: 0x34 }
  - { offsetInCU: 0x1B416, offset: 0x1B416, size: 0x8, addend: 0x0, symName: __ZNSt3__18__iom_t6C2B8ue170006Ei, symObjAddr: 0x711C, symBinAddr: 0x100009568, symSize: 0x20 }
  - { offsetInCU: 0x1B44E, offset: 0x1B44E, size: 0x8, addend: 0x0, symName: __ZN5StateC2ENSt3__16vectorINS0_5tupleIJiiiEEENS0_9allocatorIS3_EEEEii, symObjAddr: 0x713C, symBinAddr: 0x100009588, symSize: 0x4C }
  - { offsetInCU: 0x1B4A3, offset: 0x1B4A3, size: 0x8, addend: 0x0, symName: __ZNKSt3__111__wrap_iterIP5StateE4baseB8ue170006Ev, symObjAddr: 0x71D0, symBinAddr: 0x10000961C, symSize: 0x18 }
  - { offsetInCU: 0x1B4C9, offset: 0x1B4C9, size: 0x8, addend: 0x0, symName: __ZNSt3__114priority_queueI5StateNS_6vectorIS1_NS_9allocatorIS1_EEEENS_7greaterIS1_EEED2Ev, symObjAddr: 0x71E8, symBinAddr: 0x100009634, symSize: 0x2C }
  - { offsetInCU: 0x1B4F6, offset: 0x1B4F6, size: 0x8, addend: 0x0, symName: __ZNSt3__15tupleIJNS_6vectorINS1_IiNS_9allocatorIiEEEENS2_IS4_EEEEiiEEC2B8ue170006INS_4_AndELi0EEERKS6_RKiSD_, symObjAddr: 0x7214, symBinAddr: 0x100009660, symSize: 0x44 }
  - { offsetInCU: 0x1B55C, offset: 0x1B55C, size: 0x8, addend: 0x0, symName: __ZNSt3__112__tuple_implINS_15__tuple_indicesIJLm0ELm1ELm2EEEEJNS_6vectorINS3_IiNS_9allocatorIiEEEENS4_IS6_EEEEiiEEC1B8ue170006IJLm0ELm1ELm2EEJS8_iiEJEJEJRKS8_RKiSE_EEENS1_IJXspT_EEEENS_13__tuple_typesIJDpT0_EEENS1_IJXspT1_EEEENSG_IJDpT2_EEEDpOT3_, symObjAddr: 0x7258, symBinAddr: 0x1000096A4, symSize: 0x44 }
  - { offsetInCU: 0x1B62B, offset: 0x1B62B, size: 0x8, addend: 0x0, symName: __ZNSt3__112__tuple_implINS_15__tuple_indicesIJLm0ELm1ELm2EEEEJNS_6vectorINS3_IiNS_9allocatorIiEEEENS4_IS6_EEEEiiEEC2B8ue170006IJLm0ELm1ELm2EEJS8_iiEJEJEJRKS8_RKiSE_EEENS1_IJXspT_EEEENS_13__tuple_typesIJDpT0_EEENS1_IJXspT1_EEEENSG_IJDpT2_EEEDpOT3_, symObjAddr: 0x729C, symBinAddr: 0x1000096E8, symSize: 0x5C }
  - { offsetInCU: 0x1B6FA, offset: 0x1B6FA, size: 0x8, addend: 0x0, symName: __ZNSt3__112__tuple_leafILm0ENS_6vectorINS1_IiNS_9allocatorIiEEEENS2_IS4_EEEELb0EEC2B8ue170006IRKS6_vEEOT_, symObjAddr: 0x72F8, symBinAddr: 0x100009744, symSize: 0x34 }
  - { offsetInCU: 0x1B73D, offset: 0x1B73D, size: 0x8, addend: 0x0, symName: __ZNSt3__112__tuple_leafILm1EiLb0EEC2B8ue170006IRKivEEOT_, symObjAddr: 0x732C, symBinAddr: 0x100009778, symSize: 0x24 }
  - { offsetInCU: 0x1B780, offset: 0x1B780, size: 0x8, addend: 0x0, symName: __ZNSt3__112__tuple_leafILm2EiLb0EEC2B8ue170006IRKivEEOT_, symObjAddr: 0x7350, symBinAddr: 0x10000979C, symSize: 0x24 }
  - { offsetInCU: 0x1B7C3, offset: 0x1B7C3, size: 0x8, addend: 0x0, symName: __ZNSt3__16vectorINS0_IiNS_9allocatorIiEEEENS1_IS3_EEEC1ERKS5_, symObjAddr: 0x7374, symBinAddr: 0x1000097C0, symSize: 0x34 }
  - { offsetInCU: 0x1B7FE, offset: 0x1B7FE, size: 0x8, addend: 0x0, symName: __ZNSt3__16vectorINS0_IiNS_9allocatorIiEEEENS1_IS3_EEEC2ERKS5_, symObjAddr: 0x73A8, symBinAddr: 0x1000097F4, symSize: 0x94 }
  - { offsetInCU: 0x1B843, offset: 0x1B843, size: 0x8, addend: 0x0, symName: __ZNSt3__116allocator_traitsINS_9allocatorINS_6vectorIiNS1_IiEEEEEEE37select_on_container_copy_constructionB8ue170006IS5_vvEES5_RKS5_, symObjAddr: 0x743C, symBinAddr: 0x100009888, symSize: 0x10 }
  - { offsetInCU: 0x1B872, offset: 0x1B872, size: 0x8, addend: 0x0, symName: __ZNKSt3__16vectorINS0_IiNS_9allocatorIiEEEENS1_IS3_EEE7__allocB8ue170006Ev, symObjAddr: 0x744C, symBinAddr: 0x100009898, symSize: 0x28 }
  - { offsetInCU: 0x1B89E, offset: 0x1B89E, size: 0x8, addend: 0x0, symName: __ZNSt3__117__compressed_pairIPNS_6vectorIiNS_9allocatorIiEEEENS2_IS4_EEEC1B8ue170006IDnS6_EEOT_OT0_, symObjAddr: 0x7474, symBinAddr: 0x1000098C0, symSize: 0x3C }
  - { offsetInCU: 0x1B8F6, offset: 0x1B8F6, size: 0x8, addend: 0x0, symName: __ZNSt3__16vectorINS0_IiNS_9allocatorIiEEEENS1_IS3_EEE16__init_with_sizeB8ue170006IPS3_S7_EEvT_T0_m, symObjAddr: 0x74B0, symBinAddr: 0x1000098FC, symSize: 0xB8 }
  - { offsetInCU: 0x1B96A, offset: 0x1B96A, size: 0x8, addend: 0x0, symName: __ZNKSt3__117__compressed_pairIPNS_6vectorIiNS_9allocatorIiEEEENS2_IS4_EEE6secondB8ue170006Ev, symObjAddr: 0x7568, symBinAddr: 0x1000099B4, symSize: 0x24 }
  - { offsetInCU: 0x1B990, offset: 0x1B990, size: 0x8, addend: 0x0, symName: __ZNKSt3__122__compressed_pair_elemINS_9allocatorINS_6vectorIiNS1_IiEEEEEELi1ELb1EE5__getB8ue170006Ev, symObjAddr: 0x758C, symBinAddr: 0x1000099D8, symSize: 0x14 }
  - { offsetInCU: 0x1B9B6, offset: 0x1B9B6, size: 0x8, addend: 0x0, symName: __ZNSt3__117__compressed_pairIPNS_6vectorIiNS_9allocatorIiEEEENS2_IS4_EEEC2B8ue170006IDnS6_EEOT_OT0_, symObjAddr: 0x75A0, symBinAddr: 0x1000099EC, symSize: 0x44 }
  - { offsetInCU: 0x1BA0E, offset: 0x1BA0E, size: 0x8, addend: 0x0, symName: __ZNSt3__122__compressed_pair_elemIPNS_6vectorIiNS_9allocatorIiEEEELi0ELb0EEC2B8ue170006IDnvEEOT_, symObjAddr: 0x75E4, symBinAddr: 0x100009A30, symSize: 0x1C }
  - { offsetInCU: 0x1BA50, offset: 0x1BA50, size: 0x8, addend: 0x0, symName: __ZNSt3__122__compressed_pair_elemINS_9allocatorINS_6vectorIiNS1_IiEEEEEELi1ELb1EEC2B8ue170006IS5_vEEOT_, symObjAddr: 0x7600, symBinAddr: 0x100009A4C, symSize: 0x18 }
  - { offsetInCU: 0x1BA92, offset: 0x1BA92, size: 0x8, addend: 0x0, symName: __ZNSt3__16vectorINS0_IiNS_9allocatorIiEEEENS1_IS3_EEE16__destroy_vectorC1B8ue170006ERS5_, symObjAddr: 0x7658, symBinAddr: 0x100009AA4, symSize: 0x34 }
  - { offsetInCU: 0x1BACB, offset: 0x1BACB, size: 0x8, addend: 0x0, symName: __ZNSt3__16vectorINS0_IiNS_9allocatorIiEEEENS1_IS3_EEE11__vallocateB8ue170006Em, symObjAddr: 0x768C, symBinAddr: 0x100009AD8, symSize: 0xB4 }
  - { offsetInCU: 0x1BB0F, offset: 0x1BB0F, size: 0x8, addend: 0x0, symName: __ZNSt3__16vectorINS0_IiNS_9allocatorIiEEEENS1_IS3_EEE18__construct_at_endIPS3_S7_EEvT_T0_m, symObjAddr: 0x7740, symBinAddr: 0x100009B8C, symSize: 0x8C }
  - { offsetInCU: 0x1BB85, offset: 0x1BB85, size: 0x8, addend: 0x0, symName: __ZNSt3__128__exception_guard_exceptionsINS_6vectorINS1_IiNS_9allocatorIiEEEENS2_IS4_EEE16__destroy_vectorEE10__completeB8ue170006Ev, symObjAddr: 0x77CC, symBinAddr: 0x100009C18, symSize: 0x1C }
  - { offsetInCU: 0x1BBAB, offset: 0x1BBAB, size: 0x8, addend: 0x0, symName: __ZNSt3__128__exception_guard_exceptionsINS_6vectorINS1_IiNS_9allocatorIiEEEENS2_IS4_EEE16__destroy_vectorEED1B8ue170006Ev, symObjAddr: 0x77E8, symBinAddr: 0x100009C34, symSize: 0x2C }
  - { offsetInCU: 0x1BBD5, offset: 0x1BBD5, size: 0x8, addend: 0x0, symName: __ZNSt3__128__exception_guard_exceptionsINS_6vectorINS1_IiNS_9allocatorIiEEEENS2_IS4_EEE16__destroy_vectorEEC1B8ue170006ES7_, symObjAddr: 0x7814, symBinAddr: 0x100009C60, symSize: 0x34 }
  - { offsetInCU: 0x1BC0D, offset: 0x1BC0D, size: 0x8, addend: 0x0, symName: __ZNSt3__128__exception_guard_exceptionsINS_6vectorINS1_IiNS_9allocatorIiEEEENS2_IS4_EEE16__destroy_vectorEEC2B8ue170006ES7_, symObjAddr: 0x7848, symBinAddr: 0x100009C94, symSize: 0x24 }
  - { offsetInCU: 0x1BC45, offset: 0x1BC45, size: 0x8, addend: 0x0, symName: __ZNSt3__16vectorINS0_IiNS_9allocatorIiEEEENS1_IS3_EEE16__destroy_vectorC2B8ue170006ERS5_, symObjAddr: 0x786C, symBinAddr: 0x100009CB8, symSize: 0x20 }
  - { offsetInCU: 0x1BC7E, offset: 0x1BC7E, size: 0x8, addend: 0x0, symName: __ZNKSt3__16vectorINS0_IiNS_9allocatorIiEEEENS1_IS3_EEE8max_sizeEv, symObjAddr: 0x788C, symBinAddr: 0x100009CD8, symSize: 0x60 }
  - { offsetInCU: 0x1BCA6, offset: 0x1BCA6, size: 0x8, addend: 0x0, symName: __ZNKSt3__16vectorINS0_IiNS_9allocatorIiEEEENS1_IS3_EEE20__throw_length_errorB8ue170006Ev, symObjAddr: 0x78EC, symBinAddr: 0x100009D38, symSize: 0x1C }
  - { offsetInCU: 0x1BCCC, offset: 0x1BCCC, size: 0x8, addend: 0x0, symName: __ZNSt3__16vectorINS0_IiNS_9allocatorIiEEEENS1_IS3_EEE7__allocB8ue170006Ev, symObjAddr: 0x7948, symBinAddr: 0x100009D94, symSize: 0x28 }
  - { offsetInCU: 0x1BCF2, offset: 0x1BCF2, size: 0x8, addend: 0x0, symName: __ZNSt3__16vectorINS0_IiNS_9allocatorIiEEEENS1_IS3_EEE9__end_capB8ue170006Ev, symObjAddr: 0x7970, symBinAddr: 0x100009DBC, symSize: 0x28 }
  - { offsetInCU: 0x1BD18, offset: 0x1BD18, size: 0x8, addend: 0x0, symName: __ZNKSt3__16vectorINS0_IiNS_9allocatorIiEEEENS1_IS3_EEE14__annotate_newB8ue170006Em, symObjAddr: 0x7998, symBinAddr: 0x100009DE4, symSize: 0xC8 }
  - { offsetInCU: 0x1BD4D, offset: 0x1BD4D, size: 0x8, addend: 0x0, symName: __ZNSt3__116allocator_traitsINS_9allocatorINS_6vectorIiNS1_IiEEEEEEE8max_sizeB8ue170006IS5_vEEmRKS5_, symObjAddr: 0x7A60, symBinAddr: 0x100009EAC, symSize: 0x24 }
  - { offsetInCU: 0x1BD7B, offset: 0x1BD7B, size: 0x8, addend: 0x0, symName: __ZNKSt3__19allocatorINS_6vectorIiNS0_IiEEEEE8max_sizeB8ue170006Ev, symObjAddr: 0x7A84, symBinAddr: 0x100009ED0, symSize: 0x18 }
  - { offsetInCU: 0x1BDA1, offset: 0x1BDA1, size: 0x8, addend: 0x0, symName: __ZNSt3__19allocatorINS_6vectorIiNS0_IiEEEEE8allocateB8ue170006Em, symObjAddr: 0x7A9C, symBinAddr: 0x100009EE8, symSize: 0x5C }
  - { offsetInCU: 0x1BDD5, offset: 0x1BDD5, size: 0x8, addend: 0x0, symName: __ZNSt3__117__compressed_pairIPNS_6vectorIiNS_9allocatorIiEEEENS2_IS4_EEE6secondB8ue170006Ev, symObjAddr: 0x7AF8, symBinAddr: 0x100009F44, symSize: 0x24 }
  - { offsetInCU: 0x1BDFB, offset: 0x1BDFB, size: 0x8, addend: 0x0, symName: __ZNSt3__122__compressed_pair_elemINS_9allocatorINS_6vectorIiNS1_IiEEEEEELi1ELb1EE5__getB8ue170006Ev, symObjAddr: 0x7B1C, symBinAddr: 0x100009F68, symSize: 0x14 }
  - { offsetInCU: 0x1BE21, offset: 0x1BE21, size: 0x8, addend: 0x0, symName: __ZNSt3__117__compressed_pairIPNS_6vectorIiNS_9allocatorIiEEEENS2_IS4_EEE5firstB8ue170006Ev, symObjAddr: 0x7B30, symBinAddr: 0x100009F7C, symSize: 0x24 }
  - { offsetInCU: 0x1BE47, offset: 0x1BE47, size: 0x8, addend: 0x0, symName: __ZNSt3__122__compressed_pair_elemIPNS_6vectorIiNS_9allocatorIiEEEELi0ELb0EE5__getB8ue170006Ev, symObjAddr: 0x7B54, symBinAddr: 0x100009FA0, symSize: 0x14 }
  - { offsetInCU: 0x1BE6D, offset: 0x1BE6D, size: 0x8, addend: 0x0, symName: __ZNKSt3__16vectorINS0_IiNS_9allocatorIiEEEENS1_IS3_EEE31__annotate_contiguous_containerB8ue170006EPKvS7_S7_S7_, symObjAddr: 0x7B68, symBinAddr: 0x100009FB4, symSize: 0x20 }
  - { offsetInCU: 0x1BEBF, offset: 0x1BEBF, size: 0x8, addend: 0x0, symName: __ZNKSt3__16vectorINS0_IiNS_9allocatorIiEEEENS1_IS3_EEE4dataB8ue170006Ev, symObjAddr: 0x7B88, symBinAddr: 0x100009FD4, symSize: 0x28 }
  - { offsetInCU: 0x1BEE5, offset: 0x1BEE5, size: 0x8, addend: 0x0, symName: __ZNKSt3__16vectorINS0_IiNS_9allocatorIiEEEENS1_IS3_EEE8capacityB8ue170006Ev, symObjAddr: 0x7BB0, symBinAddr: 0x100009FFC, symSize: 0x40 }
  - { offsetInCU: 0x1BF0B, offset: 0x1BF0B, size: 0x8, addend: 0x0, symName: __ZNKSt3__16vectorINS0_IiNS_9allocatorIiEEEENS1_IS3_EEE9__end_capB8ue170006Ev, symObjAddr: 0x7C04, symBinAddr: 0x10000A050, symSize: 0x28 }
  - { offsetInCU: 0x1BF31, offset: 0x1BF31, size: 0x8, addend: 0x0, symName: __ZNKSt3__117__compressed_pairIPNS_6vectorIiNS_9allocatorIiEEEENS2_IS4_EEE5firstB8ue170006Ev, symObjAddr: 0x7C2C, symBinAddr: 0x10000A078, symSize: 0x24 }
  - { offsetInCU: 0x1BF57, offset: 0x1BF57, size: 0x8, addend: 0x0, symName: __ZNKSt3__122__compressed_pair_elemIPNS_6vectorIiNS_9allocatorIiEEEELi0ELb0EE5__getB8ue170006Ev, symObjAddr: 0x7C50, symBinAddr: 0x10000A09C, symSize: 0x14 }
  - { offsetInCU: 0x1BF96, offset: 0x1BF96, size: 0x8, addend: 0x0, symName: __ZNSt3__16vectorINS0_IiNS_9allocatorIiEEEENS1_IS3_EEE21_ConstructTransactionC1B8ue170006ERS5_m, symObjAddr: 0x7C64, symBinAddr: 0x10000A0B0, symSize: 0x3C }
  - { offsetInCU: 0x1BFDE, offset: 0x1BFDE, size: 0x8, addend: 0x0, symName: __ZNSt3__16vectorINS0_IiNS_9allocatorIiEEEENS1_IS3_EEE21_ConstructTransactionD1B8ue170006Ev, symObjAddr: 0x7D20, symBinAddr: 0x10000A16C, symSize: 0x2C }
  - { offsetInCU: 0x1C008, offset: 0x1C008, size: 0x8, addend: 0x0, symName: __ZNSt3__16vectorINS0_IiNS_9allocatorIiEEEENS1_IS3_EEE21_ConstructTransactionC2B8ue170006ERS5_m, symObjAddr: 0x7D4C, symBinAddr: 0x10000A198, symSize: 0x4C }
  - { offsetInCU: 0x1C070, offset: 0x1C070, size: 0x8, addend: 0x0, symName: __ZNSt3__14pairIPNS_6vectorIiNS_9allocatorIiEEEES5_EC1B8ue170006IS5_S5_LPv0EEEOT_OT0_, symObjAddr: 0x7F84, symBinAddr: 0x10000A3D0, symSize: 0x3C }
  - { offsetInCU: 0x1C0CE, offset: 0x1C0CE, size: 0x8, addend: 0x0, symName: __ZNSt3__14pairIPNS_6vectorIiNS_9allocatorIiEEEES5_EC2B8ue170006IS5_S5_LPv0EEEOT_OT0_, symObjAddr: 0x7FC0, symBinAddr: 0x10000A40C, symSize: 0x34 }
  - { offsetInCU: 0x1C12C, offset: 0x1C12C, size: 0x8, addend: 0x0, symName: __ZNSt3__129_AllocatorDestroyRangeReverseINS_9allocatorINS_6vectorIiNS1_IiEEEEEEPS4_EC1B8ue170006ERS5_RS6_S9_, symObjAddr: 0x8040, symBinAddr: 0x10000A48C, symSize: 0x44 }
  - { offsetInCU: 0x1C183, offset: 0x1C183, size: 0x8, addend: 0x0, symName: __ZNSt3__116allocator_traitsINS_9allocatorINS_6vectorIiNS1_IiEEEEEEE9constructB8ue170006IS4_JRS4_EvEEvRS5_PT_DpOT0_, symObjAddr: 0x8084, symBinAddr: 0x10000A4D0, symSize: 0x34 }
  - { offsetInCU: 0x1C1DA, offset: 0x1C1DA, size: 0x8, addend: 0x0, symName: __ZNSt3__128__exception_guard_exceptionsINS_29_AllocatorDestroyRangeReverseINS_9allocatorINS_6vectorIiNS2_IiEEEEEEPS5_EEE10__completeB8ue170006Ev, symObjAddr: 0x80B8, symBinAddr: 0x10000A504, symSize: 0x1C }
  - { offsetInCU: 0x1C200, offset: 0x1C200, size: 0x8, addend: 0x0, symName: __ZNSt3__128__exception_guard_exceptionsINS_29_AllocatorDestroyRangeReverseINS_9allocatorINS_6vectorIiNS2_IiEEEEEEPS5_EEED1B8ue170006Ev, symObjAddr: 0x80D4, symBinAddr: 0x10000A520, symSize: 0x2C }
  - { offsetInCU: 0x1C22A, offset: 0x1C22A, size: 0x8, addend: 0x0, symName: __ZNSt3__128__exception_guard_exceptionsINS_29_AllocatorDestroyRangeReverseINS_9allocatorINS_6vectorIiNS2_IiEEEEEEPS5_EEEC1B8ue170006ES8_, symObjAddr: 0x8100, symBinAddr: 0x10000A54C, symSize: 0x34 }
  - { offsetInCU: 0x1C263, offset: 0x1C263, size: 0x8, addend: 0x0, symName: __ZNSt3__128__exception_guard_exceptionsINS_29_AllocatorDestroyRangeReverseINS_9allocatorINS_6vectorIiNS2_IiEEEEEEPS5_EEEC2B8ue170006ES8_, symObjAddr: 0x8134, symBinAddr: 0x10000A580, symSize: 0x30 }
  - { offsetInCU: 0x1C29C, offset: 0x1C29C, size: 0x8, addend: 0x0, symName: __ZNSt3__129_AllocatorDestroyRangeReverseINS_9allocatorINS_6vectorIiNS1_IiEEEEEEPS4_EC2B8ue170006ERS5_RS6_S9_, symObjAddr: 0x8164, symBinAddr: 0x10000A5B0, symSize: 0x38 }
  - { offsetInCU: 0x1C2F3, offset: 0x1C2F3, size: 0x8, addend: 0x0, symName: __ZNSt3__19allocatorINS_6vectorIiNS0_IiEEEEE9constructB8ue170006IS3_JRS3_EEEvPT_DpOT0_, symObjAddr: 0x819C, symBinAddr: 0x10000A5E8, symSize: 0x30 }
  - { offsetInCU: 0x1C349, offset: 0x1C349, size: 0x8, addend: 0x0, symName: __ZNSt3__16vectorIiNS_9allocatorIiEEEC1ERKS3_, symObjAddr: 0x81CC, symBinAddr: 0x10000A618, symSize: 0x34 }
  - { offsetInCU: 0x1C384, offset: 0x1C384, size: 0x8, addend: 0x0, symName: __ZNSt3__16vectorIiNS_9allocatorIiEEEC2ERKS3_, symObjAddr: 0x8200, symBinAddr: 0x10000A64C, symSize: 0x94 }
  - { offsetInCU: 0x1C3C9, offset: 0x1C3C9, size: 0x8, addend: 0x0, symName: __ZNSt3__116allocator_traitsINS_9allocatorIiEEE37select_on_container_copy_constructionB8ue170006IS2_vvEES2_RKS2_, symObjAddr: 0x8294, symBinAddr: 0x10000A6E0, symSize: 0x10 }
  - { offsetInCU: 0x1C3F8, offset: 0x1C3F8, size: 0x8, addend: 0x0, symName: __ZNKSt3__16vectorIiNS_9allocatorIiEEE7__allocB8ue170006Ev, symObjAddr: 0x82A4, symBinAddr: 0x10000A6F0, symSize: 0x28 }
  - { offsetInCU: 0x1C424, offset: 0x1C424, size: 0x8, addend: 0x0, symName: __ZNSt3__117__compressed_pairIPiNS_9allocatorIiEEEC1B8ue170006IDnS3_EEOT_OT0_, symObjAddr: 0x82CC, symBinAddr: 0x10000A718, symSize: 0x3C }
  - { offsetInCU: 0x1C47C, offset: 0x1C47C, size: 0x8, addend: 0x0, symName: __ZNSt3__16vectorIiNS_9allocatorIiEEE16__init_with_sizeB8ue170006IPiS5_EEvT_T0_m, symObjAddr: 0x8308, symBinAddr: 0x10000A754, symSize: 0xB8 }
  - { offsetInCU: 0x1C4F0, offset: 0x1C4F0, size: 0x8, addend: 0x0, symName: __ZNKSt3__117__compressed_pairIPiNS_9allocatorIiEEE6secondB8ue170006Ev, symObjAddr: 0x83C0, symBinAddr: 0x10000A80C, symSize: 0x24 }
  - { offsetInCU: 0x1C516, offset: 0x1C516, size: 0x8, addend: 0x0, symName: __ZNKSt3__122__compressed_pair_elemINS_9allocatorIiEELi1ELb1EE5__getB8ue170006Ev, symObjAddr: 0x83E4, symBinAddr: 0x10000A830, symSize: 0x14 }
  - { offsetInCU: 0x1C53C, offset: 0x1C53C, size: 0x8, addend: 0x0, symName: __ZNSt3__117__compressed_pairIPiNS_9allocatorIiEEEC2B8ue170006IDnS3_EEOT_OT0_, symObjAddr: 0x83F8, symBinAddr: 0x10000A844, symSize: 0x44 }
  - { offsetInCU: 0x1C594, offset: 0x1C594, size: 0x8, addend: 0x0, symName: __ZNSt3__122__compressed_pair_elemIPiLi0ELb0EEC2B8ue170006IDnvEEOT_, symObjAddr: 0x843C, symBinAddr: 0x10000A888, symSize: 0x1C }
  - { offsetInCU: 0x1C5D6, offset: 0x1C5D6, size: 0x8, addend: 0x0, symName: __ZNSt3__122__compressed_pair_elemINS_9allocatorIiEELi1ELb1EEC2B8ue170006IS2_vEEOT_, symObjAddr: 0x8458, symBinAddr: 0x10000A8A4, symSize: 0x18 }
  - { offsetInCU: 0x1C618, offset: 0x1C618, size: 0x8, addend: 0x0, symName: __ZNSt3__16vectorIiNS_9allocatorIiEEE16__destroy_vectorC1B8ue170006ERS3_, symObjAddr: 0x84B0, symBinAddr: 0x10000A8FC, symSize: 0x34 }
  - { offsetInCU: 0x1C651, offset: 0x1C651, size: 0x8, addend: 0x0, symName: __ZNSt3__16vectorIiNS_9allocatorIiEEE11__vallocateB8ue170006Em, symObjAddr: 0x84E4, symBinAddr: 0x10000A930, symSize: 0xAC }
  - { offsetInCU: 0x1C695, offset: 0x1C695, size: 0x8, addend: 0x0, symName: __ZNSt3__16vectorIiNS_9allocatorIiEEE18__construct_at_endIPiS5_EEvT_T0_m, symObjAddr: 0x8590, symBinAddr: 0x10000A9DC, symSize: 0x8C }
  - { offsetInCU: 0x1C70B, offset: 0x1C70B, size: 0x8, addend: 0x0, symName: __ZNSt3__128__exception_guard_exceptionsINS_6vectorIiNS_9allocatorIiEEE16__destroy_vectorEE10__completeB8ue170006Ev, symObjAddr: 0x861C, symBinAddr: 0x10000AA68, symSize: 0x1C }
  - { offsetInCU: 0x1C731, offset: 0x1C731, size: 0x8, addend: 0x0, symName: __ZNSt3__128__exception_guard_exceptionsINS_6vectorIiNS_9allocatorIiEEE16__destroy_vectorEED1B8ue170006Ev, symObjAddr: 0x8638, symBinAddr: 0x10000AA84, symSize: 0x2C }
  - { offsetInCU: 0x1C75B, offset: 0x1C75B, size: 0x8, addend: 0x0, symName: __ZNSt3__128__exception_guard_exceptionsINS_6vectorIiNS_9allocatorIiEEE16__destroy_vectorEEC1B8ue170006ES5_, symObjAddr: 0x8664, symBinAddr: 0x10000AAB0, symSize: 0x34 }
  - { offsetInCU: 0x1C793, offset: 0x1C793, size: 0x8, addend: 0x0, symName: __ZNSt3__128__exception_guard_exceptionsINS_6vectorIiNS_9allocatorIiEEE16__destroy_vectorEEC2B8ue170006ES5_, symObjAddr: 0x8698, symBinAddr: 0x10000AAE4, symSize: 0x24 }
  - { offsetInCU: 0x1C7CB, offset: 0x1C7CB, size: 0x8, addend: 0x0, symName: __ZNSt3__16vectorIiNS_9allocatorIiEEE16__destroy_vectorC2B8ue170006ERS3_, symObjAddr: 0x86BC, symBinAddr: 0x10000AB08, symSize: 0x20 }
  - { offsetInCU: 0x1C804, offset: 0x1C804, size: 0x8, addend: 0x0, symName: __ZNKSt3__16vectorIiNS_9allocatorIiEEE8max_sizeEv, symObjAddr: 0x86DC, symBinAddr: 0x10000AB28, symSize: 0x60 }
  - { offsetInCU: 0x1C82C, offset: 0x1C82C, size: 0x8, addend: 0x0, symName: __ZNKSt3__16vectorIiNS_9allocatorIiEEE20__throw_length_errorB8ue170006Ev, symObjAddr: 0x873C, symBinAddr: 0x10000AB88, symSize: 0x1C }
  - { offsetInCU: 0x1C852, offset: 0x1C852, size: 0x8, addend: 0x0, symName: __ZNSt3__16vectorIiNS_9allocatorIiEEE7__allocB8ue170006Ev, symObjAddr: 0x8798, symBinAddr: 0x10000ABE4, symSize: 0x28 }
  - { offsetInCU: 0x1C878, offset: 0x1C878, size: 0x8, addend: 0x0, symName: __ZNSt3__16vectorIiNS_9allocatorIiEEE9__end_capB8ue170006Ev, symObjAddr: 0x87C0, symBinAddr: 0x10000AC0C, symSize: 0x28 }
  - { offsetInCU: 0x1C89E, offset: 0x1C89E, size: 0x8, addend: 0x0, symName: __ZNKSt3__16vectorIiNS_9allocatorIiEEE14__annotate_newB8ue170006Em, symObjAddr: 0x87E8, symBinAddr: 0x10000AC34, symSize: 0xAC }
  - { offsetInCU: 0x1C8D3, offset: 0x1C8D3, size: 0x8, addend: 0x0, symName: __ZNSt3__116allocator_traitsINS_9allocatorIiEEE8max_sizeB8ue170006IS2_vEEmRKS2_, symObjAddr: 0x8894, symBinAddr: 0x10000ACE0, symSize: 0x24 }
  - { offsetInCU: 0x1C901, offset: 0x1C901, size: 0x8, addend: 0x0, symName: __ZNKSt3__19allocatorIiE8max_sizeB8ue170006Ev, symObjAddr: 0x88B8, symBinAddr: 0x10000AD04, symSize: 0x14 }
  - { offsetInCU: 0x1C927, offset: 0x1C927, size: 0x8, addend: 0x0, symName: __ZNSt3__19allocatorIiE8allocateB8ue170006Em, symObjAddr: 0x88CC, symBinAddr: 0x10000AD18, symSize: 0x58 }
  - { offsetInCU: 0x1C95B, offset: 0x1C95B, size: 0x8, addend: 0x0, symName: __ZNSt3__117__compressed_pairIPiNS_9allocatorIiEEE6secondB8ue170006Ev, symObjAddr: 0x8924, symBinAddr: 0x10000AD70, symSize: 0x24 }
  - { offsetInCU: 0x1C981, offset: 0x1C981, size: 0x8, addend: 0x0, symName: __ZNSt3__122__compressed_pair_elemINS_9allocatorIiEELi1ELb1EE5__getB8ue170006Ev, symObjAddr: 0x8948, symBinAddr: 0x10000AD94, symSize: 0x14 }
  - { offsetInCU: 0x1C9A7, offset: 0x1C9A7, size: 0x8, addend: 0x0, symName: __ZNSt3__117__compressed_pairIPiNS_9allocatorIiEEE5firstB8ue170006Ev, symObjAddr: 0x895C, symBinAddr: 0x10000ADA8, symSize: 0x24 }
  - { offsetInCU: 0x1C9CD, offset: 0x1C9CD, size: 0x8, addend: 0x0, symName: __ZNSt3__122__compressed_pair_elemIPiLi0ELb0EE5__getB8ue170006Ev, symObjAddr: 0x8980, symBinAddr: 0x10000ADCC, symSize: 0x14 }
  - { offsetInCU: 0x1C9F3, offset: 0x1C9F3, size: 0x8, addend: 0x0, symName: __ZNKSt3__16vectorIiNS_9allocatorIiEEE31__annotate_contiguous_containerB8ue170006EPKvS5_S5_S5_, symObjAddr: 0x8994, symBinAddr: 0x10000ADE0, symSize: 0x20 }
  - { offsetInCU: 0x1CA45, offset: 0x1CA45, size: 0x8, addend: 0x0, symName: __ZNKSt3__16vectorIiNS_9allocatorIiEEE4dataB8ue170006Ev, symObjAddr: 0x89B4, symBinAddr: 0x10000AE00, symSize: 0x28 }
  - { offsetInCU: 0x1CA6B, offset: 0x1CA6B, size: 0x8, addend: 0x0, symName: __ZNKSt3__16vectorIiNS_9allocatorIiEEE8capacityB8ue170006Ev, symObjAddr: 0x89DC, symBinAddr: 0x10000AE28, symSize: 0x40 }
  - { offsetInCU: 0x1CA91, offset: 0x1CA91, size: 0x8, addend: 0x0, symName: __ZNKSt3__16vectorIiNS_9allocatorIiEEE9__end_capB8ue170006Ev, symObjAddr: 0x8A30, symBinAddr: 0x10000AE7C, symSize: 0x28 }
  - { offsetInCU: 0x1CAB7, offset: 0x1CAB7, size: 0x8, addend: 0x0, symName: __ZNKSt3__117__compressed_pairIPiNS_9allocatorIiEEE5firstB8ue170006Ev, symObjAddr: 0x8A58, symBinAddr: 0x10000AEA4, symSize: 0x24 }
  - { offsetInCU: 0x1CADD, offset: 0x1CADD, size: 0x8, addend: 0x0, symName: __ZNKSt3__122__compressed_pair_elemIPiLi0ELb0EE5__getB8ue170006Ev, symObjAddr: 0x8A7C, symBinAddr: 0x10000AEC8, symSize: 0x14 }
  - { offsetInCU: 0x1CB1C, offset: 0x1CB1C, size: 0x8, addend: 0x0, symName: __ZNSt3__16vectorIiNS_9allocatorIiEEE21_ConstructTransactionC1B8ue170006ERS3_m, symObjAddr: 0x8A90, symBinAddr: 0x10000AEDC, symSize: 0x3C }
  - { offsetInCU: 0x1CB64, offset: 0x1CB64, size: 0x8, addend: 0x0, symName: __ZNSt3__16vectorIiNS_9allocatorIiEEE21_ConstructTransactionD1B8ue170006Ev, symObjAddr: 0x8B4C, symBinAddr: 0x10000AF98, symSize: 0x2C }
  - { offsetInCU: 0x1CB8E, offset: 0x1CB8E, size: 0x8, addend: 0x0, symName: __ZNSt3__16vectorIiNS_9allocatorIiEEE21_ConstructTransactionC2B8ue170006ERS3_m, symObjAddr: 0x8B78, symBinAddr: 0x10000AFC4, symSize: 0x44 }
  - { offsetInCU: 0x1CBF6, offset: 0x1CBF6, size: 0x8, addend: 0x0, symName: __ZNSt3__14pairIPiS1_EC1B8ue170006IS1_S1_LPv0EEEOT_OT0_, symObjAddr: 0x8CEC, symBinAddr: 0x10000B138, symSize: 0x3C }
  - { offsetInCU: 0x1CC54, offset: 0x1CC54, size: 0x8, addend: 0x0, symName: __ZNSt3__14pairIPiS1_EC2B8ue170006IS1_S1_LPv0EEEOT_OT0_, symObjAddr: 0x8D28, symBinAddr: 0x10000B174, symSize: 0x34 }
  - { offsetInCU: 0x1CCBC, offset: 0x1CCBC, size: 0x8, addend: 0x0, symName: __ZNKSt3__114__copy_trivialclB8ue170006IiiLi0EEENS_4pairIPT_PT0_EES4_S4_S6_, symObjAddr: 0x8ED8, symBinAddr: 0x10000B324, symSize: 0x48 }
  - { offsetInCU: 0x1CD24, offset: 0x1CD24, size: 0x8, addend: 0x0, symName: __ZNSt3__14pairIPiS1_EC1B8ue170006IRS1_S1_LPv0EEEOT_OT0_, symObjAddr: 0x9068, symBinAddr: 0x10000B4B4, symSize: 0x3C }
  - { offsetInCU: 0x1CD82, offset: 0x1CD82, size: 0x8, addend: 0x0, symName: __ZNSt3__14pairIPiS1_EC2B8ue170006IRS1_S1_LPv0EEEOT_OT0_, symObjAddr: 0x90A4, symBinAddr: 0x10000B4F0, symSize: 0x34 }
  - { offsetInCU: 0x1CDE0, offset: 0x1CDE0, size: 0x8, addend: 0x0, symName: __ZNSt3__118__unwrap_iter_implIPiLb1EE8__unwrapB8ue170006ES1_, symObjAddr: 0x90D8, symBinAddr: 0x10000B524, symSize: 0x24 }
  - { offsetInCU: 0x1CE03, offset: 0x1CE03, size: 0x8, addend: 0x0, symName: __ZNSt3__118__unwrap_iter_implIPiLb1EE8__rewrapB8ue170006ES1_S1_, symObjAddr: 0x90FC, symBinAddr: 0x10000B548, symSize: 0x50 }
  - { offsetInCU: 0x1CE34, offset: 0x1CE34, size: 0x8, addend: 0x0, symName: __ZNSt3__16vectorIiNS_9allocatorIiEEE21_ConstructTransactionD2B8ue170006Ev, symObjAddr: 0x914C, symBinAddr: 0x10000B598, symSize: 0x20 }
  - { offsetInCU: 0x1CE5E, offset: 0x1CE5E, size: 0x8, addend: 0x0, symName: __ZNSt3__128__exception_guard_exceptionsINS_6vectorIiNS_9allocatorIiEEE16__destroy_vectorEED2B8ue170006Ev, symObjAddr: 0x916C, symBinAddr: 0x10000B5B8, symSize: 0x50 }
  - { offsetInCU: 0x1CE88, offset: 0x1CE88, size: 0x8, addend: 0x0, symName: __ZNSt3__16vectorIiNS_9allocatorIiEEE16__destroy_vectorclB8ue170006Ev, symObjAddr: 0x91BC, symBinAddr: 0x10000B608, symSize: 0x90 }
  - { offsetInCU: 0x1CEAE, offset: 0x1CEAE, size: 0x8, addend: 0x0, symName: __ZNSt3__16vectorIiNS_9allocatorIiEEE7__clearB8ue170006Ev, symObjAddr: 0x924C, symBinAddr: 0x10000B698, symSize: 0x28 }
  - { offsetInCU: 0x1CED4, offset: 0x1CED4, size: 0x8, addend: 0x0, symName: __ZNKSt3__16vectorIiNS_9allocatorIiEEE17__annotate_deleteB8ue170006Ev, symObjAddr: 0x9274, symBinAddr: 0x10000B6C0, symSize: 0xB8 }
  - { offsetInCU: 0x1CEFA, offset: 0x1CEFA, size: 0x8, addend: 0x0, symName: __ZNSt3__116allocator_traitsINS_9allocatorIiEEE10deallocateB8ue170006ERS2_Pim, symObjAddr: 0x932C, symBinAddr: 0x10000B778, symSize: 0x34 }
  - { offsetInCU: 0x1CF3C, offset: 0x1CF3C, size: 0x8, addend: 0x0, symName: __ZNSt3__16vectorIiNS_9allocatorIiEEE22__base_destruct_at_endB8ue170006EPi, symObjAddr: 0x9360, symBinAddr: 0x10000B7AC, symSize: 0x8C }
  - { offsetInCU: 0x1CF80, offset: 0x1CF80, size: 0x8, addend: 0x0, symName: __ZNSt3__116allocator_traitsINS_9allocatorIiEEE7destroyB8ue170006IivEEvRS2_PT_, symObjAddr: 0x93EC, symBinAddr: 0x10000B838, symSize: 0x2C }
  - { offsetInCU: 0x1CFBD, offset: 0x1CFBD, size: 0x8, addend: 0x0, symName: __ZNSt3__19allocatorIiE7destroyB8ue170006EPi, symObjAddr: 0x9418, symBinAddr: 0x10000B864, symSize: 0x14 }
  - { offsetInCU: 0x1CFF1, offset: 0x1CFF1, size: 0x8, addend: 0x0, symName: __ZNSt3__19allocatorIiE10deallocateB8ue170006EPim, symObjAddr: 0x942C, symBinAddr: 0x10000B878, symSize: 0x40 }
  - { offsetInCU: 0x1D033, offset: 0x1D033, size: 0x8, addend: 0x0, symName: __ZNSt3__128__exception_guard_exceptionsINS_29_AllocatorDestroyRangeReverseINS_9allocatorINS_6vectorIiNS2_IiEEEEEEPS5_EEED2B8ue170006Ev, symObjAddr: 0x946C, symBinAddr: 0x10000B8B8, symSize: 0x50 }
  - { offsetInCU: 0x1D05D, offset: 0x1D05D, size: 0x8, addend: 0x0, symName: __ZNKSt3__129_AllocatorDestroyRangeReverseINS_9allocatorINS_6vectorIiNS1_IiEEEEEEPS4_EclB8ue170006Ev, symObjAddr: 0x94BC, symBinAddr: 0x10000B908, symSize: 0x68 }
  - { offsetInCU: 0x1D083, offset: 0x1D083, size: 0x8, addend: 0x0, symName: __ZNSt3__116reverse_iteratorIPNS_6vectorIiNS_9allocatorIiEEEEEC1B8ue170006ES5_, symObjAddr: 0x9594, symBinAddr: 0x10000B9E0, symSize: 0x34 }
  - { offsetInCU: 0x1D0BB, offset: 0x1D0BB, size: 0x8, addend: 0x0, symName: __ZNSt3__116allocator_traitsINS_9allocatorINS_6vectorIiNS1_IiEEEEEEE7destroyB8ue170006IS4_vEEvRS5_PT_, symObjAddr: 0x9610, symBinAddr: 0x10000BA5C, symSize: 0x2C }
  - { offsetInCU: 0x1D0F8, offset: 0x1D0F8, size: 0x8, addend: 0x0, symName: __ZNSt3__116reverse_iteratorIPNS_6vectorIiNS_9allocatorIiEEEEEppB8ue170006Ev, symObjAddr: 0x9660, symBinAddr: 0x10000BAAC, symSize: 0x20 }
  - { offsetInCU: 0x1D11E, offset: 0x1D11E, size: 0x8, addend: 0x0, symName: __ZNKSt3__116reverse_iteratorIPNS_6vectorIiNS_9allocatorIiEEEEE4baseB8ue170006Ev, symObjAddr: 0x9680, symBinAddr: 0x10000BACC, symSize: 0x18 }
  - { offsetInCU: 0x1D144, offset: 0x1D144, size: 0x8, addend: 0x0, symName: __ZNSt3__19allocatorINS_6vectorIiNS0_IiEEEEE7destroyB8ue170006EPS3_, symObjAddr: 0x9698, symBinAddr: 0x10000BAE4, symSize: 0x28 }
  - { offsetInCU: 0x1D17D, offset: 0x1D17D, size: 0x8, addend: 0x0, symName: __ZNSt3__119__to_address_helperINS_16reverse_iteratorIPNS_6vectorIiNS_9allocatorIiEEEEEEvE6__callB8ue170006ERKS7_, symObjAddr: 0x96C0, symBinAddr: 0x10000BB0C, symSize: 0x38 }
  - { offsetInCU: 0x1D1A0, offset: 0x1D1A0, size: 0x8, addend: 0x0, symName: __ZNKSt3__116reverse_iteratorIPNS_6vectorIiNS_9allocatorIiEEEEEptB8ue170006Ev, symObjAddr: 0x96F8, symBinAddr: 0x10000BB44, symSize: 0x24 }
  - { offsetInCU: 0x1D1C6, offset: 0x1D1C6, size: 0x8, addend: 0x0, symName: __ZNKSt3__116reverse_iteratorIPNS_6vectorIiNS_9allocatorIiEEEEEdeB8ue170006Ev, symObjAddr: 0x971C, symBinAddr: 0x10000BB68, symSize: 0x28 }
  - { offsetInCU: 0x1D1FA, offset: 0x1D1FA, size: 0x8, addend: 0x0, symName: __ZNSt3__116reverse_iteratorIPNS_6vectorIiNS_9allocatorIiEEEEEC2B8ue170006ES5_, symObjAddr: 0x9744, symBinAddr: 0x10000BB90, symSize: 0x28 }
  - { offsetInCU: 0x1D232, offset: 0x1D232, size: 0x8, addend: 0x0, symName: __ZNSt3__118__unwrap_iter_implIPNS_6vectorIiNS_9allocatorIiEEEELb1EE8__unwrapB8ue170006ES5_, symObjAddr: 0x976C, symBinAddr: 0x10000BBB8, symSize: 0x24 }
  - { offsetInCU: 0x1D255, offset: 0x1D255, size: 0x8, addend: 0x0, symName: __ZNSt3__118__unwrap_iter_implIPNS_6vectorIiNS_9allocatorIiEEEELb1EE8__rewrapB8ue170006ES5_S5_, symObjAddr: 0x9790, symBinAddr: 0x10000BBDC, symSize: 0x58 }
  - { offsetInCU: 0x1D286, offset: 0x1D286, size: 0x8, addend: 0x0, symName: __ZNSt3__16vectorINS0_IiNS_9allocatorIiEEEENS1_IS3_EEE21_ConstructTransactionD2B8ue170006Ev, symObjAddr: 0x97E8, symBinAddr: 0x10000BC34, symSize: 0x20 }
  - { offsetInCU: 0x1D2B0, offset: 0x1D2B0, size: 0x8, addend: 0x0, symName: __ZNSt3__128__exception_guard_exceptionsINS_6vectorINS1_IiNS_9allocatorIiEEEENS2_IS4_EEE16__destroy_vectorEED2B8ue170006Ev, symObjAddr: 0x9808, symBinAddr: 0x10000BC54, symSize: 0x50 }
  - { offsetInCU: 0x1D2DA, offset: 0x1D2DA, size: 0x8, addend: 0x0, symName: __ZNSt3__16vectorINS0_IiNS_9allocatorIiEEEENS1_IS3_EEE16__destroy_vectorclB8ue170006Ev, symObjAddr: 0x9858, symBinAddr: 0x10000BCA4, symSize: 0x90 }
  - { offsetInCU: 0x1D300, offset: 0x1D300, size: 0x8, addend: 0x0, symName: __ZNSt3__16vectorINS0_IiNS_9allocatorIiEEEENS1_IS3_EEE7__clearB8ue170006Ev, symObjAddr: 0x98E8, symBinAddr: 0x10000BD34, symSize: 0x28 }
  - { offsetInCU: 0x1D326, offset: 0x1D326, size: 0x8, addend: 0x0, symName: __ZNKSt3__16vectorINS0_IiNS_9allocatorIiEEEENS1_IS3_EEE17__annotate_deleteB8ue170006Ev, symObjAddr: 0x9910, symBinAddr: 0x10000BD5C, symSize: 0xD4 }
  - { offsetInCU: 0x1D34C, offset: 0x1D34C, size: 0x8, addend: 0x0, symName: __ZNSt3__116allocator_traitsINS_9allocatorINS_6vectorIiNS1_IiEEEEEEE10deallocateB8ue170006ERS5_PS4_m, symObjAddr: 0x99E4, symBinAddr: 0x10000BE30, symSize: 0x34 }
  - { offsetInCU: 0x1D38E, offset: 0x1D38E, size: 0x8, addend: 0x0, symName: __ZNSt3__16vectorINS0_IiNS_9allocatorIiEEEENS1_IS3_EEE22__base_destruct_at_endB8ue170006EPS3_, symObjAddr: 0x9A18, symBinAddr: 0x10000BE64, symSize: 0x8C }
  - { offsetInCU: 0x1D3D2, offset: 0x1D3D2, size: 0x8, addend: 0x0, symName: __ZNSt3__19allocatorINS_6vectorIiNS0_IiEEEEE10deallocateB8ue170006EPS3_m, symObjAddr: 0x9AA4, symBinAddr: 0x10000BEF0, symSize: 0x44 }
  - { offsetInCU: 0x1D414, offset: 0x1D414, size: 0x8, addend: 0x0, symName: __ZNSt3__15tupleIJNS_6vectorINS1_IiNS_9allocatorIiEEEENS2_IS4_EEEEiiEED2Ev, symObjAddr: 0x9AE8, symBinAddr: 0x10000BF34, symSize: 0x2C }
  - { offsetInCU: 0x1D441, offset: 0x1D441, size: 0x8, addend: 0x0, symName: __ZNSt3__112__tuple_implINS_15__tuple_indicesIJLm0ELm1ELm2EEEEJNS_6vectorINS3_IiNS_9allocatorIiEEEENS4_IS6_EEEEiiEED1Ev, symObjAddr: 0x9B14, symBinAddr: 0x10000BF60, symSize: 0x2C }
  - { offsetInCU: 0x1D46E, offset: 0x1D46E, size: 0x8, addend: 0x0, symName: __ZNSt3__112__tuple_implINS_15__tuple_indicesIJLm0ELm1ELm2EEEEJNS_6vectorINS3_IiNS_9allocatorIiEEEENS4_IS6_EEEEiiEED2Ev, symObjAddr: 0x9B40, symBinAddr: 0x10000BF8C, symSize: 0x2C }
  - { offsetInCU: 0x1D49B, offset: 0x1D49B, size: 0x8, addend: 0x0, symName: __ZNSt3__112__tuple_leafILm0ENS_6vectorINS1_IiNS_9allocatorIiEEEENS2_IS4_EEEELb0EED2Ev, symObjAddr: 0x9B6C, symBinAddr: 0x10000BFB8, symSize: 0x2C }
  - { offsetInCU: 0x1D4C8, offset: 0x1D4C8, size: 0x8, addend: 0x0, symName: __ZNKSt3__111__wrap_iterIPNS_5tupleIJNS_6vectorINS2_IiNS_9allocatorIiEEEENS3_IS5_EEEEiiEEEE4baseB8ue170006Ev, symObjAddr: 0x9BE0, symBinAddr: 0x10000C02C, symSize: 0x18 }
  - { offsetInCU: 0x1D4EE, offset: 0x1D4EE, size: 0x8, addend: 0x0, symName: __ZNSt3__112__tuple_leafILm0ENS_6vectorINS1_IiNS_9allocatorIiEEEENS2_IS4_EEEELb0EE3getB8ue170006Ev, symObjAddr: 0x9BF8, symBinAddr: 0x10000C044, symSize: 0x14 }
  - { offsetInCU: 0x1D514, offset: 0x1D514, size: 0x8, addend: 0x0, symName: __ZNSt3__112__tuple_leafILm1EiLb0EE3getB8ue170006Ev, symObjAddr: 0x9C0C, symBinAddr: 0x10000C058, symSize: 0x14 }
  - { offsetInCU: 0x1D53A, offset: 0x1D53A, size: 0x8, addend: 0x0, symName: __ZNSt3__112__tuple_leafILm2EiLb0EE3getB8ue170006Ev, symObjAddr: 0x9C20, symBinAddr: 0x10000C06C, symSize: 0x14 }
  - { offsetInCU: 0x1D560, offset: 0x1D560, size: 0x8, addend: 0x0, symName: __ZNSt3__16vectorINS_5tupleIJiiiEEENS_9allocatorIS2_EEED2B8ue170006Ev, symObjAddr: 0x9C34, symBinAddr: 0x10000C080, symSize: 0x40 }
  - { offsetInCU: 0x1D58A, offset: 0x1D58A, size: 0x8, addend: 0x0, symName: __ZNSt3__16vectorIbNS_9allocatorIbEEEC2EmRKb, symObjAddr: 0x9C74, symBinAddr: 0x10000C0C0, symSize: 0x90 }
  - { offsetInCU: 0x1D5E0, offset: 0x1D5E0, size: 0x8, addend: 0x0, symName: __ZNSt3__117__compressed_pairImNS_9allocatorImEEEC1B8ue170006IiNS_18__default_init_tagEEEOT_OT0_, symObjAddr: 0x9D04, symBinAddr: 0x10000C150, symSize: 0x3C }
  - { offsetInCU: 0x1D638, offset: 0x1D638, size: 0x8, addend: 0x0, symName: __ZNSt3__16vectorIbNS_9allocatorIbEEE11__vallocateB8ue170006Em, symObjAddr: 0x9D40, symBinAddr: 0x10000C18C, symSize: 0xA0 }
  - { offsetInCU: 0x1D67C, offset: 0x1D67C, size: 0x8, addend: 0x0, symName: __ZNSt3__16vectorIbNS_9allocatorIbEEE18__construct_at_endB8ue170006Emb, symObjAddr: 0x9DE0, symBinAddr: 0x10000C22C, symSize: 0x108 }
  - { offsetInCU: 0x1D6D1, offset: 0x1D6D1, size: 0x8, addend: 0x0, symName: __ZNSt3__117__compressed_pairImNS_9allocatorImEEEC2B8ue170006IiNS_18__default_init_tagEEEOT_OT0_, symObjAddr: 0x9EE8, symBinAddr: 0x10000C334, symSize: 0x40 }
  - { offsetInCU: 0x1D729, offset: 0x1D729, size: 0x8, addend: 0x0, symName: __ZNSt3__122__compressed_pair_elemImLi0ELb0EEC2B8ue170006IivEEOT_, symObjAddr: 0x9F28, symBinAddr: 0x10000C374, symSize: 0x24 }
  - { offsetInCU: 0x1D76B, offset: 0x1D76B, size: 0x8, addend: 0x0, symName: __ZNSt3__122__compressed_pair_elemINS_9allocatorImEELi1ELb1EEC2B8ue170006ENS_18__default_init_tagE, symObjAddr: 0x9F4C, symBinAddr: 0x10000C398, symSize: 0x2C }
  - { offsetInCU: 0x1D7A0, offset: 0x1D7A0, size: 0x8, addend: 0x0, symName: __ZNSt3__19allocatorImEC2B8ue170006Ev, symObjAddr: 0x9F78, symBinAddr: 0x10000C3C4, symSize: 0x2C }
  - { offsetInCU: 0x1D7CA, offset: 0x1D7CA, size: 0x8, addend: 0x0, symName: __ZNSt3__116__non_trivial_ifILb1ENS_9allocatorImEEEC2B8ue170006Ev, symObjAddr: 0x9FA4, symBinAddr: 0x10000C3F0, symSize: 0x14 }
  - { offsetInCU: 0x1D7F4, offset: 0x1D7F4, size: 0x8, addend: 0x0, symName: __ZNKSt3__16vectorIbNS_9allocatorIbEEE8max_sizeEv, symObjAddr: 0x9FB8, symBinAddr: 0x10000C404, symSize: 0x7C }
  - { offsetInCU: 0x1D83A, offset: 0x1D83A, size: 0x8, addend: 0x0, symName: __ZNKSt3__16vectorIbNS_9allocatorIbEEE20__throw_length_errorB8ue170006Ev, symObjAddr: 0xA034, symBinAddr: 0x10000C480, symSize: 0x1C }
  - { offsetInCU: 0x1D860, offset: 0x1D860, size: 0x8, addend: 0x0, symName: __ZNSt3__16vectorIbNS_9allocatorIbEEE7__allocB8ue170006Ev, symObjAddr: 0xA090, symBinAddr: 0x10000C4DC, symSize: 0x28 }
  - { offsetInCU: 0x1D886, offset: 0x1D886, size: 0x8, addend: 0x0, symName: __ZNSt3__16vectorIbNS_9allocatorIbEEE26__external_cap_to_internalB8ue170006Em, symObjAddr: 0xA0B8, symBinAddr: 0x10000C504, symSize: 0x24 }
  - { offsetInCU: 0x1D8AA, offset: 0x1D8AA, size: 0x8, addend: 0x0, symName: __ZNSt3__16vectorIbNS_9allocatorIbEEE5__capB8ue170006Ev, symObjAddr: 0xA0DC, symBinAddr: 0x10000C528, symSize: 0x28 }
  - { offsetInCU: 0x1D8DA, offset: 0x1D8DA, size: 0x8, addend: 0x0, symName: __ZNSt3__116allocator_traitsINS_9allocatorImEEE8max_sizeB8ue170006IS2_vEEmRKS2_, symObjAddr: 0xA104, symBinAddr: 0x10000C550, symSize: 0x24 }
  - { offsetInCU: 0x1D908, offset: 0x1D908, size: 0x8, addend: 0x0, symName: __ZNKSt3__16vectorIbNS_9allocatorIbEEE7__allocB8ue170006Ev, symObjAddr: 0xA128, symBinAddr: 0x10000C574, symSize: 0x28 }
  - { offsetInCU: 0x1D92E, offset: 0x1D92E, size: 0x8, addend: 0x0, symName: __ZNSt3__114numeric_limitsImE3maxB8ue170006Ev, symObjAddr: 0xA150, symBinAddr: 0x10000C59C, symSize: 0x14 }
  - { offsetInCU: 0x1D942, offset: 0x1D942, size: 0x8, addend: 0x0, symName: __ZNSt3__16vectorIbNS_9allocatorIbEEE26__internal_cap_to_externalB8ue170006Em, symObjAddr: 0xA164, symBinAddr: 0x10000C5B0, symSize: 0x18 }
  - { offsetInCU: 0x1D966, offset: 0x1D966, size: 0x8, addend: 0x0, symName: __ZNKSt3__19allocatorImE8max_sizeB8ue170006Ev, symObjAddr: 0xA17C, symBinAddr: 0x10000C5C8, symSize: 0x14 }
  - { offsetInCU: 0x1D98C, offset: 0x1D98C, size: 0x8, addend: 0x0, symName: __ZNKSt3__117__compressed_pairImNS_9allocatorImEEE6secondB8ue170006Ev, symObjAddr: 0xA190, symBinAddr: 0x10000C5DC, symSize: 0x24 }
  - { offsetInCU: 0x1D9B2, offset: 0x1D9B2, size: 0x8, addend: 0x0, symName: __ZNKSt3__122__compressed_pair_elemINS_9allocatorImEELi1ELb1EE5__getB8ue170006Ev, symObjAddr: 0xA1B4, symBinAddr: 0x10000C600, symSize: 0x14 }
  - { offsetInCU: 0x1D9D8, offset: 0x1D9D8, size: 0x8, addend: 0x0, symName: __ZNSt3__123__libcpp_numeric_limitsImLb1EE3maxB8ue170006Ev, symObjAddr: 0xA1C8, symBinAddr: 0x10000C614, symSize: 0x8 }
  - { offsetInCU: 0x1D9EC, offset: 0x1D9EC, size: 0x8, addend: 0x0, symName: __ZNSt3__19allocatorImE8allocateB8ue170006Em, symObjAddr: 0xA1D0, symBinAddr: 0x10000C61C, symSize: 0x58 }
  - { offsetInCU: 0x1DA20, offset: 0x1DA20, size: 0x8, addend: 0x0, symName: __ZNSt3__117__compressed_pairImNS_9allocatorImEEE6secondB8ue170006Ev, symObjAddr: 0xA228, symBinAddr: 0x10000C674, symSize: 0x24 }
  - { offsetInCU: 0x1DA46, offset: 0x1DA46, size: 0x8, addend: 0x0, symName: __ZNSt3__122__compressed_pair_elemINS_9allocatorImEELi1ELb1EE5__getB8ue170006Ev, symObjAddr: 0xA24C, symBinAddr: 0x10000C698, symSize: 0x14 }
  - { offsetInCU: 0x1DA6C, offset: 0x1DA6C, size: 0x8, addend: 0x0, symName: __ZNSt3__117__compressed_pairImNS_9allocatorImEEE5firstB8ue170006Ev, symObjAddr: 0xA260, symBinAddr: 0x10000C6AC, symSize: 0x24 }
  - { offsetInCU: 0x1DA92, offset: 0x1DA92, size: 0x8, addend: 0x0, symName: __ZNSt3__122__compressed_pair_elemImLi0ELb0EE5__getB8ue170006Ev, symObjAddr: 0xA284, symBinAddr: 0x10000C6D0, symSize: 0x14 }
  - { offsetInCU: 0x1DAB8, offset: 0x1DAB8, size: 0x8, addend: 0x0, symName: __ZNSt3__16vectorIbNS_9allocatorIbEEE11__make_iterB8ue170006Em, symObjAddr: 0xA32C, symBinAddr: 0x10000C778, symSize: 0x64 }
  - { offsetInCU: 0x1DAED, offset: 0x1DAED, size: 0x8, addend: 0x0, symName: __ZNSt3__114__bit_iteratorINS_6vectorIbNS_9allocatorIbEEEELb0ELm0EEC1B8ue170006ERKS5_, symObjAddr: 0xA4F0, symBinAddr: 0x10000C93C, symSize: 0x34 }
  - { offsetInCU: 0x1DB26, offset: 0x1DB26, size: 0x8, addend: 0x0, symName: __ZNSt3__114__bit_iteratorINS_6vectorIbNS_9allocatorIbEEEELb0ELm0EEC2B8ue170006ERKS5_, symObjAddr: 0xA750, symBinAddr: 0x10000CB9C, symSize: 0x30 }
  - { offsetInCU: 0x1DB5F, offset: 0x1DB5F, size: 0x8, addend: 0x0, symName: __ZNSt3__114__bit_iteratorINS_6vectorIbNS_9allocatorIbEEEELb0ELm0EEC1B8ue170006EPmj, symObjAddr: 0xA828, symBinAddr: 0x10000CC74, symSize: 0x3C }
  - { offsetInCU: 0x1DBA7, offset: 0x1DBA7, size: 0x8, addend: 0x0, symName: __ZNSt3__114__bit_iteratorINS_6vectorIbNS_9allocatorIbEEEELb0ELm0EEC2B8ue170006EPmj, symObjAddr: 0xA864, symBinAddr: 0x10000CCB0, symSize: 0x2C }
  - { offsetInCU: 0x1DBEF, offset: 0x1DBEF, size: 0x8, addend: 0x0, symName: __ZNSt3__16vectorIbNS_9allocatorIbEEED2B8ue170006Ev, symObjAddr: 0xA890, symBinAddr: 0x10000CCDC, symSize: 0x44 }
  - { offsetInCU: 0x1DC19, offset: 0x1DC19, size: 0x8, addend: 0x0, symName: __ZNSt3__16vectorIbNS_9allocatorIbEEE16__destroy_vectorC1B8ue170006ERS3_, symObjAddr: 0xA8D4, symBinAddr: 0x10000CD20, symSize: 0x34 }
  - { offsetInCU: 0x1DC52, offset: 0x1DC52, size: 0x8, addend: 0x0, symName: __ZNSt3__16vectorIbNS_9allocatorIbEEE16__destroy_vectorclB8ue170006Ev, symObjAddr: 0xA908, symBinAddr: 0x10000CD54, symSize: 0x7C }
  - { offsetInCU: 0x1DC78, offset: 0x1DC78, size: 0x8, addend: 0x0, symName: __ZNSt3__16vectorIbNS_9allocatorIbEEE16__destroy_vectorC2B8ue170006ERS3_, symObjAddr: 0xA984, symBinAddr: 0x10000CDD0, symSize: 0x20 }
  - { offsetInCU: 0x1DCB1, offset: 0x1DCB1, size: 0x8, addend: 0x0, symName: __ZNSt3__116allocator_traitsINS_9allocatorImEEE10deallocateB8ue170006ERS2_Pmm, symObjAddr: 0xA9A4, symBinAddr: 0x10000CDF0, symSize: 0x34 }
  - { offsetInCU: 0x1DCF3, offset: 0x1DCF3, size: 0x8, addend: 0x0, symName: __ZNSt3__19allocatorImE10deallocateB8ue170006EPmm, symObjAddr: 0xA9D8, symBinAddr: 0x10000CE24, symSize: 0x40 }
  - { offsetInCU: 0x1DD35, offset: 0x1DD35, size: 0x8, addend: 0x0, symName: __ZNSt3__16vectorINS0_IbNS_9allocatorIbEEEENS1_IS3_EEEC2EmRKS3_, symObjAddr: 0xAA18, symBinAddr: 0x10000CE64, symSize: 0xDC }
  - { offsetInCU: 0x1DD94, offset: 0x1DD94, size: 0x8, addend: 0x0, symName: __ZNSt3__117__compressed_pairIPNS_6vectorIbNS_9allocatorIbEEEENS2_IS4_EEEC1B8ue170006IDnNS_18__default_init_tagEEEOT_OT0_, symObjAddr: 0xAAF4, symBinAddr: 0x10000CF40, symSize: 0x3C }
  - { offsetInCU: 0x1DDEC, offset: 0x1DDEC, size: 0x8, addend: 0x0, symName: __ZNSt3__16vectorINS0_IbNS_9allocatorIbEEEENS1_IS3_EEE16__destroy_vectorC1B8ue170006ERS5_, symObjAddr: 0xAB70, symBinAddr: 0x10000CFBC, symSize: 0x34 }
  - { offsetInCU: 0x1DE25, offset: 0x1DE25, size: 0x8, addend: 0x0, symName: __ZNSt3__16vectorINS0_IbNS_9allocatorIbEEEENS1_IS3_EEE11__vallocateB8ue170006Em, symObjAddr: 0xABA4, symBinAddr: 0x10000CFF0, symSize: 0xB4 }
  - { offsetInCU: 0x1DE69, offset: 0x1DE69, size: 0x8, addend: 0x0, symName: __ZNSt3__16vectorINS0_IbNS_9allocatorIbEEEENS1_IS3_EEE18__construct_at_endEmRKS3_, symObjAddr: 0xAC58, symBinAddr: 0x10000D0A4, symSize: 0xD0 }
  - { offsetInCU: 0x1DEEA, offset: 0x1DEEA, size: 0x8, addend: 0x0, symName: __ZNSt3__128__exception_guard_exceptionsINS_6vectorINS1_IbNS_9allocatorIbEEEENS2_IS4_EEE16__destroy_vectorEE10__completeB8ue170006Ev, symObjAddr: 0xAD28, symBinAddr: 0x10000D174, symSize: 0x1C }
  - { offsetInCU: 0x1DF10, offset: 0x1DF10, size: 0x8, addend: 0x0, symName: __ZNSt3__128__exception_guard_exceptionsINS_6vectorINS1_IbNS_9allocatorIbEEEENS2_IS4_EEE16__destroy_vectorEED1B8ue170006Ev, symObjAddr: 0xAD44, symBinAddr: 0x10000D190, symSize: 0x2C }
  - { offsetInCU: 0x1DF3A, offset: 0x1DF3A, size: 0x8, addend: 0x0, symName: __ZNSt3__117__compressed_pairIPNS_6vectorIbNS_9allocatorIbEEEENS2_IS4_EEEC2B8ue170006IDnNS_18__default_init_tagEEEOT_OT0_, symObjAddr: 0xAD70, symBinAddr: 0x10000D1BC, symSize: 0x40 }
  - { offsetInCU: 0x1DF92, offset: 0x1DF92, size: 0x8, addend: 0x0, symName: __ZNSt3__122__compressed_pair_elemIPNS_6vectorIbNS_9allocatorIbEEEELi0ELb0EEC2B8ue170006IDnvEEOT_, symObjAddr: 0xADB0, symBinAddr: 0x10000D1FC, symSize: 0x1C }
  - { offsetInCU: 0x1DFD4, offset: 0x1DFD4, size: 0x8, addend: 0x0, symName: __ZNSt3__122__compressed_pair_elemINS_9allocatorINS_6vectorIbNS1_IbEEEEEELi1ELb1EEC2B8ue170006ENS_18__default_init_tagE, symObjAddr: 0xADCC, symBinAddr: 0x10000D218, symSize: 0x2C }
  - { offsetInCU: 0x1E009, offset: 0x1E009, size: 0x8, addend: 0x0, symName: __ZNSt3__19allocatorINS_6vectorIbNS0_IbEEEEEC2B8ue170006Ev, symObjAddr: 0xADF8, symBinAddr: 0x10000D244, symSize: 0x2C }
  - { offsetInCU: 0x1E033, offset: 0x1E033, size: 0x8, addend: 0x0, symName: __ZNSt3__116__non_trivial_ifILb1ENS_9allocatorINS_6vectorIbNS1_IbEEEEEEEC2B8ue170006Ev, symObjAddr: 0xAE24, symBinAddr: 0x10000D270, symSize: 0x14 }
  - { offsetInCU: 0x1E05D, offset: 0x1E05D, size: 0x8, addend: 0x0, symName: __ZNSt3__128__exception_guard_exceptionsINS_6vectorINS1_IbNS_9allocatorIbEEEENS2_IS4_EEE16__destroy_vectorEEC1B8ue170006ES7_, symObjAddr: 0xAE38, symBinAddr: 0x10000D284, symSize: 0x34 }
  - { offsetInCU: 0x1E095, offset: 0x1E095, size: 0x8, addend: 0x0, symName: __ZNSt3__128__exception_guard_exceptionsINS_6vectorINS1_IbNS_9allocatorIbEEEENS2_IS4_EEE16__destroy_vectorEEC2B8ue170006ES7_, symObjAddr: 0xAE6C, symBinAddr: 0x10000D2B8, symSize: 0x24 }
  - { offsetInCU: 0x1E0CD, offset: 0x1E0CD, size: 0x8, addend: 0x0, symName: __ZNSt3__16vectorINS0_IbNS_9allocatorIbEEEENS1_IS3_EEE16__destroy_vectorC2B8ue170006ERS5_, symObjAddr: 0xAE90, symBinAddr: 0x10000D2DC, symSize: 0x20 }
  - { offsetInCU: 0x1E106, offset: 0x1E106, size: 0x8, addend: 0x0, symName: __ZNKSt3__16vectorINS0_IbNS_9allocatorIbEEEENS1_IS3_EEE8max_sizeEv, symObjAddr: 0xAEB0, symBinAddr: 0x10000D2FC, symSize: 0x60 }
  - { offsetInCU: 0x1E12E, offset: 0x1E12E, size: 0x8, addend: 0x0, symName: __ZNKSt3__16vectorINS0_IbNS_9allocatorIbEEEENS1_IS3_EEE20__throw_length_errorB8ue170006Ev, symObjAddr: 0xAF10, symBinAddr: 0x10000D35C, symSize: 0x1C }
  - { offsetInCU: 0x1E154, offset: 0x1E154, size: 0x8, addend: 0x0, symName: __ZNSt3__16vectorINS0_IbNS_9allocatorIbEEEENS1_IS3_EEE7__allocB8ue170006Ev, symObjAddr: 0xAF6C, symBinAddr: 0x10000D3B8, symSize: 0x28 }
  - { offsetInCU: 0x1E17A, offset: 0x1E17A, size: 0x8, addend: 0x0, symName: __ZNSt3__16vectorINS0_IbNS_9allocatorIbEEEENS1_IS3_EEE9__end_capB8ue170006Ev, symObjAddr: 0xAF94, symBinAddr: 0x10000D3E0, symSize: 0x28 }
  - { offsetInCU: 0x1E1A0, offset: 0x1E1A0, size: 0x8, addend: 0x0, symName: __ZNKSt3__16vectorINS0_IbNS_9allocatorIbEEEENS1_IS3_EEE14__annotate_newB8ue170006Em, symObjAddr: 0xAFBC, symBinAddr: 0x10000D408, symSize: 0xC8 }
  - { offsetInCU: 0x1E1DF, offset: 0x1E1DF, size: 0x8, addend: 0x0, symName: __ZNSt3__116allocator_traitsINS_9allocatorINS_6vectorIbNS1_IbEEEEEEE8max_sizeB8ue170006IS5_vEEmRKS5_, symObjAddr: 0xB084, symBinAddr: 0x10000D4D0, symSize: 0x24 }
  - { offsetInCU: 0x1E20D, offset: 0x1E20D, size: 0x8, addend: 0x0, symName: __ZNKSt3__16vectorINS0_IbNS_9allocatorIbEEEENS1_IS3_EEE7__allocB8ue170006Ev, symObjAddr: 0xB0A8, symBinAddr: 0x10000D4F4, symSize: 0x28 }
  - { offsetInCU: 0x1E233, offset: 0x1E233, size: 0x8, addend: 0x0, symName: __ZNKSt3__19allocatorINS_6vectorIbNS0_IbEEEEE8max_sizeB8ue170006Ev, symObjAddr: 0xB0D0, symBinAddr: 0x10000D51C, symSize: 0x18 }
  - { offsetInCU: 0x1E259, offset: 0x1E259, size: 0x8, addend: 0x0, symName: __ZNKSt3__117__compressed_pairIPNS_6vectorIbNS_9allocatorIbEEEENS2_IS4_EEE6secondB8ue170006Ev, symObjAddr: 0xB0E8, symBinAddr: 0x10000D534, symSize: 0x24 }
  - { offsetInCU: 0x1E27F, offset: 0x1E27F, size: 0x8, addend: 0x0, symName: __ZNKSt3__122__compressed_pair_elemINS_9allocatorINS_6vectorIbNS1_IbEEEEEELi1ELb1EE5__getB8ue170006Ev, symObjAddr: 0xB10C, symBinAddr: 0x10000D558, symSize: 0x14 }
  - { offsetInCU: 0x1E2A5, offset: 0x1E2A5, size: 0x8, addend: 0x0, symName: __ZNSt3__19allocatorINS_6vectorIbNS0_IbEEEEE8allocateB8ue170006Em, symObjAddr: 0xB120, symBinAddr: 0x10000D56C, symSize: 0x5C }
  - { offsetInCU: 0x1E2D9, offset: 0x1E2D9, size: 0x8, addend: 0x0, symName: __ZNSt3__117__compressed_pairIPNS_6vectorIbNS_9allocatorIbEEEENS2_IS4_EEE6secondB8ue170006Ev, symObjAddr: 0xB17C, symBinAddr: 0x10000D5C8, symSize: 0x24 }
  - { offsetInCU: 0x1E2FF, offset: 0x1E2FF, size: 0x8, addend: 0x0, symName: __ZNSt3__122__compressed_pair_elemINS_9allocatorINS_6vectorIbNS1_IbEEEEEELi1ELb1EE5__getB8ue170006Ev, symObjAddr: 0xB1A0, symBinAddr: 0x10000D5EC, symSize: 0x14 }
  - { offsetInCU: 0x1E325, offset: 0x1E325, size: 0x8, addend: 0x0, symName: __ZNSt3__117__compressed_pairIPNS_6vectorIbNS_9allocatorIbEEEENS2_IS4_EEE5firstB8ue170006Ev, symObjAddr: 0xB1B4, symBinAddr: 0x10000D600, symSize: 0x24 }
  - { offsetInCU: 0x1E34B, offset: 0x1E34B, size: 0x8, addend: 0x0, symName: __ZNSt3__122__compressed_pair_elemIPNS_6vectorIbNS_9allocatorIbEEEELi0ELb0EE5__getB8ue170006Ev, symObjAddr: 0xB1D8, symBinAddr: 0x10000D624, symSize: 0x14 }
  - { offsetInCU: 0x1E371, offset: 0x1E371, size: 0x8, addend: 0x0, symName: __ZNKSt3__16vectorINS0_IbNS_9allocatorIbEEEENS1_IS3_EEE31__annotate_contiguous_containerB8ue170006EPKvS7_S7_S7_, symObjAddr: 0xB1EC, symBinAddr: 0x10000D638, symSize: 0x20 }
  - { offsetInCU: 0x1E3C3, offset: 0x1E3C3, size: 0x8, addend: 0x0, symName: __ZNKSt3__16vectorINS0_IbNS_9allocatorIbEEEENS1_IS3_EEE4dataB8ue170006Ev, symObjAddr: 0xB20C, symBinAddr: 0x10000D658, symSize: 0x28 }
  - { offsetInCU: 0x1E3E9, offset: 0x1E3E9, size: 0x8, addend: 0x0, symName: __ZNKSt3__16vectorINS0_IbNS_9allocatorIbEEEENS1_IS3_EEE8capacityB8ue170006Ev, symObjAddr: 0xB234, symBinAddr: 0x10000D680, symSize: 0x40 }
  - { offsetInCU: 0x1E40F, offset: 0x1E40F, size: 0x8, addend: 0x0, symName: __ZNKSt3__16vectorINS0_IbNS_9allocatorIbEEEENS1_IS3_EEE9__end_capB8ue170006Ev, symObjAddr: 0xB288, symBinAddr: 0x10000D6D4, symSize: 0x28 }
  - { offsetInCU: 0x1E435, offset: 0x1E435, size: 0x8, addend: 0x0, symName: __ZNKSt3__117__compressed_pairIPNS_6vectorIbNS_9allocatorIbEEEENS2_IS4_EEE5firstB8ue170006Ev, symObjAddr: 0xB2B0, symBinAddr: 0x10000D6FC, symSize: 0x24 }
  - { offsetInCU: 0x1E45B, offset: 0x1E45B, size: 0x8, addend: 0x0, symName: __ZNKSt3__122__compressed_pair_elemIPNS_6vectorIbNS_9allocatorIbEEEELi0ELb0EE5__getB8ue170006Ev, symObjAddr: 0xB2D4, symBinAddr: 0x10000D720, symSize: 0x14 }
  - { offsetInCU: 0x1E49A, offset: 0x1E49A, size: 0x8, addend: 0x0, symName: __ZNSt3__16vectorINS0_IbNS_9allocatorIbEEEENS1_IS3_EEE21_ConstructTransactionC1B8ue170006ERS5_m, symObjAddr: 0xB2E8, symBinAddr: 0x10000D734, symSize: 0x3C }
  - { offsetInCU: 0x1E4E2, offset: 0x1E4E2, size: 0x8, addend: 0x0, symName: __ZNSt3__116allocator_traitsINS_9allocatorINS_6vectorIbNS1_IbEEEEEEE9constructB8ue170006IS4_JRKS4_EvEEvRS5_PT_DpOT0_, symObjAddr: 0xB324, symBinAddr: 0x10000D770, symSize: 0x34 }
  - { offsetInCU: 0x1E539, offset: 0x1E539, size: 0x8, addend: 0x0, symName: __ZNSt3__16vectorINS0_IbNS_9allocatorIbEEEENS1_IS3_EEE21_ConstructTransactionD1B8ue170006Ev, symObjAddr: 0xB358, symBinAddr: 0x10000D7A4, symSize: 0x2C }
  - { offsetInCU: 0x1E563, offset: 0x1E563, size: 0x8, addend: 0x0, symName: __ZNSt3__16vectorINS0_IbNS_9allocatorIbEEEENS1_IS3_EEE21_ConstructTransactionC2B8ue170006ERS5_m, symObjAddr: 0xB384, symBinAddr: 0x10000D7D0, symSize: 0x4C }
  - { offsetInCU: 0x1E5AB, offset: 0x1E5AB, size: 0x8, addend: 0x0, symName: __ZNSt3__19allocatorINS_6vectorIbNS0_IbEEEEE9constructB8ue170006IS3_JRKS3_EEEvPT_DpOT0_, symObjAddr: 0xB3D0, symBinAddr: 0x10000D81C, symSize: 0x30 }
  - { offsetInCU: 0x1E601, offset: 0x1E601, size: 0x8, addend: 0x0, symName: __ZNSt3__16vectorIbNS_9allocatorIbEEEC1ERKS3_, symObjAddr: 0xB400, symBinAddr: 0x10000D84C, symSize: 0x34 }
  - { offsetInCU: 0x1E63C, offset: 0x1E63C, size: 0x8, addend: 0x0, symName: __ZNSt3__16vectorIbNS_9allocatorIbEEEC2ERKS3_, symObjAddr: 0xB434, symBinAddr: 0x10000D880, symSize: 0xDC }
  - { offsetInCU: 0x1E677, offset: 0x1E677, size: 0x8, addend: 0x0, symName: __ZNSt3__116allocator_traitsINS_9allocatorImEEE37select_on_container_copy_constructionB8ue170006IS2_vvEES2_RKS2_, symObjAddr: 0xB510, symBinAddr: 0x10000D95C, symSize: 0x10 }
  - { offsetInCU: 0x1E6AC, offset: 0x1E6AC, size: 0x8, addend: 0x0, symName: __ZNSt3__117__compressed_pairImNS_9allocatorImEEEC1B8ue170006IiS2_EEOT_OT0_, symObjAddr: 0xB520, symBinAddr: 0x10000D96C, symSize: 0x3C }
  - { offsetInCU: 0x1E704, offset: 0x1E704, size: 0x8, addend: 0x0, symName: __ZNKSt3__16vectorIbNS_9allocatorIbEEE4sizeB8ue170006Ev, symObjAddr: 0xB55C, symBinAddr: 0x10000D9A8, symSize: 0x18 }
  - { offsetInCU: 0x1E72A, offset: 0x1E72A, size: 0x8, addend: 0x0, symName: __ZNSt3__16vectorIbNS_9allocatorIbEEE18__construct_at_endINS_14__bit_iteratorIS3_Lb1ELm0EEES6_EEvT_T0_m, symObjAddr: 0xB574, symBinAddr: 0x10000D9C0, symSize: 0x124 }
  - { offsetInCU: 0x1E7A0, offset: 0x1E7A0, size: 0x8, addend: 0x0, symName: __ZNKSt3__16vectorIbNS_9allocatorIbEEE5beginB8ue170006Ev, symObjAddr: 0xB698, symBinAddr: 0x10000DAE4, symSize: 0x38 }
  - { offsetInCU: 0x1E7C6, offset: 0x1E7C6, size: 0x8, addend: 0x0, symName: __ZNKSt3__16vectorIbNS_9allocatorIbEEE3endB8ue170006Ev, symObjAddr: 0xB6D0, symBinAddr: 0x10000DB1C, symSize: 0x38 }
  - { offsetInCU: 0x1E7EC, offset: 0x1E7EC, size: 0x8, addend: 0x0, symName: __ZNSt3__117__compressed_pairImNS_9allocatorImEEEC2B8ue170006IiS2_EEOT_OT0_, symObjAddr: 0xB708, symBinAddr: 0x10000DB54, symSize: 0x44 }
  - { offsetInCU: 0x1E844, offset: 0x1E844, size: 0x8, addend: 0x0, symName: __ZNSt3__122__compressed_pair_elemINS_9allocatorImEELi1ELb1EEC2B8ue170006IS2_vEEOT_, symObjAddr: 0xB74C, symBinAddr: 0x10000DB98, symSize: 0x18 }
  - { offsetInCU: 0x1E8AA, offset: 0x1E8AA, size: 0x8, addend: 0x0, symName: __ZNKSt3__111__copy_loopINS_17_ClassicAlgPolicyEEclB8ue170006INS_14__bit_iteratorINS_6vectorIbNS_9allocatorIbEEEELb1ELm0EEES9_NS4_IS8_Lb0ELm0EEEEENS_4pairIT_T1_EESC_T0_SD_, symObjAddr: 0xBA30, symBinAddr: 0x10000DE7C, symSize: 0xC4 }
  - { offsetInCU: 0x1E936, offset: 0x1E936, size: 0x8, addend: 0x0, symName: __ZNSt3__14pairINS_14__bit_iteratorINS_6vectorIbNS_9allocatorIbEEEELb1ELm0EEES6_EC1B8ue170006IS6_S6_LPv0EEEOT_OT0_, symObjAddr: 0xBCC4, symBinAddr: 0x10000E110, symSize: 0x3C }
  - { offsetInCU: 0x1E994, offset: 0x1E994, size: 0x8, addend: 0x0, symName: __ZNSt3__14pairINS_14__bit_iteratorINS_6vectorIbNS_9allocatorIbEEEELb1ELm0EEES6_EC2B8ue170006IS6_S6_LPv0EEEOT_OT0_, symObjAddr: 0xBD00, symBinAddr: 0x10000E14C, symSize: 0x34 }
  - { offsetInCU: 0x1E9F2, offset: 0x1E9F2, size: 0x8, addend: 0x0, symName: __ZNSt3__118__unwrap_iter_implINS_14__bit_iteratorINS_6vectorIbNS_9allocatorIbEEEELb1ELm0EEELb0EE8__unwrapB8ue170006ES6_, symObjAddr: 0xBD34, symBinAddr: 0x10000E180, symSize: 0x24 }
  - { offsetInCU: 0x1EA15, offset: 0x1EA15, size: 0x8, addend: 0x0, symName: __ZNKSt3__114__bit_iteratorINS_6vectorIbNS_9allocatorIbEEEELb1ELm0EEdeB8ue170006Ev, symObjAddr: 0xBD8C, symBinAddr: 0x10000E1D8, symSize: 0x44 }
  - { offsetInCU: 0x1EA3B, offset: 0x1EA3B, size: 0x8, addend: 0x0, symName: __ZNKSt3__121__bit_const_referenceINS_6vectorIbNS_9allocatorIbEEEEEcvbB8ue170006Ev, symObjAddr: 0xBDD0, symBinAddr: 0x10000E21C, symSize: 0x2C }
  - { offsetInCU: 0x1EA61, offset: 0x1EA61, size: 0x8, addend: 0x0, symName: __ZNKSt3__114__bit_iteratorINS_6vectorIbNS_9allocatorIbEEEELb0ELm0EEdeB8ue170006Ev, symObjAddr: 0xBDFC, symBinAddr: 0x10000E248, symSize: 0x44 }
  - { offsetInCU: 0x1EA87, offset: 0x1EA87, size: 0x8, addend: 0x0, symName: __ZNSt3__114__bit_iteratorINS_6vectorIbNS_9allocatorIbEEEELb1ELm0EEppB8ue170006Ev, symObjAddr: 0xBE40, symBinAddr: 0x10000E28C, symSize: 0x5C }
  - { offsetInCU: 0x1EAAD, offset: 0x1EAAD, size: 0x8, addend: 0x0, symName: __ZNSt3__114__bit_iteratorINS_6vectorIbNS_9allocatorIbEEEELb0ELm0EEppB8ue170006Ev, symObjAddr: 0xBE9C, symBinAddr: 0x10000E2E8, symSize: 0x5C }
  - { offsetInCU: 0x1EAD3, offset: 0x1EAD3, size: 0x8, addend: 0x0, symName: __ZNSt3__121__bit_const_referenceINS_6vectorIbNS_9allocatorIbEEEEEC1B8ue170006EPKmm, symObjAddr: 0xBF5C, symBinAddr: 0x10000E3A8, symSize: 0x3C }
  - { offsetInCU: 0x1EB19, offset: 0x1EB19, size: 0x8, addend: 0x0, symName: __ZNSt3__121__bit_const_referenceINS_6vectorIbNS_9allocatorIbEEEEEC2B8ue170006EPKmm, symObjAddr: 0xBF98, symBinAddr: 0x10000E3E4, symSize: 0x2C }
  - { offsetInCU: 0x1EB5F, offset: 0x1EB5F, size: 0x8, addend: 0x0, symName: __ZNSt3__115__bit_referenceINS_6vectorIbNS_9allocatorIbEEEELb1EEC1B8ue170006EPmm, symObjAddr: 0xBFC4, symBinAddr: 0x10000E410, symSize: 0x3C }
  - { offsetInCU: 0x1EBA5, offset: 0x1EBA5, size: 0x8, addend: 0x0, symName: __ZNSt3__115__bit_referenceINS_6vectorIbNS_9allocatorIbEEEELb1EEC2B8ue170006EPmm, symObjAddr: 0xC000, symBinAddr: 0x10000E44C, symSize: 0x2C }
  - { offsetInCU: 0x1EBEB, offset: 0x1EBEB, size: 0x8, addend: 0x0, symName: __ZNSt3__118__unwrap_iter_implINS_14__bit_iteratorINS_6vectorIbNS_9allocatorIbEEEELb0ELm0EEELb0EE8__unwrapB8ue170006ES6_, symObjAddr: 0xC02C, symBinAddr: 0x10000E478, symSize: 0x38 }
  - { offsetInCU: 0x1EC15, offset: 0x1EC15, size: 0x8, addend: 0x0, symName: __ZNSt3__14pairINS_14__bit_iteratorINS_6vectorIbNS_9allocatorIbEEEELb1ELm0EEENS1_IS5_Lb0ELm0EEEEC1B8ue170006IS6_S7_LPv0EEEOT_OT0_, symObjAddr: 0xC064, symBinAddr: 0x10000E4B0, symSize: 0x3C }
  - { offsetInCU: 0x1EC73, offset: 0x1EC73, size: 0x8, addend: 0x0, symName: __ZNSt3__14pairINS_14__bit_iteratorINS_6vectorIbNS_9allocatorIbEEEELb1ELm0EEENS1_IS5_Lb0ELm0EEEEC2B8ue170006IS6_S7_LPv0EEEOT_OT0_, symObjAddr: 0xC0A0, symBinAddr: 0x10000E4EC, symSize: 0x48 }
  - { offsetInCU: 0x1ECD1, offset: 0x1ECD1, size: 0x8, addend: 0x0, symName: __ZNSt3__118__unwrap_iter_implINS_14__bit_iteratorINS_6vectorIbNS_9allocatorIbEEEELb1ELm0EEELb0EE8__rewrapB8ue170006ES6_S6_, symObjAddr: 0xC15C, symBinAddr: 0x10000E5A8, symSize: 0x2C }
  - { offsetInCU: 0x1ECFF, offset: 0x1ECFF, size: 0x8, addend: 0x0, symName: __ZNSt3__118__unwrap_iter_implINS_14__bit_iteratorINS_6vectorIbNS_9allocatorIbEEEELb0ELm0EEELb0EE8__rewrapB8ue170006ES6_S6_, symObjAddr: 0xC188, symBinAddr: 0x10000E5D4, symSize: 0x3C }
  - { offsetInCU: 0x1ED2F, offset: 0x1ED2F, size: 0x8, addend: 0x0, symName: __ZNKSt3__16vectorIbNS_9allocatorIbEEE11__make_iterB8ue170006Em, symObjAddr: 0xC1C4, symBinAddr: 0x10000E610, symSize: 0x5C }
  - { offsetInCU: 0x1ED64, offset: 0x1ED64, size: 0x8, addend: 0x0, symName: __ZNSt3__114__bit_iteratorINS_6vectorIbNS_9allocatorIbEEEELb1ELm0EEC1B8ue170006EPKmj, symObjAddr: 0xC220, symBinAddr: 0x10000E66C, symSize: 0x3C }
  - { offsetInCU: 0x1EDAC, offset: 0x1EDAC, size: 0x8, addend: 0x0, symName: __ZNSt3__114__bit_iteratorINS_6vectorIbNS_9allocatorIbEEEELb1ELm0EEC2B8ue170006EPKmj, symObjAddr: 0xC25C, symBinAddr: 0x10000E6A8, symSize: 0x2C }
  - { offsetInCU: 0x1EDF4, offset: 0x1EDF4, size: 0x8, addend: 0x0, symName: __ZNSt3__16vectorINS0_IbNS_9allocatorIbEEEENS1_IS3_EEE21_ConstructTransactionD2B8ue170006Ev, symObjAddr: 0xC288, symBinAddr: 0x10000E6D4, symSize: 0x20 }
  - { offsetInCU: 0x1EE1E, offset: 0x1EE1E, size: 0x8, addend: 0x0, symName: __ZNSt3__128__exception_guard_exceptionsINS_6vectorINS1_IbNS_9allocatorIbEEEENS2_IS4_EEE16__destroy_vectorEED2B8ue170006Ev, symObjAddr: 0xC2A8, symBinAddr: 0x10000E6F4, symSize: 0x50 }
  - { offsetInCU: 0x1EE48, offset: 0x1EE48, size: 0x8, addend: 0x0, symName: __ZNSt3__16vectorINS0_IbNS_9allocatorIbEEEENS1_IS3_EEE16__destroy_vectorclB8ue170006Ev, symObjAddr: 0xC2F8, symBinAddr: 0x10000E744, symSize: 0x90 }
  - { offsetInCU: 0x1EE6E, offset: 0x1EE6E, size: 0x8, addend: 0x0, symName: __ZNSt3__16vectorINS0_IbNS_9allocatorIbEEEENS1_IS3_EEE7__clearB8ue170006Ev, symObjAddr: 0xC388, symBinAddr: 0x10000E7D4, symSize: 0x28 }
  - { offsetInCU: 0x1EE94, offset: 0x1EE94, size: 0x8, addend: 0x0, symName: __ZNKSt3__16vectorINS0_IbNS_9allocatorIbEEEENS1_IS3_EEE17__annotate_deleteB8ue170006Ev, symObjAddr: 0xC3B0, symBinAddr: 0x10000E7FC, symSize: 0xD4 }
  - { offsetInCU: 0x1EEBA, offset: 0x1EEBA, size: 0x8, addend: 0x0, symName: __ZNSt3__116allocator_traitsINS_9allocatorINS_6vectorIbNS1_IbEEEEEEE10deallocateB8ue170006ERS5_PS4_m, symObjAddr: 0xC484, symBinAddr: 0x10000E8D0, symSize: 0x34 }
  - { offsetInCU: 0x1EEFC, offset: 0x1EEFC, size: 0x8, addend: 0x0, symName: __ZNSt3__16vectorINS0_IbNS_9allocatorIbEEEENS1_IS3_EEE22__base_destruct_at_endB8ue170006EPS3_, symObjAddr: 0xC4B8, symBinAddr: 0x10000E904, symSize: 0x8C }
  - { offsetInCU: 0x1EF40, offset: 0x1EF40, size: 0x8, addend: 0x0, symName: __ZNSt3__116allocator_traitsINS_9allocatorINS_6vectorIbNS1_IbEEEEEEE7destroyB8ue170006IS4_vEEvRS5_PT_, symObjAddr: 0xC544, symBinAddr: 0x10000E990, symSize: 0x2C }
  - { offsetInCU: 0x1EF7D, offset: 0x1EF7D, size: 0x8, addend: 0x0, symName: __ZNSt3__19allocatorINS_6vectorIbNS0_IbEEEEE7destroyB8ue170006EPS3_, symObjAddr: 0xC570, symBinAddr: 0x10000E9BC, symSize: 0x28 }
  - { offsetInCU: 0x1EFB1, offset: 0x1EFB1, size: 0x8, addend: 0x0, symName: __ZNKSt3__16vectorINS0_IbNS_9allocatorIbEEEENS1_IS3_EEE4sizeB8ue170006Ev, symObjAddr: 0xC598, symBinAddr: 0x10000E9E4, symSize: 0x28 }
  - { offsetInCU: 0x1EFD7, offset: 0x1EFD7, size: 0x8, addend: 0x0, symName: __ZNSt3__19allocatorINS_6vectorIbNS0_IbEEEEE10deallocateB8ue170006EPS3_m, symObjAddr: 0xC5C0, symBinAddr: 0x10000EA0C, symSize: 0x44 }
  - { offsetInCU: 0x1F019, offset: 0x1F019, size: 0x8, addend: 0x0, symName: __ZNSt3__16vectorINS0_IbNS_9allocatorIbEEEENS1_IS3_EEED2B8ue170006Ev, symObjAddr: 0xC604, symBinAddr: 0x10000EA50, symSize: 0x40 }
  - { offsetInCU: 0x1F043, offset: 0x1F043, size: 0x8, addend: 0x0, symName: __ZNKSt3__16vectorINS_5tupleIJiiiEEENS_9allocatorIS2_EEE11__make_iterB8ue170006EPKS2_, symObjAddr: 0xC644, symBinAddr: 0x10000EA90, symSize: 0x30 }
  - { offsetInCU: 0x1F078, offset: 0x1F078, size: 0x8, addend: 0x0, symName: __ZNSt3__111__wrap_iterIPKNS_5tupleIJiiiEEEEC1B8ue170006ES4_, symObjAddr: 0xC674, symBinAddr: 0x10000EAC0, symSize: 0x34 }
  - { offsetInCU: 0x1F0B0, offset: 0x1F0B0, size: 0x8, addend: 0x0, symName: __ZNSt3__111__wrap_iterIPKNS_5tupleIJiiiEEEEC2B8ue170006ES4_, symObjAddr: 0xC6A8, symBinAddr: 0x10000EAF4, symSize: 0x20 }
  - { offsetInCU: 0x1F0E8, offset: 0x1F0E8, size: 0x8, addend: 0x0, symName: __ZNKSt3__112__tuple_leafILm0EiLb0EE3getB8ue170006Ev, symObjAddr: 0xC878, symBinAddr: 0x10000ECC4, symSize: 0x14 }
  - { offsetInCU: 0x1F10E, offset: 0x1F10E, size: 0x8, addend: 0x0, symName: __ZNSt3__112__tuple_leafILm0ERiLb0EE3getB8ue170006Ev, symObjAddr: 0xC88C, symBinAddr: 0x10000ECD8, symSize: 0x18 }
  - { offsetInCU: 0x1F134, offset: 0x1F134, size: 0x8, addend: 0x0, symName: __ZNKSt3__112__tuple_leafILm1EiLb0EE3getB8ue170006Ev, symObjAddr: 0xC8A4, symBinAddr: 0x10000ECF0, symSize: 0x14 }
  - { offsetInCU: 0x1F15A, offset: 0x1F15A, size: 0x8, addend: 0x0, symName: __ZNSt3__112__tuple_leafILm1ERiLb0EE3getB8ue170006Ev, symObjAddr: 0xC8B8, symBinAddr: 0x10000ED04, symSize: 0x18 }
  - { offsetInCU: 0x1F180, offset: 0x1F180, size: 0x8, addend: 0x0, symName: __ZNKSt3__112__tuple_leafILm2EiLb0EE3getB8ue170006Ev, symObjAddr: 0xC8D0, symBinAddr: 0x10000ED1C, symSize: 0x14 }
  - { offsetInCU: 0x1F1A6, offset: 0x1F1A6, size: 0x8, addend: 0x0, symName: __ZNSt3__112__tuple_leafILm2ERiLb0EE3getB8ue170006Ev, symObjAddr: 0xC8E4, symBinAddr: 0x10000ED30, symSize: 0x18 }
  - { offsetInCU: 0x1F1CC, offset: 0x1F1CC, size: 0x8, addend: 0x0, symName: __ZNSt3__16vectorIbNS_9allocatorIbEEE10__make_refB8ue170006Em, symObjAddr: 0xC8FC, symBinAddr: 0x10000ED48, symSize: 0x60 }
  - { offsetInCU: 0x1F201, offset: 0x1F201, size: 0x8, addend: 0x0, symName: __ZNSt3__16vectorI5StateNS_9allocatorIS1_EEEC2B8ue170006Ev, symObjAddr: 0xC95C, symBinAddr: 0x10000EDA8, symSize: 0x4C }
  - { offsetInCU: 0x1F22B, offset: 0x1F22B, size: 0x8, addend: 0x0, symName: __ZNSt3__117__compressed_pairIP5StateNS_9allocatorIS1_EEEC1B8ue170006IDnNS_18__default_init_tagEEEOT_OT0_, symObjAddr: 0xC9A8, symBinAddr: 0x10000EDF4, symSize: 0x3C }
  - { offsetInCU: 0x1F283, offset: 0x1F283, size: 0x8, addend: 0x0, symName: __ZNSt3__117__compressed_pairIP5StateNS_9allocatorIS1_EEEC2B8ue170006IDnNS_18__default_init_tagEEEOT_OT0_, symObjAddr: 0xC9E4, symBinAddr: 0x10000EE30, symSize: 0x40 }
  - { offsetInCU: 0x1F2DB, offset: 0x1F2DB, size: 0x8, addend: 0x0, symName: __ZNSt3__122__compressed_pair_elemIP5StateLi0ELb0EEC2B8ue170006IDnvEEOT_, symObjAddr: 0xCA24, symBinAddr: 0x10000EE70, symSize: 0x1C }
  - { offsetInCU: 0x1F31D, offset: 0x1F31D, size: 0x8, addend: 0x0, symName: __ZNSt3__122__compressed_pair_elemINS_9allocatorI5StateEELi1ELb1EEC2B8ue170006ENS_18__default_init_tagE, symObjAddr: 0xCA40, symBinAddr: 0x10000EE8C, symSize: 0x2C }
  - { offsetInCU: 0x1F352, offset: 0x1F352, size: 0x8, addend: 0x0, symName: __ZNSt3__19allocatorI5StateEC2B8ue170006Ev, symObjAddr: 0xCA6C, symBinAddr: 0x10000EEB8, symSize: 0x2C }
  - { offsetInCU: 0x1F37C, offset: 0x1F37C, size: 0x8, addend: 0x0, symName: __ZNSt3__116__non_trivial_ifILb1ENS_9allocatorI5StateEEEC2B8ue170006Ev, symObjAddr: 0xCA98, symBinAddr: 0x10000EEE4, symSize: 0x14 }
  - { offsetInCU: 0x1F3A6, offset: 0x1F3A6, size: 0x8, addend: 0x0, symName: __ZNSt3__16vectorI5StateNS_9allocatorIS1_EEED2B8ue170006Ev, symObjAddr: 0xCAAC, symBinAddr: 0x10000EEF8, symSize: 0x44 }
  - { offsetInCU: 0x1F3D0, offset: 0x1F3D0, size: 0x8, addend: 0x0, symName: __ZNSt3__16vectorI5StateNS_9allocatorIS1_EEE16__destroy_vectorC1B8ue170006ERS4_, symObjAddr: 0xCAF0, symBinAddr: 0x10000EF3C, symSize: 0x34 }
  - { offsetInCU: 0x1F409, offset: 0x1F409, size: 0x8, addend: 0x0, symName: __ZNSt3__16vectorI5StateNS_9allocatorIS1_EEE16__destroy_vectorclB8ue170006Ev, symObjAddr: 0xCB24, symBinAddr: 0x10000EF70, symSize: 0x90 }
  - { offsetInCU: 0x1F42F, offset: 0x1F42F, size: 0x8, addend: 0x0, symName: __ZNSt3__16vectorI5StateNS_9allocatorIS1_EEE16__destroy_vectorC2B8ue170006ERS4_, symObjAddr: 0xCBB4, symBinAddr: 0x10000F000, symSize: 0x20 }
  - { offsetInCU: 0x1F468, offset: 0x1F468, size: 0x8, addend: 0x0, symName: __ZNSt3__16vectorI5StateNS_9allocatorIS1_EEE7__clearB8ue170006Ev, symObjAddr: 0xCBD4, symBinAddr: 0x10000F020, symSize: 0x28 }
  - { offsetInCU: 0x1F48E, offset: 0x1F48E, size: 0x8, addend: 0x0, symName: __ZNKSt3__16vectorI5StateNS_9allocatorIS1_EEE17__annotate_deleteB8ue170006Ev, symObjAddr: 0xCBFC, symBinAddr: 0x10000F048, symSize: 0xB8 }
  - { offsetInCU: 0x1F4B4, offset: 0x1F4B4, size: 0x8, addend: 0x0, symName: __ZNSt3__116allocator_traitsINS_9allocatorI5StateEEE10deallocateB8ue170006ERS3_PS2_m, symObjAddr: 0xCCB4, symBinAddr: 0x10000F100, symSize: 0x34 }
  - { offsetInCU: 0x1F4F6, offset: 0x1F4F6, size: 0x8, addend: 0x0, symName: __ZNSt3__16vectorI5StateNS_9allocatorIS1_EEE7__allocB8ue170006Ev, symObjAddr: 0xCCE8, symBinAddr: 0x10000F134, symSize: 0x28 }
  - { offsetInCU: 0x1F51C, offset: 0x1F51C, size: 0x8, addend: 0x0, symName: __ZNKSt3__16vectorI5StateNS_9allocatorIS1_EEE8capacityB8ue170006Ev, symObjAddr: 0xCD10, symBinAddr: 0x10000F15C, symSize: 0x40 }
  - { offsetInCU: 0x1F542, offset: 0x1F542, size: 0x8, addend: 0x0, symName: __ZNSt3__16vectorI5StateNS_9allocatorIS1_EEE22__base_destruct_at_endB8ue170006EPS1_, symObjAddr: 0xCD50, symBinAddr: 0x10000F19C, symSize: 0x8C }
  - { offsetInCU: 0x1F586, offset: 0x1F586, size: 0x8, addend: 0x0, symName: __ZNSt3__116allocator_traitsINS_9allocatorI5StateEEE7destroyB8ue170006IS2_vEEvRS3_PT_, symObjAddr: 0xCDDC, symBinAddr: 0x10000F228, symSize: 0x2C }
  - { offsetInCU: 0x1F5C3, offset: 0x1F5C3, size: 0x8, addend: 0x0, symName: __ZNSt3__19allocatorI5StateE7destroyB8ue170006EPS1_, symObjAddr: 0xCE1C, symBinAddr: 0x10000F268, symSize: 0x28 }
  - { offsetInCU: 0x1F5F7, offset: 0x1F5F7, size: 0x8, addend: 0x0, symName: __ZNKSt3__16vectorI5StateNS_9allocatorIS1_EEE31__annotate_contiguous_containerB8ue170006EPKvS6_S6_S6_, symObjAddr: 0xCE44, symBinAddr: 0x10000F290, symSize: 0x20 }
  - { offsetInCU: 0x1F649, offset: 0x1F649, size: 0x8, addend: 0x0, symName: __ZNKSt3__16vectorI5StateNS_9allocatorIS1_EEE4dataB8ue170006Ev, symObjAddr: 0xCE64, symBinAddr: 0x10000F2B0, symSize: 0x28 }
  - { offsetInCU: 0x1F66F, offset: 0x1F66F, size: 0x8, addend: 0x0, symName: __ZNKSt3__16vectorI5StateNS_9allocatorIS1_EEE4sizeB8ue170006Ev, symObjAddr: 0xCE8C, symBinAddr: 0x10000F2D8, symSize: 0x28 }
  - { offsetInCU: 0x1F695, offset: 0x1F695, size: 0x8, addend: 0x0, symName: __ZNSt3__19allocatorI5StateE10deallocateB8ue170006EPS1_m, symObjAddr: 0xCEB4, symBinAddr: 0x10000F300, symSize: 0x40 }
  - { offsetInCU: 0x1F6D7, offset: 0x1F6D7, size: 0x8, addend: 0x0, symName: __ZNSt3__117__compressed_pairIP5StateNS_9allocatorIS1_EEE6secondB8ue170006Ev, symObjAddr: 0xCEF4, symBinAddr: 0x10000F340, symSize: 0x24 }
  - { offsetInCU: 0x1F6FD, offset: 0x1F6FD, size: 0x8, addend: 0x0, symName: __ZNSt3__122__compressed_pair_elemINS_9allocatorI5StateEELi1ELb1EE5__getB8ue170006Ev, symObjAddr: 0xCF18, symBinAddr: 0x10000F364, symSize: 0x14 }
  - { offsetInCU: 0x1F723, offset: 0x1F723, size: 0x8, addend: 0x0, symName: __ZNKSt3__16vectorI5StateNS_9allocatorIS1_EEE9__end_capB8ue170006Ev, symObjAddr: 0xCF2C, symBinAddr: 0x10000F378, symSize: 0x28 }
  - { offsetInCU: 0x1F749, offset: 0x1F749, size: 0x8, addend: 0x0, symName: __ZNKSt3__117__compressed_pairIP5StateNS_9allocatorIS1_EEE5firstB8ue170006Ev, symObjAddr: 0xCF54, symBinAddr: 0x10000F3A0, symSize: 0x24 }
  - { offsetInCU: 0x1F76F, offset: 0x1F76F, size: 0x8, addend: 0x0, symName: __ZNKSt3__122__compressed_pair_elemIP5StateLi0ELb0EE5__getB8ue170006Ev, symObjAddr: 0xCF78, symBinAddr: 0x10000F3C4, symSize: 0x14 }
  - { offsetInCU: 0x1F795, offset: 0x1F795, size: 0x8, addend: 0x0, symName: __ZNSt3__16vectorIiNS_9allocatorIiEEEC2B8ue170006ESt16initializer_listIiE, symObjAddr: 0xCF8C, symBinAddr: 0x10000F3D8, symSize: 0x120 }
  - { offsetInCU: 0x1F7E5, offset: 0x1F7E5, size: 0x8, addend: 0x0, symName: __ZNSt3__117__compressed_pairIPiNS_9allocatorIiEEEC1B8ue170006IDnNS_18__default_init_tagEEEOT_OT0_, symObjAddr: 0xD0AC, symBinAddr: 0x10000F4F8, symSize: 0x3C }
  - { offsetInCU: 0x1F83D, offset: 0x1F83D, size: 0x8, addend: 0x0, symName: __ZNKSt16initializer_listIiE4sizeB8ue170006Ev, symObjAddr: 0xD0E8, symBinAddr: 0x10000F534, symSize: 0x18 }
  - { offsetInCU: 0x1F863, offset: 0x1F863, size: 0x8, addend: 0x0, symName: __ZNSt3__16vectorIiNS_9allocatorIiEEE18__construct_at_endIPKiS6_EEvT_T0_m, symObjAddr: 0xD100, symBinAddr: 0x10000F54C, symSize: 0x8C }
  - { offsetInCU: 0x1F8D9, offset: 0x1F8D9, size: 0x8, addend: 0x0, symName: __ZNKSt16initializer_listIiE5beginB8ue170006Ev, symObjAddr: 0xD18C, symBinAddr: 0x10000F5D8, symSize: 0x18 }
  - { offsetInCU: 0x1F8FF, offset: 0x1F8FF, size: 0x8, addend: 0x0, symName: __ZNKSt16initializer_listIiE3endB8ue170006Ev, symObjAddr: 0xD1A4, symBinAddr: 0x10000F5F0, symSize: 0x20 }
  - { offsetInCU: 0x1F925, offset: 0x1F925, size: 0x8, addend: 0x0, symName: __ZNSt3__117__compressed_pairIPiNS_9allocatorIiEEEC2B8ue170006IDnNS_18__default_init_tagEEEOT_OT0_, symObjAddr: 0xD1C4, symBinAddr: 0x10000F610, symSize: 0x40 }
  - { offsetInCU: 0x1F97D, offset: 0x1F97D, size: 0x8, addend: 0x0, symName: __ZNSt3__122__compressed_pair_elemINS_9allocatorIiEELi1ELb1EEC2B8ue170006ENS_18__default_init_tagE, symObjAddr: 0xD204, symBinAddr: 0x10000F650, symSize: 0x2C }
  - { offsetInCU: 0x1F9B2, offset: 0x1F9B2, size: 0x8, addend: 0x0, symName: __ZNSt3__19allocatorIiEC2B8ue170006Ev, symObjAddr: 0xD230, symBinAddr: 0x10000F67C, symSize: 0x2C }
  - { offsetInCU: 0x1F9DC, offset: 0x1F9DC, size: 0x8, addend: 0x0, symName: __ZNSt3__116__non_trivial_ifILb1ENS_9allocatorIiEEEC2B8ue170006Ev, symObjAddr: 0xD25C, symBinAddr: 0x10000F6A8, symSize: 0x14 }
  - { offsetInCU: 0x1FA26, offset: 0x1FA26, size: 0x8, addend: 0x0, symName: __ZNSt3__14pairIPKiS2_EC1B8ue170006IS2_S2_LPv0EEEOT_OT0_, symObjAddr: 0xD3E4, symBinAddr: 0x10000F830, symSize: 0x3C }
  - { offsetInCU: 0x1FA84, offset: 0x1FA84, size: 0x8, addend: 0x0, symName: __ZNSt3__14pairIPKiS2_EC2B8ue170006IS2_S2_LPv0EEEOT_OT0_, symObjAddr: 0xD420, symBinAddr: 0x10000F86C, symSize: 0x34 }
  - { offsetInCU: 0x1FAE2, offset: 0x1FAE2, size: 0x8, addend: 0x0, symName: __ZNSt3__118__unwrap_iter_implIPKiLb1EE8__unwrapB8ue170006ES2_, symObjAddr: 0xD454, symBinAddr: 0x10000F8A0, symSize: 0x24 }
  - { offsetInCU: 0x1FB1F, offset: 0x1FB1F, size: 0x8, addend: 0x0, symName: __ZNKSt3__114__copy_trivialclB8ue170006IKiiLi0EEENS_4pairIPT_PT0_EES5_S5_S7_, symObjAddr: 0xD608, symBinAddr: 0x10000FA54, symSize: 0x48 }
  - { offsetInCU: 0x1FB8C, offset: 0x1FB8C, size: 0x8, addend: 0x0, symName: __ZNSt3__14pairIPKiPiEC1B8ue170006IRS2_S3_LPv0EEEOT_OT0_, symObjAddr: 0xD7D0, symBinAddr: 0x10000FC1C, symSize: 0x3C }
  - { offsetInCU: 0x1FBEA, offset: 0x1FBEA, size: 0x8, addend: 0x0, symName: __ZNSt3__14pairIPKiPiEC2B8ue170006IRS2_S3_LPv0EEEOT_OT0_, symObjAddr: 0xD80C, symBinAddr: 0x10000FC58, symSize: 0x34 }
  - { offsetInCU: 0x1FC48, offset: 0x1FC48, size: 0x8, addend: 0x0, symName: __ZNSt3__14pairIPKiPiEC1B8ue170006IS2_S3_LPv0EEEOT_OT0_, symObjAddr: 0xD840, symBinAddr: 0x10000FC8C, symSize: 0x3C }
  - { offsetInCU: 0x1FCA6, offset: 0x1FCA6, size: 0x8, addend: 0x0, symName: __ZNSt3__14pairIPKiPiEC2B8ue170006IS2_S3_LPv0EEEOT_OT0_, symObjAddr: 0xD87C, symBinAddr: 0x10000FCC8, symSize: 0x34 }
  - { offsetInCU: 0x1FD04, offset: 0x1FD04, size: 0x8, addend: 0x0, symName: __ZNSt3__118__unwrap_iter_implIPKiLb1EE8__rewrapB8ue170006ES2_S2_, symObjAddr: 0xD8EC, symBinAddr: 0x10000FD38, symSize: 0x50 }
  - { offsetInCU: 0x1FD35, offset: 0x1FD35, size: 0x8, addend: 0x0, symName: __ZNSt3__16vectorIiNS_9allocatorIiEEED2B8ue170006Ev, symObjAddr: 0xD93C, symBinAddr: 0x10000FD88, symSize: 0x40 }
  - { offsetInCU: 0x1FD5F, offset: 0x1FD5F, size: 0x8, addend: 0x0, symName: __ZNSt3__16vectorIiNS_9allocatorIiEEE11__make_iterB8ue170006EPi, symObjAddr: 0xD97C, symBinAddr: 0x10000FDC8, symSize: 0x30 }
  - { offsetInCU: 0x1FD94, offset: 0x1FD94, size: 0x8, addend: 0x0, symName: __ZNSt3__111__wrap_iterIPiEC1B8ue170006ES1_, symObjAddr: 0xD9AC, symBinAddr: 0x10000FDF8, symSize: 0x34 }
  - { offsetInCU: 0x1FDCC, offset: 0x1FDCC, size: 0x8, addend: 0x0, symName: __ZNSt3__111__wrap_iterIPiEC2B8ue170006ES1_, symObjAddr: 0xD9E0, symBinAddr: 0x10000FE2C, symSize: 0x20 }
  - { offsetInCU: 0x1FE04, offset: 0x1FE04, size: 0x8, addend: 0x0, symName: __ZNSt3__16vectorINS_5tupleIJiiiEEENS_9allocatorIS2_EEE22__construct_one_at_endB8ue170006IJRmS7_RiEEEvDpOT_, symObjAddr: 0xDA00, symBinAddr: 0x10000FE4C, symSize: 0xA0 }
  - { offsetInCU: 0x1FE7B, offset: 0x1FE7B, size: 0x8, addend: 0x0, symName: __ZNSt3__16vectorINS_5tupleIJiiiEEENS_9allocatorIS2_EEE24__emplace_back_slow_pathIJRmS7_RiEEEvDpOT_, symObjAddr: 0xDAA0, symBinAddr: 0x10000FEEC, symSize: 0xE8 }
  - { offsetInCU: 0x1FF03, offset: 0x1FF03, size: 0x8, addend: 0x0, symName: __ZNSt3__16vectorINS_5tupleIJiiiEEENS_9allocatorIS2_EEE4backB8ue170006Ev, symObjAddr: 0xDB88, symBinAddr: 0x10000FFD4, symSize: 0x1C }
  - { offsetInCU: 0x1FF29, offset: 0x1FF29, size: 0x8, addend: 0x0, symName: __ZNSt3__116allocator_traitsINS_9allocatorINS_5tupleIJiiiEEEEEE9constructB8ue170006IS3_JRmS7_RiEvEEvRS4_PT_DpOT0_, symObjAddr: 0xDBA4, symBinAddr: 0x10000FFF0, symSize: 0x44 }
  - { offsetInCU: 0x1FFA8, offset: 0x1FFA8, size: 0x8, addend: 0x0, symName: __ZNSt3__19allocatorINS_5tupleIJiiiEEEE9constructB8ue170006IS2_JRmS5_RiEEEvPT_DpOT0_, symObjAddr: 0xDBE8, symBinAddr: 0x100010034, symSize: 0x40 }
  - { offsetInCU: 0x20024, offset: 0x20024, size: 0x8, addend: 0x0, symName: __ZNSt3__15tupleIJiiiEEC1B8ue170006IJRmS3_RiELi0EEEDpOT_, symObjAddr: 0xDC28, symBinAddr: 0x100010074, symSize: 0x44 }
  - { offsetInCU: 0x20096, offset: 0x20096, size: 0x8, addend: 0x0, symName: __ZNSt3__15tupleIJiiiEEC2B8ue170006IJRmS3_RiELi0EEEDpOT_, symObjAddr: 0xDC6C, symBinAddr: 0x1000100B8, symSize: 0x44 }
  - { offsetInCU: 0x20108, offset: 0x20108, size: 0x8, addend: 0x0, symName: __ZNSt3__112__tuple_implINS_15__tuple_indicesIJLm0ELm1ELm2EEEEJiiiEEC1B8ue170006IJLm0ELm1ELm2EEJiiiEJEJEJRmS5_RiEEENS1_IJXspT_EEEENS_13__tuple_typesIJDpT0_EEENS1_IJXspT1_EEEENS8_IJDpT2_EEEDpOT3_, symObjAddr: 0xDCB0, symBinAddr: 0x1000100FC, symSize: 0x44 }
  - { offsetInCU: 0x201D7, offset: 0x201D7, size: 0x8, addend: 0x0, symName: __ZNSt3__112__tuple_implINS_15__tuple_indicesIJLm0ELm1ELm2EEEEJiiiEEC2B8ue170006IJLm0ELm1ELm2EEJiiiEJEJEJRmS5_RiEEENS1_IJXspT_EEEENS_13__tuple_typesIJDpT0_EEENS1_IJXspT1_EEEENS8_IJDpT2_EEEDpOT3_, symObjAddr: 0xDCF4, symBinAddr: 0x100010140, symSize: 0x5C }
  - { offsetInCU: 0x202A6, offset: 0x202A6, size: 0x8, addend: 0x0, symName: __ZNSt3__112__tuple_leafILm0EiLb0EEC2B8ue170006IRmvEEOT_, symObjAddr: 0xDD50, symBinAddr: 0x10001019C, symSize: 0x24 }
  - { offsetInCU: 0x202E9, offset: 0x202E9, size: 0x8, addend: 0x0, symName: __ZNSt3__112__tuple_leafILm1EiLb0EEC2B8ue170006IRmvEEOT_, symObjAddr: 0xDD74, symBinAddr: 0x1000101C0, symSize: 0x24 }
  - { offsetInCU: 0x2032C, offset: 0x2032C, size: 0x8, addend: 0x0, symName: __ZNSt3__112__tuple_leafILm2EiLb0EEC2B8ue170006IRivEEOT_, symObjAddr: 0xDD98, symBinAddr: 0x1000101E4, symSize: 0x24 }
  - { offsetInCU: 0x2036F, offset: 0x2036F, size: 0x8, addend: 0x0, symName: __ZNKSt3__16vectorINS_5tupleIJiiiEEENS_9allocatorIS2_EEE11__recommendB8ue170006Em, symObjAddr: 0xDDBC, symBinAddr: 0x100010208, symSize: 0xB4 }
  - { offsetInCU: 0x203C4, offset: 0x203C4, size: 0x8, addend: 0x0, symName: __ZNSt3__114__split_bufferINS_5tupleIJiiiEEERNS_9allocatorIS2_EEEC1EmmS5_, symObjAddr: 0xDE70, symBinAddr: 0x1000102BC, symSize: 0x44 }
  - { offsetInCU: 0x2041A, offset: 0x2041A, size: 0x8, addend: 0x0, symName: __ZNSt3__114__split_bufferINS_5tupleIJiiiEEERNS_9allocatorIS2_EEED1Ev, symObjAddr: 0xDFC4, symBinAddr: 0x100010410, symSize: 0x2C }
  - { offsetInCU: 0x20446, offset: 0x20446, size: 0x8, addend: 0x0, symName: __ZNSt3__114__split_bufferINS_5tupleIJiiiEEERNS_9allocatorIS2_EEEC2EmmS5_, symObjAddr: 0xE070, symBinAddr: 0x1000104BC, symSize: 0xE0 }
  - { offsetInCU: 0x204B9, offset: 0x204B9, size: 0x8, addend: 0x0, symName: __ZNSt3__117__compressed_pairIPNS_5tupleIJiiiEEERNS_9allocatorIS2_EEEC1B8ue170006IDnS6_EEOT_OT0_, symObjAddr: 0xE150, symBinAddr: 0x10001059C, symSize: 0x3C }
  - { offsetInCU: 0x20511, offset: 0x20511, size: 0x8, addend: 0x0, symName: __ZNSt3__114__split_bufferINS_5tupleIJiiiEEERNS_9allocatorIS2_EEE7__allocB8ue170006Ev, symObjAddr: 0xE18C, symBinAddr: 0x1000105D8, symSize: 0x28 }
  - { offsetInCU: 0x20537, offset: 0x20537, size: 0x8, addend: 0x0, symName: __ZNSt3__114__split_bufferINS_5tupleIJiiiEEERNS_9allocatorIS2_EEE9__end_capB8ue170006Ev, symObjAddr: 0xE1B4, symBinAddr: 0x100010600, symSize: 0x28 }
  - { offsetInCU: 0x2055D, offset: 0x2055D, size: 0x8, addend: 0x0, symName: __ZNSt3__117__compressed_pairIPNS_5tupleIJiiiEEERNS_9allocatorIS2_EEEC2B8ue170006IDnS6_EEOT_OT0_, symObjAddr: 0xE1DC, symBinAddr: 0x100010628, symSize: 0x48 }
  - { offsetInCU: 0x205B5, offset: 0x205B5, size: 0x8, addend: 0x0, symName: __ZNSt3__122__compressed_pair_elemIRNS_9allocatorINS_5tupleIJiiiEEEEELi1ELb0EEC2B8ue170006IS5_vEEOT_, symObjAddr: 0xE224, symBinAddr: 0x100010670, symSize: 0x20 }
  - { offsetInCU: 0x205F7, offset: 0x205F7, size: 0x8, addend: 0x0, symName: __ZNSt3__117__compressed_pairIPNS_5tupleIJiiiEEERNS_9allocatorIS2_EEE6secondB8ue170006Ev, symObjAddr: 0xE244, symBinAddr: 0x100010690, symSize: 0x28 }
  - { offsetInCU: 0x2061D, offset: 0x2061D, size: 0x8, addend: 0x0, symName: __ZNSt3__122__compressed_pair_elemIRNS_9allocatorINS_5tupleIJiiiEEEEELi1ELb0EE5__getB8ue170006Ev, symObjAddr: 0xE26C, symBinAddr: 0x1000106B8, symSize: 0x18 }
  - { offsetInCU: 0x20643, offset: 0x20643, size: 0x8, addend: 0x0, symName: __ZNSt3__117__compressed_pairIPNS_5tupleIJiiiEEERNS_9allocatorIS2_EEE5firstB8ue170006Ev, symObjAddr: 0xE284, symBinAddr: 0x1000106D0, symSize: 0x24 }
  - { offsetInCU: 0x20669, offset: 0x20669, size: 0x8, addend: 0x0, symName: __ZNSt3__129_AllocatorDestroyRangeReverseINS_9allocatorINS_5tupleIJiiiEEEEENS_16reverse_iteratorIPS3_EEEC1B8ue170006ERS4_RS7_SA_, symObjAddr: 0xE44C, symBinAddr: 0x100010898, symSize: 0x44 }
  - { offsetInCU: 0x206C0, offset: 0x206C0, size: 0x8, addend: 0x0, symName: __ZNSt3__116allocator_traitsINS_9allocatorINS_5tupleIJiiiEEEEEE9constructB8ue170006IS3_JS3_EvEEvRS4_PT_DpOT0_, symObjAddr: 0xE490, symBinAddr: 0x1000108DC, symSize: 0x34 }
  - { offsetInCU: 0x20717, offset: 0x20717, size: 0x8, addend: 0x0, symName: __ZNSt3__128__exception_guard_exceptionsINS_29_AllocatorDestroyRangeReverseINS_9allocatorINS_5tupleIJiiiEEEEENS_16reverse_iteratorIPS4_EEEEE10__completeB8ue170006Ev, symObjAddr: 0xE4C4, symBinAddr: 0x100010910, symSize: 0x1C }
  - { offsetInCU: 0x2073D, offset: 0x2073D, size: 0x8, addend: 0x0, symName: __ZNSt3__128__exception_guard_exceptionsINS_29_AllocatorDestroyRangeReverseINS_9allocatorINS_5tupleIJiiiEEEEENS_16reverse_iteratorIPS4_EEEEED1B8ue170006Ev, symObjAddr: 0xE4E0, symBinAddr: 0x10001092C, symSize: 0x2C }
  - { offsetInCU: 0x20767, offset: 0x20767, size: 0x8, addend: 0x0, symName: __ZNSt3__128__exception_guard_exceptionsINS_29_AllocatorDestroyRangeReverseINS_9allocatorINS_5tupleIJiiiEEEEENS_16reverse_iteratorIPS4_EEEEEC1B8ue170006ES9_, symObjAddr: 0xE50C, symBinAddr: 0x100010958, symSize: 0x34 }
  - { offsetInCU: 0x207A0, offset: 0x207A0, size: 0x8, addend: 0x0, symName: __ZNSt3__128__exception_guard_exceptionsINS_29_AllocatorDestroyRangeReverseINS_9allocatorINS_5tupleIJiiiEEEEENS_16reverse_iteratorIPS4_EEEEEC2B8ue170006ES9_, symObjAddr: 0xE540, symBinAddr: 0x10001098C, symSize: 0x30 }
  - { offsetInCU: 0x207D9, offset: 0x207D9, size: 0x8, addend: 0x0, symName: __ZNSt3__129_AllocatorDestroyRangeReverseINS_9allocatorINS_5tupleIJiiiEEEEENS_16reverse_iteratorIPS3_EEEC2B8ue170006ERS4_RS7_SA_, symObjAddr: 0xE570, symBinAddr: 0x1000109BC, symSize: 0x38 }
  - { offsetInCU: 0x20830, offset: 0x20830, size: 0x8, addend: 0x0, symName: __ZNSt3__19allocatorINS_5tupleIJiiiEEEE9constructB8ue170006IS2_JS2_EEEvPT_DpOT0_, symObjAddr: 0xE5A8, symBinAddr: 0x1000109F4, symSize: 0x30 }
  - { offsetInCU: 0x20886, offset: 0x20886, size: 0x8, addend: 0x0, symName: __ZNSt3__128__exception_guard_exceptionsINS_29_AllocatorDestroyRangeReverseINS_9allocatorINS_5tupleIJiiiEEEEENS_16reverse_iteratorIPS4_EEEEED2B8ue170006Ev, symObjAddr: 0xE5D8, symBinAddr: 0x100010A24, symSize: 0x50 }
  - { offsetInCU: 0x208B0, offset: 0x208B0, size: 0x8, addend: 0x0, symName: __ZNKSt3__129_AllocatorDestroyRangeReverseINS_9allocatorINS_5tupleIJiiiEEEEENS_16reverse_iteratorIPS3_EEEclB8ue170006Ev, symObjAddr: 0xE628, symBinAddr: 0x100010A74, symSize: 0xB4 }
  - { offsetInCU: 0x208D7, offset: 0x208D7, size: 0x8, addend: 0x0, symName: __ZNSt3__116reverse_iteratorINS0_IPNS_5tupleIJiiiEEEEEEC1B8ue170006ES4_, symObjAddr: 0xE74C, symBinAddr: 0x100010B98, symSize: 0x3C }
  - { offsetInCU: 0x2090F, offset: 0x2090F, size: 0x8, addend: 0x0, symName: __ZNSt3__116reverse_iteratorINS0_IPNS_5tupleIJiiiEEEEEEppB8ue170006Ev, symObjAddr: 0xE80C, symBinAddr: 0x100010C58, symSize: 0x30 }
  - { offsetInCU: 0x20935, offset: 0x20935, size: 0x8, addend: 0x0, symName: __ZNKSt3__116reverse_iteratorINS0_IPNS_5tupleIJiiiEEEEEE4baseB8ue170006Ev, symObjAddr: 0xE83C, symBinAddr: 0x100010C88, symSize: 0x24 }
  - { offsetInCU: 0x20960, offset: 0x20960, size: 0x8, addend: 0x0, symName: __ZNSt3__119__to_address_helperINS_16reverse_iteratorINS1_IPNS_5tupleIJiiiEEEEEEEvE6__callB8ue170006ERKS6_, symObjAddr: 0xE860, symBinAddr: 0x100010CAC, symSize: 0x38 }
  - { offsetInCU: 0x20983, offset: 0x20983, size: 0x8, addend: 0x0, symName: __ZNKSt3__116reverse_iteratorINS0_IPNS_5tupleIJiiiEEEEEEptB8ue170006Ev, symObjAddr: 0xE898, symBinAddr: 0x100010CE4, symSize: 0x24 }
  - { offsetInCU: 0x209A9, offset: 0x209A9, size: 0x8, addend: 0x0, symName: __ZNKSt3__116reverse_iteratorINS0_IPNS_5tupleIJiiiEEEEEEdeB8ue170006Ev, symObjAddr: 0xE8BC, symBinAddr: 0x100010D08, symSize: 0x34 }
  - { offsetInCU: 0x209DD, offset: 0x209DD, size: 0x8, addend: 0x0, symName: __ZNSt3__116reverse_iteratorIPNS_5tupleIJiiiEEEEmmB8ue170006Ev, symObjAddr: 0xE8F0, symBinAddr: 0x100010D3C, symSize: 0x20 }
  - { offsetInCU: 0x20A03, offset: 0x20A03, size: 0x8, addend: 0x0, symName: __ZNSt3__116reverse_iteratorINS0_IPNS_5tupleIJiiiEEEEEEC2B8ue170006ES4_, symObjAddr: 0xE910, symBinAddr: 0x100010D5C, symSize: 0x2C }
  - { offsetInCU: 0x20A3B, offset: 0x20A3B, size: 0x8, addend: 0x0, symName: __ZNSt3__114__split_bufferINS_5tupleIJiiiEEERNS_9allocatorIS2_EEED2Ev, symObjAddr: 0xE93C, symBinAddr: 0x100010D88, symSize: 0x8C }
  - { offsetInCU: 0x20A67, offset: 0x20A67, size: 0x8, addend: 0x0, symName: __ZNSt3__114__split_bufferINS_5tupleIJiiiEEERNS_9allocatorIS2_EEE5clearB8ue170006Ev, symObjAddr: 0xE9C8, symBinAddr: 0x100010E14, symSize: 0x28 }
  - { offsetInCU: 0x20A8D, offset: 0x20A8D, size: 0x8, addend: 0x0, symName: __ZNKSt3__114__split_bufferINS_5tupleIJiiiEEERNS_9allocatorIS2_EEE8capacityB8ue170006Ev, symObjAddr: 0xE9F0, symBinAddr: 0x100010E3C, symSize: 0x40 }
  - { offsetInCU: 0x20AB3, offset: 0x20AB3, size: 0x8, addend: 0x0, symName: __ZNSt3__114__split_bufferINS_5tupleIJiiiEEERNS_9allocatorIS2_EEE17__destruct_at_endB8ue170006EPS2_, symObjAddr: 0xEA30, symBinAddr: 0x100010E7C, symSize: 0x2C }
  - { offsetInCU: 0x20AE7, offset: 0x20AE7, size: 0x8, addend: 0x0, symName: __ZNSt3__114__split_bufferINS_5tupleIJiiiEEERNS_9allocatorIS2_EEE17__destruct_at_endB8ue170006EPS2_NS_17integral_constantIbLb0EEE, symObjAddr: 0xEA5C, symBinAddr: 0x100010EA8, symSize: 0x80 }
  - { offsetInCU: 0x20B28, offset: 0x20B28, size: 0x8, addend: 0x0, symName: __ZNKSt3__114__split_bufferINS_5tupleIJiiiEEERNS_9allocatorIS2_EEE9__end_capB8ue170006Ev, symObjAddr: 0xEADC, symBinAddr: 0x100010F28, symSize: 0x28 }
  - { offsetInCU: 0x20B4E, offset: 0x20B4E, size: 0x8, addend: 0x0, symName: __ZNKSt3__117__compressed_pairIPNS_5tupleIJiiiEEERNS_9allocatorIS2_EEE5firstB8ue170006Ev, symObjAddr: 0xEB04, symBinAddr: 0x100010F50, symSize: 0x24 }
  - { offsetInCU: 0x20B74, offset: 0x20B74, size: 0x8, addend: 0x0, symName: __ZNSt3__16vectorI5StateNS_9allocatorIS1_EEE9__end_capB8ue170006Ev, symObjAddr: 0xEB28, symBinAddr: 0x100010F74, symSize: 0x28 }
  - { offsetInCU: 0x20B9A, offset: 0x20B9A, size: 0x8, addend: 0x0, symName: __ZNSt3__16vectorI5StateNS_9allocatorIS1_EEE22__construct_one_at_endB8ue170006IJRKS1_EEEvDpOT_, symObjAddr: 0xEB50, symBinAddr: 0x100010F9C, symSize: 0x90 }
  - { offsetInCU: 0x20BE9, offset: 0x20BE9, size: 0x8, addend: 0x0, symName: __ZNSt3__16vectorI5StateNS_9allocatorIS1_EEE21__push_back_slow_pathIRKS1_EEvOT_, symObjAddr: 0xEBE0, symBinAddr: 0x10001102C, symSize: 0xD8 }
  - { offsetInCU: 0x20C47, offset: 0x20C47, size: 0x8, addend: 0x0, symName: __ZNSt3__117__compressed_pairIP5StateNS_9allocatorIS1_EEE5firstB8ue170006Ev, symObjAddr: 0xECB8, symBinAddr: 0x100011104, symSize: 0x24 }
  - { offsetInCU: 0x20C6D, offset: 0x20C6D, size: 0x8, addend: 0x0, symName: __ZNSt3__122__compressed_pair_elemIP5StateLi0ELb0EE5__getB8ue170006Ev, symObjAddr: 0xECDC, symBinAddr: 0x100011128, symSize: 0x14 }
  - { offsetInCU: 0x20CAC, offset: 0x20CAC, size: 0x8, addend: 0x0, symName: __ZNSt3__16vectorI5StateNS_9allocatorIS1_EEE21_ConstructTransactionC1B8ue170006ERS4_m, symObjAddr: 0xECF0, symBinAddr: 0x10001113C, symSize: 0x3C }
  - { offsetInCU: 0x20CF4, offset: 0x20CF4, size: 0x8, addend: 0x0, symName: __ZNSt3__116allocator_traitsINS_9allocatorI5StateEEE9constructB8ue170006IS2_JRKS2_EvEEvRS3_PT_DpOT0_, symObjAddr: 0xED2C, symBinAddr: 0x100011178, symSize: 0x34 }
  - { offsetInCU: 0x20D4B, offset: 0x20D4B, size: 0x8, addend: 0x0, symName: __ZNSt3__16vectorI5StateNS_9allocatorIS1_EEE21_ConstructTransactionD1B8ue170006Ev, symObjAddr: 0xED60, symBinAddr: 0x1000111AC, symSize: 0x2C }
  - { offsetInCU: 0x20D75, offset: 0x20D75, size: 0x8, addend: 0x0, symName: __ZNSt3__16vectorI5StateNS_9allocatorIS1_EEE21_ConstructTransactionC2B8ue170006ERS4_m, symObjAddr: 0xED8C, symBinAddr: 0x1000111D8, symSize: 0x44 }
  - { offsetInCU: 0x20DBD, offset: 0x20DBD, size: 0x8, addend: 0x0, symName: __ZNSt3__19allocatorI5StateE9constructB8ue170006IS1_JRKS1_EEEvPT_DpOT0_, symObjAddr: 0xEDD0, symBinAddr: 0x10001121C, symSize: 0x30 }
  - { offsetInCU: 0x20E13, offset: 0x20E13, size: 0x8, addend: 0x0, symName: __ZNSt3__16vectorI5StateNS_9allocatorIS1_EEE21_ConstructTransactionD2B8ue170006Ev, symObjAddr: 0xEE00, symBinAddr: 0x10001124C, symSize: 0x20 }
  - { offsetInCU: 0x20E3D, offset: 0x20E3D, size: 0x8, addend: 0x0, symName: __ZNKSt3__16vectorI5StateNS_9allocatorIS1_EEE11__recommendB8ue170006Em, symObjAddr: 0xEE20, symBinAddr: 0x10001126C, symSize: 0xB4 }
  - { offsetInCU: 0x20E92, offset: 0x20E92, size: 0x8, addend: 0x0, symName: __ZNSt3__114__split_bufferI5StateRNS_9allocatorIS1_EEEC1EmmS4_, symObjAddr: 0xEED4, symBinAddr: 0x100011320, symSize: 0x44 }
  - { offsetInCU: 0x20EE8, offset: 0x20EE8, size: 0x8, addend: 0x0, symName: __ZNSt3__114__split_bufferI5StateRNS_9allocatorIS1_EEED1Ev, symObjAddr: 0xF028, symBinAddr: 0x100011474, symSize: 0x2C }
  - { offsetInCU: 0x20F14, offset: 0x20F14, size: 0x8, addend: 0x0, symName: __ZNKSt3__16vectorI5StateNS_9allocatorIS1_EEE8max_sizeEv, symObjAddr: 0xF054, symBinAddr: 0x1000114A0, symSize: 0x60 }
  - { offsetInCU: 0x20F3C, offset: 0x20F3C, size: 0x8, addend: 0x0, symName: __ZNKSt3__16vectorI5StateNS_9allocatorIS1_EEE20__throw_length_errorB8ue170006Ev, symObjAddr: 0xF0B4, symBinAddr: 0x100011500, symSize: 0x1C }
  - { offsetInCU: 0x20F6C, offset: 0x20F6C, size: 0x8, addend: 0x0, symName: __ZNSt3__116allocator_traitsINS_9allocatorI5StateEEE8max_sizeB8ue170006IS3_vEEmRKS3_, symObjAddr: 0xF0D0, symBinAddr: 0x10001151C, symSize: 0x24 }
  - { offsetInCU: 0x20F9A, offset: 0x20F9A, size: 0x8, addend: 0x0, symName: __ZNKSt3__16vectorI5StateNS_9allocatorIS1_EEE7__allocB8ue170006Ev, symObjAddr: 0xF0F4, symBinAddr: 0x100011540, symSize: 0x28 }
  - { offsetInCU: 0x20FC0, offset: 0x20FC0, size: 0x8, addend: 0x0, symName: __ZNKSt3__19allocatorI5StateE8max_sizeB8ue170006Ev, symObjAddr: 0xF11C, symBinAddr: 0x100011568, symSize: 0x14 }
  - { offsetInCU: 0x20FE6, offset: 0x20FE6, size: 0x8, addend: 0x0, symName: __ZNKSt3__117__compressed_pairIP5StateNS_9allocatorIS1_EEE6secondB8ue170006Ev, symObjAddr: 0xF130, symBinAddr: 0x10001157C, symSize: 0x24 }
  - { offsetInCU: 0x2100C, offset: 0x2100C, size: 0x8, addend: 0x0, symName: __ZNKSt3__122__compressed_pair_elemINS_9allocatorI5StateEELi1ELb1EE5__getB8ue170006Ev, symObjAddr: 0xF154, symBinAddr: 0x1000115A0, symSize: 0x14 }
  - { offsetInCU: 0x21032, offset: 0x21032, size: 0x8, addend: 0x0, symName: __ZNSt3__114__split_bufferI5StateRNS_9allocatorIS1_EEEC2EmmS4_, symObjAddr: 0xF168, symBinAddr: 0x1000115B4, symSize: 0xD4 }
  - { offsetInCU: 0x210A5, offset: 0x210A5, size: 0x8, addend: 0x0, symName: __ZNSt3__117__compressed_pairIP5StateRNS_9allocatorIS1_EEEC1B8ue170006IDnS5_EEOT_OT0_, symObjAddr: 0xF23C, symBinAddr: 0x100011688, symSize: 0x3C }
  - { offsetInCU: 0x210FD, offset: 0x210FD, size: 0x8, addend: 0x0, symName: __ZNSt3__114__split_bufferI5StateRNS_9allocatorIS1_EEE7__allocB8ue170006Ev, symObjAddr: 0xF2B8, symBinAddr: 0x100011704, symSize: 0x28 }
  - { offsetInCU: 0x21123, offset: 0x21123, size: 0x8, addend: 0x0, symName: __ZNSt3__114__split_bufferI5StateRNS_9allocatorIS1_EEE9__end_capB8ue170006Ev, symObjAddr: 0xF2E0, symBinAddr: 0x10001172C, symSize: 0x28 }
  - { offsetInCU: 0x21149, offset: 0x21149, size: 0x8, addend: 0x0, symName: __ZNSt3__117__compressed_pairIP5StateRNS_9allocatorIS1_EEEC2B8ue170006IDnS5_EEOT_OT0_, symObjAddr: 0xF308, symBinAddr: 0x100011754, symSize: 0x48 }
  - { offsetInCU: 0x211A1, offset: 0x211A1, size: 0x8, addend: 0x0, symName: __ZNSt3__122__compressed_pair_elemIRNS_9allocatorI5StateEELi1ELb0EEC2B8ue170006IS4_vEEOT_, symObjAddr: 0xF350, symBinAddr: 0x10001179C, symSize: 0x20 }
  - { offsetInCU: 0x211E3, offset: 0x211E3, size: 0x8, addend: 0x0, symName: __ZNSt3__19allocatorI5StateE8allocateB8ue170006Em, symObjAddr: 0xF370, symBinAddr: 0x1000117BC, symSize: 0x58 }
  - { offsetInCU: 0x21217, offset: 0x21217, size: 0x8, addend: 0x0, symName: __ZNSt3__117__compressed_pairIP5StateRNS_9allocatorIS1_EEE6secondB8ue170006Ev, symObjAddr: 0xF3C8, symBinAddr: 0x100011814, symSize: 0x28 }
  - { offsetInCU: 0x2123D, offset: 0x2123D, size: 0x8, addend: 0x0, symName: __ZNSt3__122__compressed_pair_elemIRNS_9allocatorI5StateEELi1ELb0EE5__getB8ue170006Ev, symObjAddr: 0xF3F0, symBinAddr: 0x10001183C, symSize: 0x18 }
  - { offsetInCU: 0x21263, offset: 0x21263, size: 0x8, addend: 0x0, symName: __ZNSt3__117__compressed_pairIP5StateRNS_9allocatorIS1_EEE5firstB8ue170006Ev, symObjAddr: 0xF408, symBinAddr: 0x100011854, symSize: 0x24 }
  - { offsetInCU: 0x21289, offset: 0x21289, size: 0x8, addend: 0x0, symName: __ZNSt3__116reverse_iteratorIP5StateEC1B8ue170006ES2_, symObjAddr: 0xF558, symBinAddr: 0x1000119A4, symSize: 0x34 }
  - { offsetInCU: 0x212C1, offset: 0x212C1, size: 0x8, addend: 0x0, symName: __ZNKSt3__116reverse_iteratorIP5StateE4baseB8ue170006Ev, symObjAddr: 0xF58C, symBinAddr: 0x1000119D8, symSize: 0x18 }
  - { offsetInCU: 0x212E7, offset: 0x212E7, size: 0x8, addend: 0x0, symName: __ZNKSt3__16vectorI5StateNS_9allocatorIS1_EEE14__annotate_newB8ue170006Em, symObjAddr: 0xF5E0, symBinAddr: 0x100011A2C, symSize: 0xAC }
  - { offsetInCU: 0x2131C, offset: 0x2131C, size: 0x8, addend: 0x0, symName: __ZNSt3__129_AllocatorDestroyRangeReverseINS_9allocatorI5StateEENS_16reverse_iteratorIPS2_EEEC1B8ue170006ERS3_RS6_S9_, symObjAddr: 0xF6D8, symBinAddr: 0x100011B24, symSize: 0x44 }
  - { offsetInCU: 0x21379, offset: 0x21379, size: 0x8, addend: 0x0, symName: __ZNSt3__116allocator_traitsINS_9allocatorI5StateEEE9constructB8ue170006IS2_JS2_EvEEvRS3_PT_DpOT0_, symObjAddr: 0xF764, symBinAddr: 0x100011BB0, symSize: 0x34 }
  - { offsetInCU: 0x213D0, offset: 0x213D0, size: 0x8, addend: 0x0, symName: __ZNKSt3__116reverse_iteratorIP5StateEdeB8ue170006Ev, symObjAddr: 0xF7BC, symBinAddr: 0x100011C08, symSize: 0x28 }
  - { offsetInCU: 0x21404, offset: 0x21404, size: 0x8, addend: 0x0, symName: __ZNSt3__116reverse_iteratorIP5StateEppB8ue170006Ev, symObjAddr: 0xF7E4, symBinAddr: 0x100011C30, symSize: 0x20 }
  - { offsetInCU: 0x2142A, offset: 0x2142A, size: 0x8, addend: 0x0, symName: __ZNSt3__128__exception_guard_exceptionsINS_29_AllocatorDestroyRangeReverseINS_9allocatorI5StateEENS_16reverse_iteratorIPS3_EEEEE10__completeB8ue170006Ev, symObjAddr: 0xF804, symBinAddr: 0x100011C50, symSize: 0x1C }
  - { offsetInCU: 0x21450, offset: 0x21450, size: 0x8, addend: 0x0, symName: __ZNSt3__128__exception_guard_exceptionsINS_29_AllocatorDestroyRangeReverseINS_9allocatorI5StateEENS_16reverse_iteratorIPS3_EEEEED1B8ue170006Ev, symObjAddr: 0xF820, symBinAddr: 0x100011C6C, symSize: 0x2C }
  - { offsetInCU: 0x2147A, offset: 0x2147A, size: 0x8, addend: 0x0, symName: __ZNSt3__128__exception_guard_exceptionsINS_29_AllocatorDestroyRangeReverseINS_9allocatorI5StateEENS_16reverse_iteratorIPS3_EEEEEC1B8ue170006ES8_, symObjAddr: 0xF84C, symBinAddr: 0x100011C98, symSize: 0x34 }
  - { offsetInCU: 0x214B3, offset: 0x214B3, size: 0x8, addend: 0x0, symName: __ZNSt3__128__exception_guard_exceptionsINS_29_AllocatorDestroyRangeReverseINS_9allocatorI5StateEENS_16reverse_iteratorIPS3_EEEEEC2B8ue170006ES8_, symObjAddr: 0xF880, symBinAddr: 0x100011CCC, symSize: 0x30 }
  - { offsetInCU: 0x214EC, offset: 0x214EC, size: 0x8, addend: 0x0, symName: __ZNSt3__129_AllocatorDestroyRangeReverseINS_9allocatorI5StateEENS_16reverse_iteratorIPS2_EEEC2B8ue170006ERS3_RS6_S9_, symObjAddr: 0xF8B0, symBinAddr: 0x100011CFC, symSize: 0x38 }
  - { offsetInCU: 0x21543, offset: 0x21543, size: 0x8, addend: 0x0, symName: __ZNSt3__19allocatorI5StateE9constructB8ue170006IS1_JS1_EEEvPT_DpOT0_, symObjAddr: 0xF8E8, symBinAddr: 0x100011D34, symSize: 0x30 }
  - { offsetInCU: 0x21599, offset: 0x21599, size: 0x8, addend: 0x0, symName: __ZN5StateC1EOS_, symObjAddr: 0xF918, symBinAddr: 0x100011D64, symSize: 0x34 }
  - { offsetInCU: 0x215CE, offset: 0x215CE, size: 0x8, addend: 0x0, symName: __ZN5StateC2EOS_, symObjAddr: 0xF94C, symBinAddr: 0x100011D98, symSize: 0x40 }
  - { offsetInCU: 0x21603, offset: 0x21603, size: 0x8, addend: 0x0, symName: __ZNSt3__16vectorINS_5tupleIJiiiEEENS_9allocatorIS2_EEEC1B8ue170006EOS5_, symObjAddr: 0xF98C, symBinAddr: 0x100011DD8, symSize: 0x34 }
  - { offsetInCU: 0x2163E, offset: 0x2163E, size: 0x8, addend: 0x0, symName: __ZNSt3__16vectorINS_5tupleIJiiiEEENS_9allocatorIS2_EEEC2B8ue170006EOS5_, symObjAddr: 0xF9C0, symBinAddr: 0x100011E0C, symSize: 0xC4 }
  - { offsetInCU: 0x2167E, offset: 0x2167E, size: 0x8, addend: 0x0, symName: __ZNSt3__119__to_address_helperINS_16reverse_iteratorIP5StateEEvE6__callB8ue170006ERKS4_, symObjAddr: 0xFA84, symBinAddr: 0x100011ED0, symSize: 0x38 }
  - { offsetInCU: 0x216A1, offset: 0x216A1, size: 0x8, addend: 0x0, symName: __ZNKSt3__116reverse_iteratorIP5StateEptB8ue170006Ev, symObjAddr: 0xFABC, symBinAddr: 0x100011F08, symSize: 0x24 }
  - { offsetInCU: 0x216C7, offset: 0x216C7, size: 0x8, addend: 0x0, symName: __ZNSt3__128__exception_guard_exceptionsINS_29_AllocatorDestroyRangeReverseINS_9allocatorI5StateEENS_16reverse_iteratorIPS3_EEEEED2B8ue170006Ev, symObjAddr: 0xFAE0, symBinAddr: 0x100011F2C, symSize: 0x50 }
  - { offsetInCU: 0x216F1, offset: 0x216F1, size: 0x8, addend: 0x0, symName: __ZNKSt3__129_AllocatorDestroyRangeReverseINS_9allocatorI5StateEENS_16reverse_iteratorIPS2_EEEclB8ue170006Ev, symObjAddr: 0xFB30, symBinAddr: 0x100011F7C, symSize: 0xB4 }
  - { offsetInCU: 0x21718, offset: 0x21718, size: 0x8, addend: 0x0, symName: __ZNSt3__116reverse_iteratorINS0_IP5StateEEEC1B8ue170006ES3_, symObjAddr: 0xFC54, symBinAddr: 0x1000120A0, symSize: 0x3C }
  - { offsetInCU: 0x21750, offset: 0x21750, size: 0x8, addend: 0x0, symName: __ZNSt3__116reverse_iteratorINS0_IP5StateEEEppB8ue170006Ev, symObjAddr: 0xFD14, symBinAddr: 0x100012160, symSize: 0x30 }
  - { offsetInCU: 0x21776, offset: 0x21776, size: 0x8, addend: 0x0, symName: __ZNKSt3__116reverse_iteratorINS0_IP5StateEEE4baseB8ue170006Ev, symObjAddr: 0xFD44, symBinAddr: 0x100012190, symSize: 0x24 }
  - { offsetInCU: 0x217A1, offset: 0x217A1, size: 0x8, addend: 0x0, symName: __ZNSt3__119__to_address_helperINS_16reverse_iteratorINS1_IP5StateEEEEvE6__callB8ue170006ERKS5_, symObjAddr: 0xFD68, symBinAddr: 0x1000121B4, symSize: 0x38 }
  - { offsetInCU: 0x217C4, offset: 0x217C4, size: 0x8, addend: 0x0, symName: __ZNKSt3__116reverse_iteratorINS0_IP5StateEEEptB8ue170006Ev, symObjAddr: 0xFDA0, symBinAddr: 0x1000121EC, symSize: 0x24 }
  - { offsetInCU: 0x217EA, offset: 0x217EA, size: 0x8, addend: 0x0, symName: __ZNKSt3__116reverse_iteratorINS0_IP5StateEEEdeB8ue170006Ev, symObjAddr: 0xFDC4, symBinAddr: 0x100012210, symSize: 0x34 }
  - { offsetInCU: 0x2181E, offset: 0x2181E, size: 0x8, addend: 0x0, symName: __ZNSt3__116reverse_iteratorIP5StateEmmB8ue170006Ev, symObjAddr: 0xFDF8, symBinAddr: 0x100012244, symSize: 0x20 }
  - { offsetInCU: 0x21844, offset: 0x21844, size: 0x8, addend: 0x0, symName: __ZNSt3__116reverse_iteratorINS0_IP5StateEEEC2B8ue170006ES3_, symObjAddr: 0xFE18, symBinAddr: 0x100012264, symSize: 0x2C }
  - { offsetInCU: 0x2187C, offset: 0x2187C, size: 0x8, addend: 0x0, symName: __ZNSt3__116reverse_iteratorIP5StateEC2B8ue170006ES2_, symObjAddr: 0xFE44, symBinAddr: 0x100012290, symSize: 0x28 }
  - { offsetInCU: 0x218B4, offset: 0x218B4, size: 0x8, addend: 0x0, symName: __ZNSt3__114__split_bufferI5StateRNS_9allocatorIS1_EEED2Ev, symObjAddr: 0xFE6C, symBinAddr: 0x1000122B8, symSize: 0x8C }
  - { offsetInCU: 0x218E0, offset: 0x218E0, size: 0x8, addend: 0x0, symName: __ZNSt3__114__split_bufferI5StateRNS_9allocatorIS1_EEE5clearB8ue170006Ev, symObjAddr: 0xFEF8, symBinAddr: 0x100012344, symSize: 0x28 }
  - { offsetInCU: 0x21906, offset: 0x21906, size: 0x8, addend: 0x0, symName: __ZNKSt3__114__split_bufferI5StateRNS_9allocatorIS1_EEE8capacityB8ue170006Ev, symObjAddr: 0xFF20, symBinAddr: 0x10001236C, symSize: 0x40 }
  - { offsetInCU: 0x2192C, offset: 0x2192C, size: 0x8, addend: 0x0, symName: __ZNSt3__114__split_bufferI5StateRNS_9allocatorIS1_EEE17__destruct_at_endB8ue170006EPS1_, symObjAddr: 0xFF60, symBinAddr: 0x1000123AC, symSize: 0x2C }
  - { offsetInCU: 0x21960, offset: 0x21960, size: 0x8, addend: 0x0, symName: __ZNSt3__114__split_bufferI5StateRNS_9allocatorIS1_EEE17__destruct_at_endB8ue170006EPS1_NS_17integral_constantIbLb0EEE, symObjAddr: 0xFF8C, symBinAddr: 0x1000123D8, symSize: 0x80 }
  - { offsetInCU: 0x219A1, offset: 0x219A1, size: 0x8, addend: 0x0, symName: __ZNKSt3__114__split_bufferI5StateRNS_9allocatorIS1_EEE9__end_capB8ue170006Ev, symObjAddr: 0x1000C, symBinAddr: 0x100012458, symSize: 0x28 }
  - { offsetInCU: 0x219C7, offset: 0x219C7, size: 0x8, addend: 0x0, symName: __ZNKSt3__117__compressed_pairIP5StateRNS_9allocatorIS1_EEE5firstB8ue170006Ev, symObjAddr: 0x10034, symBinAddr: 0x100012480, symSize: 0x24 }
  - { offsetInCU: 0x219ED, offset: 0x219ED, size: 0x8, addend: 0x0, symName: __ZNSt3__111char_traitsIcE6lengthB8ue170006EPKc, symObjAddr: 0x10244, symBinAddr: 0x100012690, symSize: 0x34 }
  - { offsetInCU: 0x21A2E, offset: 0x21A2E, size: 0x8, addend: 0x0, symName: __ZNKSt3__113basic_ostreamIcNS_11char_traitsIcEEE6sentrycvbB8ue170006Ev, symObjAddr: 0x10278, symBinAddr: 0x1000126C4, symSize: 0x1C }
  - { offsetInCU: 0x21A54, offset: 0x21A54, size: 0x8, addend: 0x0, symName: __ZNSt3__119ostreambuf_iteratorIcNS_11char_traitsIcEEEC1B8ue170006ERNS_13basic_ostreamIcS2_EE, symObjAddr: 0x104D4, symBinAddr: 0x100012920, symSize: 0x34 }
  - { offsetInCU: 0x21A8C, offset: 0x21A8C, size: 0x8, addend: 0x0, symName: __ZNKSt3__18ios_base5flagsB8ue170006Ev, symObjAddr: 0x10508, symBinAddr: 0x100012954, symSize: 0x18 }
  - { offsetInCU: 0x21AB4, offset: 0x21AB4, size: 0x8, addend: 0x0, symName: __ZNKSt3__19basic_iosIcNS_11char_traitsIcEEE4fillB8ue170006Ev, symObjAddr: 0x10520, symBinAddr: 0x10001296C, symSize: 0x64 }
  - { offsetInCU: 0x21ADC, offset: 0x21ADC, size: 0x8, addend: 0x0, symName: __ZNKSt3__119ostreambuf_iteratorIcNS_11char_traitsIcEEE6failedB8ue170006Ev, symObjAddr: 0x10584, symBinAddr: 0x1000129D0, symSize: 0x24 }
  - { offsetInCU: 0x21B02, offset: 0x21B02, size: 0x8, addend: 0x0, symName: __ZNSt3__19basic_iosIcNS_11char_traitsIcEEE8setstateB8ue170006Ej, symObjAddr: 0x105A8, symBinAddr: 0x1000129F4, symSize: 0x2C }
  - { offsetInCU: 0x21B37, offset: 0x21B37, size: 0x8, addend: 0x0, symName: __ZNKSt3__18ios_base5widthB8ue170006Ev, symObjAddr: 0x105D4, symBinAddr: 0x100012A20, symSize: 0x18 }
  - { offsetInCU: 0x21B5F, offset: 0x21B5F, size: 0x8, addend: 0x0, symName: __ZNSt3__115basic_streambufIcNS_11char_traitsIcEEE5sputnB8ue170006EPKcl, symObjAddr: 0x105EC, symBinAddr: 0x100012A38, symSize: 0x3C }
  - { offsetInCU: 0x21BA1, offset: 0x21BA1, size: 0x8, addend: 0x0, symName: __ZNSt3__112basic_stringIcNS_11char_traitsIcEENS_9allocatorIcEEEC1B8ue170006Emc, symObjAddr: 0x10628, symBinAddr: 0x100012A74, symSize: 0x3C }
  - { offsetInCU: 0x21BE9, offset: 0x21BE9, size: 0x8, addend: 0x0, symName: __ZNSt3__112basic_stringIcNS_11char_traitsIcEENS_9allocatorIcEEE4dataB8ue170006Ev, symObjAddr: 0x10664, symBinAddr: 0x100012AB0, symSize: 0x28 }
  - { offsetInCU: 0x21C0F, offset: 0x21C0F, size: 0x8, addend: 0x0, symName: __ZNSt3__18ios_base5widthB8ue170006El, symObjAddr: 0x1068C, symBinAddr: 0x100012AD8, symSize: 0x2C }
  - { offsetInCU: 0x21C55, offset: 0x21C55, size: 0x8, addend: 0x0, symName: __ZNSt3__112basic_stringIcNS_11char_traitsIcEENS_9allocatorIcEEEC2B8ue170006Emc, symObjAddr: 0x106B8, symBinAddr: 0x100012B04, symSize: 0x4C }
  - { offsetInCU: 0x21C9D, offset: 0x21C9D, size: 0x8, addend: 0x0, symName: __ZNSt3__117__compressed_pairINS_12basic_stringIcNS_11char_traitsIcEENS_9allocatorIcEEE5__repES5_EC1B8ue170006INS_18__default_init_tagESA_EEOT_OT0_, symObjAddr: 0x10704, symBinAddr: 0x100012B50, symSize: 0x3C }
  - { offsetInCU: 0x21CF5, offset: 0x21CF5, size: 0x8, addend: 0x0, symName: __ZNSt3__117__compressed_pairINS_12basic_stringIcNS_11char_traitsIcEENS_9allocatorIcEEE5__repES5_EC2B8ue170006INS_18__default_init_tagESA_EEOT_OT0_, symObjAddr: 0x10740, symBinAddr: 0x100012B8C, symSize: 0x3C }
  - { offsetInCU: 0x21D4D, offset: 0x21D4D, size: 0x8, addend: 0x0, symName: __ZNSt3__122__compressed_pair_elemINS_12basic_stringIcNS_11char_traitsIcEENS_9allocatorIcEEE5__repELi0ELb0EEC2B8ue170006ENS_18__default_init_tagE, symObjAddr: 0x1077C, symBinAddr: 0x100012BC8, symSize: 0x14 }
  - { offsetInCU: 0x21D82, offset: 0x21D82, size: 0x8, addend: 0x0, symName: __ZNSt3__122__compressed_pair_elemINS_9allocatorIcEELi1ELb1EEC2B8ue170006ENS_18__default_init_tagE, symObjAddr: 0x10790, symBinAddr: 0x100012BDC, symSize: 0x2C }
  - { offsetInCU: 0x21DB7, offset: 0x21DB7, size: 0x8, addend: 0x0, symName: __ZNSt3__19allocatorIcEC2B8ue170006Ev, symObjAddr: 0x107BC, symBinAddr: 0x100012C08, symSize: 0x2C }
  - { offsetInCU: 0x21DE1, offset: 0x21DE1, size: 0x8, addend: 0x0, symName: __ZNSt3__116__non_trivial_ifILb1ENS_9allocatorIcEEEC2B8ue170006Ev, symObjAddr: 0x107E8, symBinAddr: 0x100012C34, symSize: 0x14 }
  - { offsetInCU: 0x21E0B, offset: 0x21E0B, size: 0x8, addend: 0x0, symName: __ZNSt3__112basic_stringIcNS_11char_traitsIcEENS_9allocatorIcEEE13__get_pointerB8ue170006Ev, symObjAddr: 0x10810, symBinAddr: 0x100012C5C, symSize: 0x54 }
  - { offsetInCU: 0x21E31, offset: 0x21E31, size: 0x8, addend: 0x0, symName: __ZNKSt3__112basic_stringIcNS_11char_traitsIcEENS_9allocatorIcEEE9__is_longB8ue170006Ev, symObjAddr: 0x10864, symBinAddr: 0x100012CB0, symSize: 0x38 }
  - { offsetInCU: 0x21E57, offset: 0x21E57, size: 0x8, addend: 0x0, symName: __ZNSt3__112basic_stringIcNS_11char_traitsIcEENS_9allocatorIcEEE18__get_long_pointerB8ue170006Ev, symObjAddr: 0x1089C, symBinAddr: 0x100012CE8, symSize: 0x28 }
  - { offsetInCU: 0x21E7D, offset: 0x21E7D, size: 0x8, addend: 0x0, symName: __ZNSt3__112basic_stringIcNS_11char_traitsIcEENS_9allocatorIcEEE19__get_short_pointerB8ue170006Ev, symObjAddr: 0x108C4, symBinAddr: 0x100012D10, symSize: 0x28 }
  - { offsetInCU: 0x21EA3, offset: 0x21EA3, size: 0x8, addend: 0x0, symName: __ZNKSt3__117__compressed_pairINS_12basic_stringIcNS_11char_traitsIcEENS_9allocatorIcEEE5__repES5_E5firstB8ue170006Ev, symObjAddr: 0x108EC, symBinAddr: 0x100012D38, symSize: 0x24 }
  - { offsetInCU: 0x21EC9, offset: 0x21EC9, size: 0x8, addend: 0x0, symName: __ZNKSt3__122__compressed_pair_elemINS_12basic_stringIcNS_11char_traitsIcEENS_9allocatorIcEEE5__repELi0ELb0EE5__getB8ue170006Ev, symObjAddr: 0x10910, symBinAddr: 0x100012D5C, symSize: 0x14 }
  - { offsetInCU: 0x21EEF, offset: 0x21EEF, size: 0x8, addend: 0x0, symName: __ZNSt3__117__compressed_pairINS_12basic_stringIcNS_11char_traitsIcEENS_9allocatorIcEEE5__repES5_E5firstB8ue170006Ev, symObjAddr: 0x10924, symBinAddr: 0x100012D70, symSize: 0x24 }
  - { offsetInCU: 0x21F15, offset: 0x21F15, size: 0x8, addend: 0x0, symName: __ZNSt3__122__compressed_pair_elemINS_12basic_stringIcNS_11char_traitsIcEENS_9allocatorIcEEE5__repELi0ELb0EE5__getB8ue170006Ev, symObjAddr: 0x10948, symBinAddr: 0x100012D94, symSize: 0x14 }
  - { offsetInCU: 0x21F3B, offset: 0x21F3B, size: 0x8, addend: 0x0, symName: __ZNSt3__114pointer_traitsIPcE10pointer_toB8ue170006ERc, symObjAddr: 0x1095C, symBinAddr: 0x100012DA8, symSize: 0x14 }
  - { offsetInCU: 0x21F5E, offset: 0x21F5E, size: 0x8, addend: 0x0, symName: __ZNSt3__119ostreambuf_iteratorIcNS_11char_traitsIcEEEC2B8ue170006ERNS_13basic_ostreamIcS2_EE, symObjAddr: 0x10970, symBinAddr: 0x100012DBC, symSize: 0x54 }
  - { offsetInCU: 0x21F96, offset: 0x21F96, size: 0x8, addend: 0x0, symName: __ZNKSt3__19basic_iosIcNS_11char_traitsIcEEE5rdbufB8ue170006Ev, symObjAddr: 0x109C4, symBinAddr: 0x100012E10, symSize: 0x24 }
  - { offsetInCU: 0x21FBE, offset: 0x21FBE, size: 0x8, addend: 0x0, symName: __ZNKSt3__18ios_base5rdbufB8ue170006Ev, symObjAddr: 0x109E8, symBinAddr: 0x100012E34, symSize: 0x18 }
  - { offsetInCU: 0x21FE4, offset: 0x21FE4, size: 0x8, addend: 0x0, symName: __ZNSt3__111char_traitsIcE11eq_int_typeB8ue170006Eii, symObjAddr: 0x10A00, symBinAddr: 0x100012E4C, symSize: 0x28 }
  - { offsetInCU: 0x22017, offset: 0x22017, size: 0x8, addend: 0x0, symName: __ZNSt3__111char_traitsIcE3eofB8ue170006Ev, symObjAddr: 0x10A28, symBinAddr: 0x100012E74, symSize: 0x8 }
  - { offsetInCU: 0x2202B, offset: 0x2202B, size: 0x8, addend: 0x0, symName: __ZNKSt3__19basic_iosIcNS_11char_traitsIcEEE5widenB8ue170006Ec, symObjAddr: 0x10A30, symBinAddr: 0x100012E7C, symSize: 0x84 }
  - { offsetInCU: 0x22094, offset: 0x22094, size: 0x8, addend: 0x0, symName: __ZNKSt3__15ctypeIcE5widenB8ue170006Ec, symObjAddr: 0x10AE0, symBinAddr: 0x100012F2C, symSize: 0x38 }
  - { offsetInCU: 0x220C9, offset: 0x220C9, size: 0x8, addend: 0x0, symName: __ZNSt3__18ios_base8setstateB8ue170006Ej, symObjAddr: 0x10B18, symBinAddr: 0x100012F64, symSize: 0x34 }
  - { offsetInCU: 0x2210A, offset: 0x2210A, size: 0x8, addend: 0x0, symName: '__ZZ9print_mapRKNSt3__16vectorINS0_IiNS_9allocatorIiEEEENS1_IS3_EEEERK5StateiENK3$_0clEiRKNS_5tupleIJiiiEEE', symObjAddr: 0x10B70, symBinAddr: 0x100012FBC, symSize: 0x40 }
  - { offsetInCU: 0x22150, offset: 0x22150, size: 0x8, addend: 0x0, symName: __ZNSt3__114priority_queueI5StateNS_6vectorIS1_NS_9allocatorIS1_EEEENS_7greaterIS1_EEEC2B8ue170006Ev, symObjAddr: 0x10BB0, symBinAddr: 0x100012FFC, symSize: 0x2C }
  - { offsetInCU: 0x2217A, offset: 0x2217A, size: 0x8, addend: 0x0, symName: __ZNSt3__16vectorINS_5tupleIJiiiEEENS_9allocatorIS2_EEEC2B8ue170006Ev, symObjAddr: 0x10BDC, symBinAddr: 0x100013028, symSize: 0x4C }
  - { offsetInCU: 0x221A4, offset: 0x221A4, size: 0x8, addend: 0x0, symName: __ZNSt3__117__compressed_pairIPNS_5tupleIJiiiEEENS_9allocatorIS2_EEEC1B8ue170006IDnNS_18__default_init_tagEEEOT_OT0_, symObjAddr: 0x10C28, symBinAddr: 0x100013074, symSize: 0x3C }
  - { offsetInCU: 0x221FC, offset: 0x221FC, size: 0x8, addend: 0x0, symName: __ZNSt3__117__compressed_pairIPNS_5tupleIJiiiEEENS_9allocatorIS2_EEEC2B8ue170006IDnNS_18__default_init_tagEEEOT_OT0_, symObjAddr: 0x10C64, symBinAddr: 0x1000130B0, symSize: 0x40 }
  - { offsetInCU: 0x22254, offset: 0x22254, size: 0x8, addend: 0x0, symName: __ZNSt3__122__compressed_pair_elemINS_9allocatorINS_5tupleIJiiiEEEEELi1ELb1EEC2B8ue170006ENS_18__default_init_tagE, symObjAddr: 0x10CA4, symBinAddr: 0x1000130F0, symSize: 0x2C }
  - { offsetInCU: 0x22289, offset: 0x22289, size: 0x8, addend: 0x0, symName: __ZNSt3__19allocatorINS_5tupleIJiiiEEEEC2B8ue170006Ev, symObjAddr: 0x10CD0, symBinAddr: 0x10001311C, symSize: 0x2C }
  - { offsetInCU: 0x222B3, offset: 0x222B3, size: 0x8, addend: 0x0, symName: __ZNSt3__116__non_trivial_ifILb1ENS_9allocatorINS_5tupleIJiiiEEEEEEC2B8ue170006Ev, symObjAddr: 0x10CFC, symBinAddr: 0x100013148, symSize: 0x14 }
  - { offsetInCU: 0x222DD, offset: 0x222DD, size: 0x8, addend: 0x0, symName: __ZNSt3__16vectorI5StateNS_9allocatorIS1_EEE9push_backB8ue170006EOS1_, symObjAddr: 0x10D10, symBinAddr: 0x10001315C, symSize: 0x6C }
  - { offsetInCU: 0x22314, offset: 0x22314, size: 0x8, addend: 0x0, symName: __ZNSt3__16vectorI5StateNS_9allocatorIS1_EEE22__construct_one_at_endB8ue170006IJS1_EEEvDpOT_, symObjAddr: 0x10DBC, symBinAddr: 0x100013208, symSize: 0x90 }
  - { offsetInCU: 0x22363, offset: 0x22363, size: 0x8, addend: 0x0, symName: __ZNSt3__16vectorI5StateNS_9allocatorIS1_EEE21__push_back_slow_pathIS1_EEvOT_, symObjAddr: 0x10E4C, symBinAddr: 0x100013298, symSize: 0xD8 }
  - { offsetInCU: 0x223C1, offset: 0x223C1, size: 0x8, addend: 0x0, symName: __ZNKSt3__111__wrap_iterIP5StateEplB8ue170006El, symObjAddr: 0x11164, symBinAddr: 0x1000135B0, symSize: 0x3C }
  - { offsetInCU: 0x22403, offset: 0x22403, size: 0x8, addend: 0x0, symName: __ZNKSt3__17greaterI5StateEclB8ue170006ERKS1_S4_, symObjAddr: 0x111A0, symBinAddr: 0x1000135EC, symSize: 0x34 }
  - { offsetInCU: 0x22447, offset: 0x22447, size: 0x8, addend: 0x0, symName: __ZNSt3__111__wrap_iterIP5StateEmmB8ue170006Ev, symObjAddr: 0x111D4, symBinAddr: 0x100013620, symSize: 0x20 }
  - { offsetInCU: 0x2246D, offset: 0x2246D, size: 0x8, addend: 0x0, symName: __ZNSt3__18_IterOpsINS_17_ClassicAlgPolicyEE11__iter_moveB8ue170006IRNS_11__wrap_iterIP5StateEEEENS_9enable_ifIXsr12is_referenceIDTdeclsr3stdE7declvalIRT_EEEEE5valueEDTclsr3stdE4movedeclsr3stdE7declvalISB_EEEEE4typeEOSA_, symObjAddr: 0x111F4, symBinAddr: 0x100013640, symSize: 0x28 }
  - { offsetInCU: 0x22499, offset: 0x22499, size: 0x8, addend: 0x0, symName: __ZN5StateaSEOS_, symObjAddr: 0x1121C, symBinAddr: 0x100013668, symSize: 0x40 }
  - { offsetInCU: 0x224CA, offset: 0x224CA, size: 0x8, addend: 0x0, symName: __ZNSt3__111__wrap_iterIP5StateEpLB8ue170006El, symObjAddr: 0x1125C, symBinAddr: 0x1000136A8, symSize: 0x28 }
  - { offsetInCU: 0x224FE, offset: 0x224FE, size: 0x8, addend: 0x0, symName: __ZNK5StategtERKS_, symObjAddr: 0x11284, symBinAddr: 0x1000136D0, symSize: 0x30 }
  - { offsetInCU: 0x22532, offset: 0x22532, size: 0x8, addend: 0x0, symName: __ZNSt3__18_IterOpsINS_17_ClassicAlgPolicyEE25__validate_iter_referenceB8ue170006IRNS_11__wrap_iterIP5StateEEEEvv, symObjAddr: 0x112B4, symBinAddr: 0x100013700, symSize: 0x4 }
  - { offsetInCU: 0x22550, offset: 0x22550, size: 0x8, addend: 0x0, symName: __ZNSt3__16vectorINS_5tupleIJiiiEEENS_9allocatorIS2_EEEaSB8ue170006EOS5_, symObjAddr: 0x112B8, symBinAddr: 0x100013704, symSize: 0x34 }
  - { offsetInCU: 0x22587, offset: 0x22587, size: 0x8, addend: 0x0, symName: __ZNSt3__16vectorINS_5tupleIJiiiEEENS_9allocatorIS2_EEE13__move_assignERS5_NS_17integral_constantIbLb1EEE, symObjAddr: 0x112EC, symBinAddr: 0x100013738, symSize: 0x94 }
  - { offsetInCU: 0x225C9, offset: 0x225C9, size: 0x8, addend: 0x0, symName: __ZNSt3__16vectorINS_5tupleIJiiiEEENS_9allocatorIS2_EEE13__vdeallocateEv, symObjAddr: 0x11380, symBinAddr: 0x1000137CC, symSize: 0x94 }
  - { offsetInCU: 0x225F1, offset: 0x225F1, size: 0x8, addend: 0x0, symName: __ZNSt3__16vectorINS_5tupleIJiiiEEENS_9allocatorIS2_EEE19__move_assign_allocB8ue170006ERS5_, symObjAddr: 0x11414, symBinAddr: 0x100013860, symSize: 0x2C }
  - { offsetInCU: 0x22626, offset: 0x22626, size: 0x8, addend: 0x0, symName: __ZNSt3__16vectorINS_5tupleIJiiiEEENS_9allocatorIS2_EEE5clearB8ue170006Ev, symObjAddr: 0x11440, symBinAddr: 0x10001388C, symSize: 0x44 }
  - { offsetInCU: 0x2265B, offset: 0x2265B, size: 0x8, addend: 0x0, symName: __ZNKSt3__16vectorINS_5tupleIJiiiEEENS_9allocatorIS2_EEE17__annotate_shrinkB8ue170006Em, symObjAddr: 0x11484, symBinAddr: 0x1000138D0, symSize: 0xD0 }
  - { offsetInCU: 0x22690, offset: 0x22690, size: 0x8, addend: 0x0, symName: __ZNSt3__16vectorINS_5tupleIJiiiEEENS_9allocatorIS2_EEE19__move_assign_allocB8ue170006ERS5_NS_17integral_constantIbLb1EEE, symObjAddr: 0x11554, symBinAddr: 0x1000139A0, symSize: 0x38 }
  - { offsetInCU: 0x226D0, offset: 0x226D0, size: 0x8, addend: 0x0, symName: __ZNKSt3__16vectorI5StateNS_9allocatorIS1_EEE5emptyB8ue170006Ev, symObjAddr: 0x1158C, symBinAddr: 0x1000139D8, symSize: 0x28 }
  - { offsetInCU: 0x226F6, offset: 0x226F6, size: 0x8, addend: 0x0, symName: __ZNKSt3__16vectorI5StateNS_9allocatorIS1_EEE5frontB8ue170006Ev, symObjAddr: 0x115B4, symBinAddr: 0x100013A00, symSize: 0x18 }
  - { offsetInCU: 0x2271C, offset: 0x2271C, size: 0x8, addend: 0x0, symName: __ZNSt3__16vectorI5StateNS_9allocatorIS1_EEE8pop_backEv, symObjAddr: 0x11624, symBinAddr: 0x100013A70, symSize: 0x2C }
  - { offsetInCU: 0x22744, offset: 0x22744, size: 0x8, addend: 0x0, symName: __ZNSt3__16vectorI5StateNS_9allocatorIS1_EEE17__destruct_at_endB8ue170006EPS1_, symObjAddr: 0x118FC, symBinAddr: 0x100013D48, symSize: 0x4C }
  - { offsetInCU: 0x22788, offset: 0x22788, size: 0x8, addend: 0x0, symName: __ZNKSt3__16vectorI5StateNS_9allocatorIS1_EEE17__annotate_shrinkB8ue170006Em, symObjAddr: 0x11948, symBinAddr: 0x100013D94, symSize: 0xB4 }
  - { offsetInCU: 0x227BD, offset: 0x227BD, size: 0x8, addend: 0x0, symName: __ZNSt3__16vectorI5StateNS_9allocatorIS1_EEE11__make_iterB8ue170006EPS1_, symObjAddr: 0x119FC, symBinAddr: 0x100013E48, symSize: 0x30 }
  - { offsetInCU: 0x227F2, offset: 0x227F2, size: 0x8, addend: 0x0, symName: __ZNSt3__111__wrap_iterIP5StateEC1B8ue170006ES2_, symObjAddr: 0x11A2C, symBinAddr: 0x100013E78, symSize: 0x34 }
  - { offsetInCU: 0x2282A, offset: 0x2282A, size: 0x8, addend: 0x0, symName: __ZNSt3__111__wrap_iterIP5StateEC2B8ue170006ES2_, symObjAddr: 0x11A60, symBinAddr: 0x100013EAC, symSize: 0x20 }
  - { offsetInCU: 0x22862, offset: 0x22862, size: 0x8, addend: 0x0, symName: __ZNSt3__16vectorINS0_IiNS_9allocatorIiEEEENS1_IS3_EEED2B8ue170006Ev, symObjAddr: 0x11A80, symBinAddr: 0x100013ECC, symSize: 0x40 }
  - { offsetInCU: 0x2288C, offset: 0x2288C, size: 0x8, addend: 0x0, symName: __ZNSt3__16vectorINS0_IiNS_9allocatorIiEEEENS1_IS3_EEEC2B8ue170006ESt16initializer_listIS3_E, symObjAddr: 0x11AC0, symBinAddr: 0x100013F0C, symSize: 0x120 }
  - { offsetInCU: 0x228DC, offset: 0x228DC, size: 0x8, addend: 0x0, symName: __ZNSt3__117__compressed_pairIPNS_6vectorIiNS_9allocatorIiEEEENS2_IS4_EEEC1B8ue170006IDnNS_18__default_init_tagEEEOT_OT0_, symObjAddr: 0x11BE0, symBinAddr: 0x10001402C, symSize: 0x3C }
  - { offsetInCU: 0x22934, offset: 0x22934, size: 0x8, addend: 0x0, symName: __ZNKSt16initializer_listINSt3__16vectorIiNS0_9allocatorIiEEEEE4sizeB8ue170006Ev, symObjAddr: 0x11C1C, symBinAddr: 0x100014068, symSize: 0x18 }
  - { offsetInCU: 0x2295A, offset: 0x2295A, size: 0x8, addend: 0x0, symName: __ZNSt3__16vectorINS0_IiNS_9allocatorIiEEEENS1_IS3_EEE18__construct_at_endIPKS3_S8_EEvT_T0_m, symObjAddr: 0x11C34, symBinAddr: 0x100014080, symSize: 0x8C }
  - { offsetInCU: 0x229D0, offset: 0x229D0, size: 0x8, addend: 0x0, symName: __ZNKSt16initializer_listINSt3__16vectorIiNS0_9allocatorIiEEEEE5beginB8ue170006Ev, symObjAddr: 0x11CC0, symBinAddr: 0x10001410C, symSize: 0x18 }
  - { offsetInCU: 0x229F6, offset: 0x229F6, size: 0x8, addend: 0x0, symName: __ZNKSt16initializer_listINSt3__16vectorIiNS0_9allocatorIiEEEEE3endB8ue170006Ev, symObjAddr: 0x11CD8, symBinAddr: 0x100014124, symSize: 0x28 }
  - { offsetInCU: 0x22A1C, offset: 0x22A1C, size: 0x8, addend: 0x0, symName: __ZNSt3__117__compressed_pairIPNS_6vectorIiNS_9allocatorIiEEEENS2_IS4_EEEC2B8ue170006IDnNS_18__default_init_tagEEEOT_OT0_, symObjAddr: 0x11D00, symBinAddr: 0x10001414C, symSize: 0x40 }
  - { offsetInCU: 0x22A74, offset: 0x22A74, size: 0x8, addend: 0x0, symName: __ZNSt3__122__compressed_pair_elemINS_9allocatorINS_6vectorIiNS1_IiEEEEEELi1ELb1EEC2B8ue170006ENS_18__default_init_tagE, symObjAddr: 0x11D40, symBinAddr: 0x10001418C, symSize: 0x2C }
  - { offsetInCU: 0x22AA9, offset: 0x22AA9, size: 0x8, addend: 0x0, symName: __ZNSt3__19allocatorINS_6vectorIiNS0_IiEEEEEC2B8ue170006Ev, symObjAddr: 0x11D6C, symBinAddr: 0x1000141B8, symSize: 0x2C }
  - { offsetInCU: 0x22AD3, offset: 0x22AD3, size: 0x8, addend: 0x0, symName: __ZNSt3__116__non_trivial_ifILb1ENS_9allocatorINS_6vectorIiNS1_IiEEEEEEEC2B8ue170006Ev, symObjAddr: 0x11D98, symBinAddr: 0x1000141E4, symSize: 0x14 }
  - { offsetInCU: 0x22B1D, offset: 0x22B1D, size: 0x8, addend: 0x0, symName: __ZNSt3__14pairIPKNS_6vectorIiNS_9allocatorIiEEEES6_EC1B8ue170006IS6_S6_LPv0EEEOT_OT0_, symObjAddr: 0x11FDC, symBinAddr: 0x100014428, symSize: 0x3C }
  - { offsetInCU: 0x22B7B, offset: 0x22B7B, size: 0x8, addend: 0x0, symName: __ZNSt3__14pairIPKNS_6vectorIiNS_9allocatorIiEEEES6_EC2B8ue170006IS6_S6_LPv0EEEOT_OT0_, symObjAddr: 0x12018, symBinAddr: 0x100014464, symSize: 0x34 }
  - { offsetInCU: 0x22BD9, offset: 0x22BD9, size: 0x8, addend: 0x0, symName: __ZNSt3__118__unwrap_iter_implIPKNS_6vectorIiNS_9allocatorIiEEEELb1EE8__unwrapB8ue170006ES6_, symObjAddr: 0x1204C, symBinAddr: 0x100014498, symSize: 0x24 }
  - { offsetInCU: 0x22BFC, offset: 0x22BFC, size: 0x8, addend: 0x0, symName: __ZNSt3__116allocator_traitsINS_9allocatorINS_6vectorIiNS1_IiEEEEEEE9constructB8ue170006IS4_JRKS4_EvEEvRS5_PT_DpOT0_, symObjAddr: 0x12084, symBinAddr: 0x1000144D0, symSize: 0x34 }
  - { offsetInCU: 0x22C53, offset: 0x22C53, size: 0x8, addend: 0x0, symName: __ZNSt3__19allocatorINS_6vectorIiNS0_IiEEEEE9constructB8ue170006IS3_JRKS3_EEEvPT_DpOT0_, symObjAddr: 0x120B8, symBinAddr: 0x100014504, symSize: 0x30 }
  - { offsetInCU: 0x22CA9, offset: 0x22CA9, size: 0x8, addend: 0x0, symName: __ZNSt3__16vectorINS_5tupleIJNS0_INS0_IiNS_9allocatorIiEEEENS2_IS4_EEEEiiEEENS2_IS7_EEEC2B8ue170006ESt16initializer_listIS7_E, symObjAddr: 0x120E8, symBinAddr: 0x100014534, symSize: 0x120 }
  - { offsetInCU: 0x22CF9, offset: 0x22CF9, size: 0x8, addend: 0x0, symName: __ZNSt3__117__compressed_pairIPNS_5tupleIJNS_6vectorINS2_IiNS_9allocatorIiEEEENS3_IS5_EEEEiiEEENS3_IS8_EEEC1B8ue170006IDnNS_18__default_init_tagEEEOT_OT0_, symObjAddr: 0x12208, symBinAddr: 0x100014654, symSize: 0x3C }
  - { offsetInCU: 0x22D51, offset: 0x22D51, size: 0x8, addend: 0x0, symName: __ZNSt3__16vectorINS_5tupleIJNS0_INS0_IiNS_9allocatorIiEEEENS2_IS4_EEEEiiEEENS2_IS7_EEE16__destroy_vectorC1B8ue170006ERS9_, symObjAddr: 0x12284, symBinAddr: 0x1000146D0, symSize: 0x34 }
  - { offsetInCU: 0x22D8A, offset: 0x22D8A, size: 0x8, addend: 0x0, symName: __ZNKSt16initializer_listINSt3__15tupleIJNS0_6vectorINS2_IiNS0_9allocatorIiEEEENS3_IS5_EEEEiiEEEE4sizeB8ue170006Ev, symObjAddr: 0x122B8, symBinAddr: 0x100014704, symSize: 0x18 }
  - { offsetInCU: 0x22DB0, offset: 0x22DB0, size: 0x8, addend: 0x0, symName: __ZNSt3__16vectorINS_5tupleIJNS0_INS0_IiNS_9allocatorIiEEEENS2_IS4_EEEEiiEEENS2_IS7_EEE11__vallocateB8ue170006Em, symObjAddr: 0x122D0, symBinAddr: 0x10001471C, symSize: 0xAC }
  - { offsetInCU: 0x22DF4, offset: 0x22DF4, size: 0x8, addend: 0x0, symName: __ZNSt3__16vectorINS_5tupleIJNS0_INS0_IiNS_9allocatorIiEEEENS2_IS4_EEEEiiEEENS2_IS7_EEE18__construct_at_endIPKS7_SC_EEvT_T0_m, symObjAddr: 0x1237C, symBinAddr: 0x1000147C8, symSize: 0x8C }
  - { offsetInCU: 0x22E6A, offset: 0x22E6A, size: 0x8, addend: 0x0, symName: __ZNKSt16initializer_listINSt3__15tupleIJNS0_6vectorINS2_IiNS0_9allocatorIiEEEENS3_IS5_EEEEiiEEEE5beginB8ue170006Ev, symObjAddr: 0x12408, symBinAddr: 0x100014854, symSize: 0x18 }
  - { offsetInCU: 0x22E90, offset: 0x22E90, size: 0x8, addend: 0x0, symName: __ZNKSt16initializer_listINSt3__15tupleIJNS0_6vectorINS2_IiNS0_9allocatorIiEEEENS3_IS5_EEEEiiEEEE3endB8ue170006Ev, symObjAddr: 0x12420, symBinAddr: 0x10001486C, symSize: 0x20 }
  - { offsetInCU: 0x22EB6, offset: 0x22EB6, size: 0x8, addend: 0x0, symName: __ZNSt3__128__exception_guard_exceptionsINS_6vectorINS_5tupleIJNS1_INS1_IiNS_9allocatorIiEEEENS3_IS5_EEEEiiEEENS3_IS8_EEE16__destroy_vectorEE10__completeB8ue170006Ev, symObjAddr: 0x12440, symBinAddr: 0x10001488C, symSize: 0x1C }
  - { offsetInCU: 0x22EDC, offset: 0x22EDC, size: 0x8, addend: 0x0, symName: __ZNSt3__128__exception_guard_exceptionsINS_6vectorINS_5tupleIJNS1_INS1_IiNS_9allocatorIiEEEENS3_IS5_EEEEiiEEENS3_IS8_EEE16__destroy_vectorEED1B8ue170006Ev, symObjAddr: 0x1245C, symBinAddr: 0x1000148A8, symSize: 0x2C }
  - { offsetInCU: 0x22F06, offset: 0x22F06, size: 0x8, addend: 0x0, symName: __ZNSt3__117__compressed_pairIPNS_5tupleIJNS_6vectorINS2_IiNS_9allocatorIiEEEENS3_IS5_EEEEiiEEENS3_IS8_EEEC2B8ue170006IDnNS_18__default_init_tagEEEOT_OT0_, symObjAddr: 0x12488, symBinAddr: 0x1000148D4, symSize: 0x40 }
  - { offsetInCU: 0x22F5E, offset: 0x22F5E, size: 0x8, addend: 0x0, symName: __ZNSt3__122__compressed_pair_elemIPNS_5tupleIJNS_6vectorINS2_IiNS_9allocatorIiEEEENS3_IS5_EEEEiiEEELi0ELb0EEC2B8ue170006IDnvEEOT_, symObjAddr: 0x124C8, symBinAddr: 0x100014914, symSize: 0x1C }
  - { offsetInCU: 0x22FA0, offset: 0x22FA0, size: 0x8, addend: 0x0, symName: __ZNSt3__122__compressed_pair_elemINS_9allocatorINS_5tupleIJNS_6vectorINS3_IiNS1_IiEEEENS1_IS5_EEEEiiEEEEELi1ELb1EEC2B8ue170006ENS_18__default_init_tagE, symObjAddr: 0x124E4, symBinAddr: 0x100014930, symSize: 0x2C }
  - { offsetInCU: 0x22FD5, offset: 0x22FD5, size: 0x8, addend: 0x0, symName: __ZNSt3__19allocatorINS_5tupleIJNS_6vectorINS2_IiNS0_IiEEEENS0_IS4_EEEEiiEEEEC2B8ue170006Ev, symObjAddr: 0x12510, symBinAddr: 0x10001495C, symSize: 0x2C }
  - { offsetInCU: 0x22FFF, offset: 0x22FFF, size: 0x8, addend: 0x0, symName: __ZNSt3__116__non_trivial_ifILb1ENS_9allocatorINS_5tupleIJNS_6vectorINS3_IiNS1_IiEEEENS1_IS5_EEEEiiEEEEEEC2B8ue170006Ev, symObjAddr: 0x1253C, symBinAddr: 0x100014988, symSize: 0x14 }
  - { offsetInCU: 0x23029, offset: 0x23029, size: 0x8, addend: 0x0, symName: __ZNSt3__128__exception_guard_exceptionsINS_6vectorINS_5tupleIJNS1_INS1_IiNS_9allocatorIiEEEENS3_IS5_EEEEiiEEENS3_IS8_EEE16__destroy_vectorEEC1B8ue170006ESB_, symObjAddr: 0x12550, symBinAddr: 0x10001499C, symSize: 0x34 }
  - { offsetInCU: 0x23061, offset: 0x23061, size: 0x8, addend: 0x0, symName: __ZNSt3__128__exception_guard_exceptionsINS_6vectorINS_5tupleIJNS1_INS1_IiNS_9allocatorIiEEEENS3_IS5_EEEEiiEEENS3_IS8_EEE16__destroy_vectorEEC2B8ue170006ESB_, symObjAddr: 0x12584, symBinAddr: 0x1000149D0, symSize: 0x24 }
  - { offsetInCU: 0x23099, offset: 0x23099, size: 0x8, addend: 0x0, symName: __ZNSt3__16vectorINS_5tupleIJNS0_INS0_IiNS_9allocatorIiEEEENS2_IS4_EEEEiiEEENS2_IS7_EEE16__destroy_vectorC2B8ue170006ERS9_, symObjAddr: 0x125A8, symBinAddr: 0x1000149F4, symSize: 0x20 }
  - { offsetInCU: 0x230D2, offset: 0x230D2, size: 0x8, addend: 0x0, symName: __ZNKSt3__16vectorINS_5tupleIJNS0_INS0_IiNS_9allocatorIiEEEENS2_IS4_EEEEiiEEENS2_IS7_EEE8max_sizeEv, symObjAddr: 0x125C8, symBinAddr: 0x100014A14, symSize: 0x60 }
  - { offsetInCU: 0x230FA, offset: 0x230FA, size: 0x8, addend: 0x0, symName: __ZNKSt3__16vectorINS_5tupleIJNS0_INS0_IiNS_9allocatorIiEEEENS2_IS4_EEEEiiEEENS2_IS7_EEE20__throw_length_errorB8ue170006Ev, symObjAddr: 0x12628, symBinAddr: 0x100014A74, symSize: 0x1C }
  - { offsetInCU: 0x23120, offset: 0x23120, size: 0x8, addend: 0x0, symName: __ZNSt3__16vectorINS_5tupleIJNS0_INS0_IiNS_9allocatorIiEEEENS2_IS4_EEEEiiEEENS2_IS7_EEE7__allocB8ue170006Ev, symObjAddr: 0x12684, symBinAddr: 0x100014AD0, symSize: 0x28 }
  - { offsetInCU: 0x23146, offset: 0x23146, size: 0x8, addend: 0x0, symName: __ZNSt3__16vectorINS_5tupleIJNS0_INS0_IiNS_9allocatorIiEEEENS2_IS4_EEEEiiEEENS2_IS7_EEE9__end_capB8ue170006Ev, symObjAddr: 0x126AC, symBinAddr: 0x100014AF8, symSize: 0x28 }
  - { offsetInCU: 0x2316C, offset: 0x2316C, size: 0x8, addend: 0x0, symName: __ZNKSt3__16vectorINS_5tupleIJNS0_INS0_IiNS_9allocatorIiEEEENS2_IS4_EEEEiiEEENS2_IS7_EEE14__annotate_newB8ue170006Em, symObjAddr: 0x126D4, symBinAddr: 0x100014B20, symSize: 0xAC }
  - { offsetInCU: 0x231AB, offset: 0x231AB, size: 0x8, addend: 0x0, symName: __ZNSt3__116allocator_traitsINS_9allocatorINS_5tupleIJNS_6vectorINS3_IiNS1_IiEEEENS1_IS5_EEEEiiEEEEEE8max_sizeB8ue170006IS9_vEEmRKS9_, symObjAddr: 0x12780, symBinAddr: 0x100014BCC, symSize: 0x24 }
  - { offsetInCU: 0x231D9, offset: 0x231D9, size: 0x8, addend: 0x0, symName: __ZNKSt3__16vectorINS_5tupleIJNS0_INS0_IiNS_9allocatorIiEEEENS2_IS4_EEEEiiEEENS2_IS7_EEE7__allocB8ue170006Ev, symObjAddr: 0x127A4, symBinAddr: 0x100014BF0, symSize: 0x28 }
  - { offsetInCU: 0x231FF, offset: 0x231FF, size: 0x8, addend: 0x0, symName: __ZNKSt3__19allocatorINS_5tupleIJNS_6vectorINS2_IiNS0_IiEEEENS0_IS4_EEEEiiEEEE8max_sizeB8ue170006Ev, symObjAddr: 0x127CC, symBinAddr: 0x100014C18, symSize: 0x14 }
  - { offsetInCU: 0x23225, offset: 0x23225, size: 0x8, addend: 0x0, symName: __ZNKSt3__117__compressed_pairIPNS_5tupleIJNS_6vectorINS2_IiNS_9allocatorIiEEEENS3_IS5_EEEEiiEEENS3_IS8_EEE6secondB8ue170006Ev, symObjAddr: 0x127E0, symBinAddr: 0x100014C2C, symSize: 0x24 }
  - { offsetInCU: 0x2324B, offset: 0x2324B, size: 0x8, addend: 0x0, symName: __ZNKSt3__122__compressed_pair_elemINS_9allocatorINS_5tupleIJNS_6vectorINS3_IiNS1_IiEEEENS1_IS5_EEEEiiEEEEELi1ELb1EE5__getB8ue170006Ev, symObjAddr: 0x12804, symBinAddr: 0x100014C50, symSize: 0x14 }
  - { offsetInCU: 0x23271, offset: 0x23271, size: 0x8, addend: 0x0, symName: __ZNSt3__19allocatorINS_5tupleIJNS_6vectorINS2_IiNS0_IiEEEENS0_IS4_EEEEiiEEEE8allocateB8ue170006Em, symObjAddr: 0x12818, symBinAddr: 0x100014C64, symSize: 0x58 }
  - { offsetInCU: 0x232A5, offset: 0x232A5, size: 0x8, addend: 0x0, symName: __ZNSt3__117__compressed_pairIPNS_5tupleIJNS_6vectorINS2_IiNS_9allocatorIiEEEENS3_IS5_EEEEiiEEENS3_IS8_EEE6secondB8ue170006Ev, symObjAddr: 0x12870, symBinAddr: 0x100014CBC, symSize: 0x24 }
  - { offsetInCU: 0x232CB, offset: 0x232CB, size: 0x8, addend: 0x0, symName: __ZNSt3__122__compressed_pair_elemINS_9allocatorINS_5tupleIJNS_6vectorINS3_IiNS1_IiEEEENS1_IS5_EEEEiiEEEEELi1ELb1EE5__getB8ue170006Ev, symObjAddr: 0x12894, symBinAddr: 0x100014CE0, symSize: 0x14 }
  - { offsetInCU: 0x232F1, offset: 0x232F1, size: 0x8, addend: 0x0, symName: __ZNSt3__117__compressed_pairIPNS_5tupleIJNS_6vectorINS2_IiNS_9allocatorIiEEEENS3_IS5_EEEEiiEEENS3_IS8_EEE5firstB8ue170006Ev, symObjAddr: 0x128A8, symBinAddr: 0x100014CF4, symSize: 0x24 }
  - { offsetInCU: 0x23317, offset: 0x23317, size: 0x8, addend: 0x0, symName: __ZNSt3__122__compressed_pair_elemIPNS_5tupleIJNS_6vectorINS2_IiNS_9allocatorIiEEEENS3_IS5_EEEEiiEEELi0ELb0EE5__getB8ue170006Ev, symObjAddr: 0x128CC, symBinAddr: 0x100014D18, symSize: 0x14 }
  - { offsetInCU: 0x2333D, offset: 0x2333D, size: 0x8, addend: 0x0, symName: __ZNKSt3__16vectorINS_5tupleIJNS0_INS0_IiNS_9allocatorIiEEEENS2_IS4_EEEEiiEEENS2_IS7_EEE31__annotate_contiguous_containerB8ue170006EPKvSB_SB_SB_, symObjAddr: 0x128E0, symBinAddr: 0x100014D2C, symSize: 0x20 }
  - { offsetInCU: 0x2338F, offset: 0x2338F, size: 0x8, addend: 0x0, symName: __ZNKSt3__16vectorINS_5tupleIJNS0_INS0_IiNS_9allocatorIiEEEENS2_IS4_EEEEiiEEENS2_IS7_EEE4dataB8ue170006Ev, symObjAddr: 0x12900, symBinAddr: 0x100014D4C, symSize: 0x28 }
  - { offsetInCU: 0x233B5, offset: 0x233B5, size: 0x8, addend: 0x0, symName: __ZNKSt3__16vectorINS_5tupleIJNS0_INS0_IiNS_9allocatorIiEEEENS2_IS4_EEEEiiEEENS2_IS7_EEE8capacityB8ue170006Ev, symObjAddr: 0x12928, symBinAddr: 0x100014D74, symSize: 0x40 }
  - { offsetInCU: 0x233DB, offset: 0x233DB, size: 0x8, addend: 0x0, symName: __ZNKSt3__16vectorINS_5tupleIJNS0_INS0_IiNS_9allocatorIiEEEENS2_IS4_EEEEiiEEENS2_IS7_EEE9__end_capB8ue170006Ev, symObjAddr: 0x1297C, symBinAddr: 0x100014DC8, symSize: 0x28 }
  - { offsetInCU: 0x23401, offset: 0x23401, size: 0x8, addend: 0x0, symName: __ZNKSt3__117__compressed_pairIPNS_5tupleIJNS_6vectorINS2_IiNS_9allocatorIiEEEENS3_IS5_EEEEiiEEENS3_IS8_EEE5firstB8ue170006Ev, symObjAddr: 0x129A4, symBinAddr: 0x100014DF0, symSize: 0x24 }
  - { offsetInCU: 0x23427, offset: 0x23427, size: 0x8, addend: 0x0, symName: __ZNKSt3__122__compressed_pair_elemIPNS_5tupleIJNS_6vectorINS2_IiNS_9allocatorIiEEEENS3_IS5_EEEEiiEEELi0ELb0EE5__getB8ue170006Ev, symObjAddr: 0x129C8, symBinAddr: 0x100014E14, symSize: 0x14 }
  - { offsetInCU: 0x23466, offset: 0x23466, size: 0x8, addend: 0x0, symName: __ZNSt3__16vectorINS_5tupleIJNS0_INS0_IiNS_9allocatorIiEEEENS2_IS4_EEEEiiEEENS2_IS7_EEE21_ConstructTransactionC1B8ue170006ERS9_m, symObjAddr: 0x129DC, symBinAddr: 0x100014E28, symSize: 0x3C }
  - { offsetInCU: 0x234AE, offset: 0x234AE, size: 0x8, addend: 0x0, symName: __ZNSt3__16vectorINS_5tupleIJNS0_INS0_IiNS_9allocatorIiEEEENS2_IS4_EEEEiiEEENS2_IS7_EEE21_ConstructTransactionD1B8ue170006Ev, symObjAddr: 0x12A98, symBinAddr: 0x100014EE4, symSize: 0x2C }
  - { offsetInCU: 0x234D8, offset: 0x234D8, size: 0x8, addend: 0x0, symName: __ZNSt3__16vectorINS_5tupleIJNS0_INS0_IiNS_9allocatorIiEEEENS2_IS4_EEEEiiEEENS2_IS7_EEE21_ConstructTransactionC2B8ue170006ERS9_m, symObjAddr: 0x12AC4, symBinAddr: 0x100014F10, symSize: 0x44 }
  - { offsetInCU: 0x23540, offset: 0x23540, size: 0x8, addend: 0x0, symName: __ZNSt3__14pairIPKNS_5tupleIJNS_6vectorINS2_IiNS_9allocatorIiEEEENS3_IS5_EEEEiiEEESA_EC1B8ue170006ISA_SA_LPv0EEEOT_OT0_, symObjAddr: 0x12D18, symBinAddr: 0x100015164, symSize: 0x3C }
  - { offsetInCU: 0x2359E, offset: 0x2359E, size: 0x8, addend: 0x0, symName: __ZNSt3__14pairIPKNS_5tupleIJNS_6vectorINS2_IiNS_9allocatorIiEEEENS3_IS5_EEEEiiEEESA_EC2B8ue170006ISA_SA_LPv0EEEOT_OT0_, symObjAddr: 0x12D54, symBinAddr: 0x1000151A0, symSize: 0x34 }
  - { offsetInCU: 0x235FC, offset: 0x235FC, size: 0x8, addend: 0x0, symName: __ZNSt3__118__unwrap_iter_implIPKNS_5tupleIJNS_6vectorINS2_IiNS_9allocatorIiEEEENS3_IS5_EEEEiiEEELb1EE8__unwrapB8ue170006ESA_, symObjAddr: 0x12D88, symBinAddr: 0x1000151D4, symSize: 0x24 }
  - { offsetInCU: 0x2361F, offset: 0x2361F, size: 0x8, addend: 0x0, symName: __ZNSt3__129_AllocatorDestroyRangeReverseINS_9allocatorINS_5tupleIJNS_6vectorINS3_IiNS1_IiEEEENS1_IS5_EEEEiiEEEEEPS8_EC1B8ue170006ERS9_RSA_SD_, symObjAddr: 0x12E0C, symBinAddr: 0x100015258, symSize: 0x44 }
  - { offsetInCU: 0x23676, offset: 0x23676, size: 0x8, addend: 0x0, symName: __ZNSt3__116allocator_traitsINS_9allocatorINS_5tupleIJNS_6vectorINS3_IiNS1_IiEEEENS1_IS5_EEEEiiEEEEEE9constructB8ue170006IS8_JRKS8_EvEEvRS9_PT_DpOT0_, symObjAddr: 0x12E50, symBinAddr: 0x10001529C, symSize: 0x34 }
  - { offsetInCU: 0x236CD, offset: 0x236CD, size: 0x8, addend: 0x0, symName: __ZNSt3__128__exception_guard_exceptionsINS_29_AllocatorDestroyRangeReverseINS_9allocatorINS_5tupleIJNS_6vectorINS4_IiNS2_IiEEEENS2_IS6_EEEEiiEEEEEPS9_EEE10__completeB8ue170006Ev, symObjAddr: 0x12E84, symBinAddr: 0x1000152D0, symSize: 0x1C }
  - { offsetInCU: 0x236F3, offset: 0x236F3, size: 0x8, addend: 0x0, symName: __ZNSt3__128__exception_guard_exceptionsINS_29_AllocatorDestroyRangeReverseINS_9allocatorINS_5tupleIJNS_6vectorINS4_IiNS2_IiEEEENS2_IS6_EEEEiiEEEEEPS9_EEED1B8ue170006Ev, symObjAddr: 0x12EA0, symBinAddr: 0x1000152EC, symSize: 0x2C }
  - { offsetInCU: 0x2371D, offset: 0x2371D, size: 0x8, addend: 0x0, symName: __ZNSt3__128__exception_guard_exceptionsINS_29_AllocatorDestroyRangeReverseINS_9allocatorINS_5tupleIJNS_6vectorINS4_IiNS2_IiEEEENS2_IS6_EEEEiiEEEEEPS9_EEEC1B8ue170006ESC_, symObjAddr: 0x12ECC, symBinAddr: 0x100015318, symSize: 0x34 }
  - { offsetInCU: 0x23756, offset: 0x23756, size: 0x8, addend: 0x0, symName: __ZNSt3__128__exception_guard_exceptionsINS_29_AllocatorDestroyRangeReverseINS_9allocatorINS_5tupleIJNS_6vectorINS4_IiNS2_IiEEEENS2_IS6_EEEEiiEEEEEPS9_EEEC2B8ue170006ESC_, symObjAddr: 0x12F00, symBinAddr: 0x10001534C, symSize: 0x30 }
  - { offsetInCU: 0x2378F, offset: 0x2378F, size: 0x8, addend: 0x0, symName: __ZNSt3__129_AllocatorDestroyRangeReverseINS_9allocatorINS_5tupleIJNS_6vectorINS3_IiNS1_IiEEEENS1_IS5_EEEEiiEEEEEPS8_EC2B8ue170006ERS9_RSA_SD_, symObjAddr: 0x12F30, symBinAddr: 0x10001537C, symSize: 0x38 }
  - { offsetInCU: 0x237E6, offset: 0x237E6, size: 0x8, addend: 0x0, symName: __ZNSt3__19allocatorINS_5tupleIJNS_6vectorINS2_IiNS0_IiEEEENS0_IS4_EEEEiiEEEE9constructB8ue170006IS7_JRKS7_EEEvPT_DpOT0_, symObjAddr: 0x12F68, symBinAddr: 0x1000153B4, symSize: 0x30 }
  - { offsetInCU: 0x2383C, offset: 0x2383C, size: 0x8, addend: 0x0, symName: __ZNSt3__15tupleIJNS_6vectorINS1_IiNS_9allocatorIiEEEENS2_IS4_EEEEiiEEC1ERKS7_, symObjAddr: 0x12F98, symBinAddr: 0x1000153E4, symSize: 0x34 }
  - { offsetInCU: 0x23871, offset: 0x23871, size: 0x8, addend: 0x0, symName: __ZNSt3__15tupleIJNS_6vectorINS1_IiNS_9allocatorIiEEEENS2_IS4_EEEEiiEEC2ERKS7_, symObjAddr: 0x12FCC, symBinAddr: 0x100015418, symSize: 0x34 }
  - { offsetInCU: 0x238A6, offset: 0x238A6, size: 0x8, addend: 0x0, symName: __ZNSt3__112__tuple_implINS_15__tuple_indicesIJLm0ELm1ELm2EEEEJNS_6vectorINS3_IiNS_9allocatorIiEEEENS4_IS6_EEEEiiEEC1ERKS9_, symObjAddr: 0x13000, symBinAddr: 0x10001544C, symSize: 0x34 }
  - { offsetInCU: 0x238DB, offset: 0x238DB, size: 0x8, addend: 0x0, symName: __ZNSt3__112__tuple_implINS_15__tuple_indicesIJLm0ELm1ELm2EEEEJNS_6vectorINS3_IiNS_9allocatorIiEEEENS4_IS6_EEEEiiEEC2ERKS9_, symObjAddr: 0x13034, symBinAddr: 0x100015480, symSize: 0x4C }
  - { offsetInCU: 0x23910, offset: 0x23910, size: 0x8, addend: 0x0, symName: __ZNSt3__112__tuple_leafILm0ENS_6vectorINS1_IiNS_9allocatorIiEEEENS2_IS4_EEEELb0EEC2B8ue170006ERKS7_, symObjAddr: 0x13080, symBinAddr: 0x1000154CC, symSize: 0x34 }
  - { offsetInCU: 0x23949, offset: 0x23949, size: 0x8, addend: 0x0, symName: __ZNSt3__128__exception_guard_exceptionsINS_29_AllocatorDestroyRangeReverseINS_9allocatorINS_5tupleIJNS_6vectorINS4_IiNS2_IiEEEENS2_IS6_EEEEiiEEEEEPS9_EEED2B8ue170006Ev, symObjAddr: 0x130B4, symBinAddr: 0x100015500, symSize: 0x50 }
  - { offsetInCU: 0x23973, offset: 0x23973, size: 0x8, addend: 0x0, symName: __ZNKSt3__129_AllocatorDestroyRangeReverseINS_9allocatorINS_5tupleIJNS_6vectorINS3_IiNS1_IiEEEENS1_IS5_EEEEiiEEEEEPS8_EclB8ue170006Ev, symObjAddr: 0x13104, symBinAddr: 0x100015550, symSize: 0x68 }
  - { offsetInCU: 0x23999, offset: 0x23999, size: 0x8, addend: 0x0, symName: __ZNSt3__116reverse_iteratorIPNS_5tupleIJNS_6vectorINS2_IiNS_9allocatorIiEEEENS3_IS5_EEEEiiEEEEC1B8ue170006ES9_, symObjAddr: 0x131DC, symBinAddr: 0x100015628, symSize: 0x34 }
  - { offsetInCU: 0x239D1, offset: 0x239D1, size: 0x8, addend: 0x0, symName: __ZNSt3__116allocator_traitsINS_9allocatorINS_5tupleIJNS_6vectorINS3_IiNS1_IiEEEENS1_IS5_EEEEiiEEEEEE7destroyB8ue170006IS8_vEEvRS9_PT_, symObjAddr: 0x13258, symBinAddr: 0x1000156A4, symSize: 0x2C }
  - { offsetInCU: 0x23A0E, offset: 0x23A0E, size: 0x8, addend: 0x0, symName: __ZNSt3__116reverse_iteratorIPNS_5tupleIJNS_6vectorINS2_IiNS_9allocatorIiEEEENS3_IS5_EEEEiiEEEEppB8ue170006Ev, symObjAddr: 0x132A8, symBinAddr: 0x1000156F4, symSize: 0x20 }
  - { offsetInCU: 0x23A34, offset: 0x23A34, size: 0x8, addend: 0x0, symName: __ZNKSt3__116reverse_iteratorIPNS_5tupleIJNS_6vectorINS2_IiNS_9allocatorIiEEEENS3_IS5_EEEEiiEEEE4baseB8ue170006Ev, symObjAddr: 0x132C8, symBinAddr: 0x100015714, symSize: 0x18 }
  - { offsetInCU: 0x23A5A, offset: 0x23A5A, size: 0x8, addend: 0x0, symName: __ZNSt3__19allocatorINS_5tupleIJNS_6vectorINS2_IiNS0_IiEEEENS0_IS4_EEEEiiEEEE7destroyB8ue170006EPS7_, symObjAddr: 0x132E0, symBinAddr: 0x10001572C, symSize: 0x28 }
  - { offsetInCU: 0x23A93, offset: 0x23A93, size: 0x8, addend: 0x0, symName: __ZNSt3__119__to_address_helperINS_16reverse_iteratorIPNS_5tupleIJNS_6vectorINS3_IiNS_9allocatorIiEEEENS4_IS6_EEEEiiEEEEEvE6__callB8ue170006ERKSB_, symObjAddr: 0x13308, symBinAddr: 0x100015754, symSize: 0x38 }
  - { offsetInCU: 0x23AB6, offset: 0x23AB6, size: 0x8, addend: 0x0, symName: __ZNKSt3__116reverse_iteratorIPNS_5tupleIJNS_6vectorINS2_IiNS_9allocatorIiEEEENS3_IS5_EEEEiiEEEEptB8ue170006Ev, symObjAddr: 0x13340, symBinAddr: 0x10001578C, symSize: 0x24 }
  - { offsetInCU: 0x23ADC, offset: 0x23ADC, size: 0x8, addend: 0x0, symName: __ZNKSt3__116reverse_iteratorIPNS_5tupleIJNS_6vectorINS2_IiNS_9allocatorIiEEEENS3_IS5_EEEEiiEEEEdeB8ue170006Ev, symObjAddr: 0x13364, symBinAddr: 0x1000157B0, symSize: 0x28 }
  - { offsetInCU: 0x23B10, offset: 0x23B10, size: 0x8, addend: 0x0, symName: __ZNSt3__116reverse_iteratorIPNS_5tupleIJNS_6vectorINS2_IiNS_9allocatorIiEEEENS3_IS5_EEEEiiEEEEC2B8ue170006ES9_, symObjAddr: 0x1338C, symBinAddr: 0x1000157D8, symSize: 0x28 }
  - { offsetInCU: 0x23B48, offset: 0x23B48, size: 0x8, addend: 0x0, symName: __ZNSt3__118__unwrap_iter_implIPNS_5tupleIJNS_6vectorINS2_IiNS_9allocatorIiEEEENS3_IS5_EEEEiiEEELb1EE8__unwrapB8ue170006ES9_, symObjAddr: 0x133B4, symBinAddr: 0x100015800, symSize: 0x24 }
  - { offsetInCU: 0x23B6B, offset: 0x23B6B, size: 0x8, addend: 0x0, symName: __ZNSt3__118__unwrap_iter_implIPNS_5tupleIJNS_6vectorINS2_IiNS_9allocatorIiEEEENS3_IS5_EEEEiiEEELb1EE8__rewrapB8ue170006ES9_S9_, symObjAddr: 0x133D8, symBinAddr: 0x100015824, symSize: 0x50 }
  - { offsetInCU: 0x23B9C, offset: 0x23B9C, size: 0x8, addend: 0x0, symName: __ZNSt3__16vectorINS_5tupleIJNS0_INS0_IiNS_9allocatorIiEEEENS2_IS4_EEEEiiEEENS2_IS7_EEE21_ConstructTransactionD2B8ue170006Ev, symObjAddr: 0x13428, symBinAddr: 0x100015874, symSize: 0x20 }
  - { offsetInCU: 0x23BC6, offset: 0x23BC6, size: 0x8, addend: 0x0, symName: __ZNSt3__128__exception_guard_exceptionsINS_6vectorINS_5tupleIJNS1_INS1_IiNS_9allocatorIiEEEENS3_IS5_EEEEiiEEENS3_IS8_EEE16__destroy_vectorEED2B8ue170006Ev, symObjAddr: 0x13448, symBinAddr: 0x100015894, symSize: 0x50 }
  - { offsetInCU: 0x23BF0, offset: 0x23BF0, size: 0x8, addend: 0x0, symName: __ZNSt3__16vectorINS_5tupleIJNS0_INS0_IiNS_9allocatorIiEEEENS2_IS4_EEEEiiEEENS2_IS7_EEE16__destroy_vectorclB8ue170006Ev, symObjAddr: 0x13498, symBinAddr: 0x1000158E4, symSize: 0x90 }
  - { offsetInCU: 0x23C16, offset: 0x23C16, size: 0x8, addend: 0x0, symName: __ZNSt3__16vectorINS_5tupleIJNS0_INS0_IiNS_9allocatorIiEEEENS2_IS4_EEEEiiEEENS2_IS7_EEE7__clearB8ue170006Ev, symObjAddr: 0x13528, symBinAddr: 0x100015974, symSize: 0x28 }
  - { offsetInCU: 0x23C3C, offset: 0x23C3C, size: 0x8, addend: 0x0, symName: __ZNKSt3__16vectorINS_5tupleIJNS0_INS0_IiNS_9allocatorIiEEEENS2_IS4_EEEEiiEEENS2_IS7_EEE17__annotate_deleteB8ue170006Ev, symObjAddr: 0x13550, symBinAddr: 0x10001599C, symSize: 0xB8 }
  - { offsetInCU: 0x23C62, offset: 0x23C62, size: 0x8, addend: 0x0, symName: __ZNSt3__116allocator_traitsINS_9allocatorINS_5tupleIJNS_6vectorINS3_IiNS1_IiEEEENS1_IS5_EEEEiiEEEEEE10deallocateB8ue170006ERS9_PS8_m, symObjAddr: 0x13608, symBinAddr: 0x100015A54, symSize: 0x34 }
  - { offsetInCU: 0x23CA4, offset: 0x23CA4, size: 0x8, addend: 0x0, symName: __ZNSt3__16vectorINS_5tupleIJNS0_INS0_IiNS_9allocatorIiEEEENS2_IS4_EEEEiiEEENS2_IS7_EEE22__base_destruct_at_endB8ue170006EPS7_, symObjAddr: 0x1363C, symBinAddr: 0x100015A88, symSize: 0x8C }
  - { offsetInCU: 0x23CE8, offset: 0x23CE8, size: 0x8, addend: 0x0, symName: __ZNKSt3__16vectorINS_5tupleIJNS0_INS0_IiNS_9allocatorIiEEEENS2_IS4_EEEEiiEEENS2_IS7_EEE4sizeB8ue170006Ev, symObjAddr: 0x136C8, symBinAddr: 0x100015B14, symSize: 0x28 }
  - { offsetInCU: 0x23D0E, offset: 0x23D0E, size: 0x8, addend: 0x0, symName: __ZNSt3__19allocatorINS_5tupleIJNS_6vectorINS2_IiNS0_IiEEEENS0_IS4_EEEEiiEEEE10deallocateB8ue170006EPS7_m, symObjAddr: 0x136F0, symBinAddr: 0x100015B3C, symSize: 0x40 }
  - { offsetInCU: 0x23D50, offset: 0x23D50, size: 0x8, addend: 0x0, symName: __ZNSt3__16vectorINS_5tupleIJNS0_INS0_IiNS_9allocatorIiEEEENS2_IS4_EEEEiiEEENS2_IS7_EEED2B8ue170006Ev, symObjAddr: 0x13730, symBinAddr: 0x100015B7C, symSize: 0x40 }
  - { offsetInCU: 0x23D7A, offset: 0x23D7A, size: 0x8, addend: 0x0, symName: __ZNSt3__16vectorINS_5tupleIJNS0_INS0_IiNS_9allocatorIiEEEENS2_IS4_EEEEiiEEENS2_IS7_EEE11__make_iterB8ue170006EPS7_, symObjAddr: 0x13770, symBinAddr: 0x100015BBC, symSize: 0x30 }
  - { offsetInCU: 0x23DAF, offset: 0x23DAF, size: 0x8, addend: 0x0, symName: __ZNSt3__111__wrap_iterIPNS_5tupleIJNS_6vectorINS2_IiNS_9allocatorIiEEEENS3_IS5_EEEEiiEEEEC1B8ue170006ES9_, symObjAddr: 0x137A0, symBinAddr: 0x100015BEC, symSize: 0x34 }
  - { offsetInCU: 0x23DE7, offset: 0x23DE7, size: 0x8, addend: 0x0, symName: __ZNSt3__111__wrap_iterIPNS_5tupleIJNS_6vectorINS2_IiNS_9allocatorIiEEEENS3_IS5_EEEEiiEEEEC2B8ue170006ES9_, symObjAddr: 0x137D4, symBinAddr: 0x100015C20, symSize: 0x20 }
...
