---
triple:          'arm64-apple-darwin'
binary-path:     xerifes
relocations:
  - { offsetInCU: 0x5874, offset: 0x5874, size: 0x8, addend: 0x0, symName: __ZNSt3__16chronomiB8ue170006IxNS_5ratioILl1ELl1000000000EEExS3_EENS_11common_typeIJNS0_8durationIT_T0_EENS5_IT1_T2_EEEE4typeERKS8_RKSB_, symObjAddr: 0xFDDC, symBinAddr: 0x100010B74, symSize: 0x70 }
  - { offsetInCU: 0x58E1, offset: 0x58E1, size: 0x8, addend: 0x0, symName: __ZNSt3__16chrono13duration_castB8ue170006INS0_8durationIxNS_5ratioILl1ELl1000EEEEExNS3_ILl1ELl1000000000EEEEENS_9enable_ifIXsr13__is_durationIT_EE5valueES8_E4typeERKNS2_IT0_T1_EE, symObjAddr: 0x1CDC, symBinAddr: 0x100002A74, symSize: 0x30 }
  - { offsetInCU: 0x5928, offset: 0x5928, size: 0x8, addend: 0x0, symName: __ZNSt3__16chronomiB8ue170006INS0_12steady_clockENS0_8durationIxNS_5ratioILl1ELl1000000000EEEEES6_EENS_11common_typeIJT0_T1_EE4typeERKNS0_10time_pointIT_S8_EERKNSC_ISD_S9_EE, symObjAddr: 0x1D0C, symBinAddr: 0x100002AA4, symSize: 0x58 }
  - { offsetInCU: 0x5C3E, offset: 0x5C3E, size: 0x8, addend: 0x0, symName: __ZNSt3__17advanceB8ue170006IPNS_5tupleIJiiiEEEllvEEvRT_T0_, symObjAddr: 0x73B8, symBinAddr: 0x100008150, symSize: 0x38 }
  - { offsetInCU: 0x94D6, offset: 0x94D6, size: 0x8, addend: 0x0, symName: __ZNSt3__113__fill_n_trueB8ue170006INS_6vectorIbNS_9allocatorIbEEEEEEvNS_14__bit_iteratorIT_Lb0EXLi0EEEENS6_9size_typeE, symObjAddr: 0x82FC, symBinAddr: 0x100009094, symSize: 0x160 }
  - { offsetInCU: 0x959B, offset: 0x959B, size: 0x8, addend: 0x0, symName: __ZNSt3__114__fill_n_falseB8ue170006INS_6vectorIbNS_9allocatorIbEEEEEEvNS_14__bit_iteratorIT_Lb0EXLi0EEEENS6_9size_typeE, symObjAddr: 0x8490, symBinAddr: 0x100009228, symSize: 0x15C }
  - { offsetInCU: 0xC7EA, offset: 0xC7EA, size: 0x8, addend: 0x0, symName: __ZNSt3__124__put_character_sequenceB8ue170006IcNS_11char_traitsIcEEEERNS_13basic_ostreamIT_T0_EES7_PKS4_m, symObjAddr: 0xEA60, symBinAddr: 0x10000F7F8, symSize: 0x1EC }
  - { offsetInCU: 0xD653, offset: 0xD653, size: 0x8, addend: 0x0, symName: __ZNSt3__117__floyd_sift_downB8ue170006INS_17_ClassicAlgPolicyERNS_7greaterI6EstadoEENS_11__wrap_iterIPS3_EEEET1_S9_OT0_NS_15iterator_traitsIS9_E15difference_typeE, symObjAddr: 0x100D0, symBinAddr: 0x100010E68, symSize: 0x148 }
  - { offsetInCU: 0x1136B, offset: 0x1136B, size: 0x8, addend: 0x0, symName: __ZNSt3__1neB8ue170006IPKNS_5tupleIJiiiEEEEEbRKNS_11__wrap_iterIT_EES9_, symObjAddr: 0x58C, symBinAddr: 0x100001324, symSize: 0x34 }
  - { offsetInCU: 0x113AE, offset: 0x113AE, size: 0x8, addend: 0x0, symName: __ZNSt3__13tieB8ue170006IJiiiEEENS_5tupleIJDpRT_EEES4_, symObjAddr: 0x5D8, symBinAddr: 0x100001370, symSize: 0x40 }
  - { offsetInCU: 0x11953, offset: 0x11953, size: 0x8, addend: 0x0, symName: __ZNSt3__13maxB8ue170006IiEERKT_S3_S3_, symObjAddr: 0x654, symBinAddr: 0x1000013EC, symSize: 0x2C }
  - { offsetInCU: 0x11996, offset: 0x11996, size: 0x8, addend: 0x0, symName: __ZNSt3__13minB8ue170006IiEERKT_S3_S3_, symObjAddr: 0x680, symBinAddr: 0x100001418, symSize: 0x2C }
  - { offsetInCU: 0x119D9, offset: 0x119D9, size: 0x8, addend: 0x0, symName: __ZNSt3__1neB8ue170006IPiEEbRKNS_11__wrap_iterIT_EES6_, symObjAddr: 0xBDC, symBinAddr: 0x100001974, symSize: 0x34 }
  - { offsetInCU: 0x11A1C, offset: 0x11A1C, size: 0x8, addend: 0x0, symName: __ZNSt3__1lsB8ue170006INS_11char_traitsIcEEEERNS_13basic_ostreamIcT_EES6_PKc, symObjAddr: 0x1250, symBinAddr: 0x100001FE8, symSize: 0x48 }
  - { offsetInCU: 0x11A62, offset: 0x11A62, size: 0x8, addend: 0x0, symName: __ZNSt3__1lsB8ue170006IcNS_11char_traitsIcEEEERNS_13basic_ostreamIT_T0_EES7_RKNS_8__iom_t6E, symObjAddr: 0x1298, symBinAddr: 0x100002030, symSize: 0x40 }
  - { offsetInCU: 0x11AB1, offset: 0x11AB1, size: 0x8, addend: 0x0, symName: __ZNSt3__14setwB8ue170006Ei, symObjAddr: 0x12D8, symBinAddr: 0x100002070, symSize: 0x2C }
  - { offsetInCU: 0x11ADF, offset: 0x11ADF, size: 0x8, addend: 0x0, symName: __ZNSt3__14endlB8ue170006IcNS_11char_traitsIcEEEERNS_13basic_ostreamIT_T0_EES7_, symObjAddr: 0x1330, symBinAddr: 0x1000020C8, symSize: 0x58 }
  - { offsetInCU: 0x11B1F, offset: 0x11B1F, size: 0x8, addend: 0x0, symName: '__ZNSt3__110accumulateB8ue170006INS_11__wrap_iterIPKNS_5tupleIJiiiEEEEEiZ12imprime_mapaRKNS_6vectorINS7_IiNS_9allocatorIiEEEENS8_ISA_EEEERK6EstadoiE3$_0EET0_T_SK_SJ_T1_', symObjAddr: 0x1388, symBinAddr: 0x100002120, symSize: 0x74 }
  - { offsetInCU: 0x11B90, offset: 0x11B90, size: 0x8, addend: 0x0, symName: __ZNSt3__15beginB8ue170006INS_6vectorINS_5tupleIJiiiEEENS_9allocatorIS3_EEEEEEDTcldtfp_5beginEERKT_, symObjAddr: 0x13FC, symBinAddr: 0x100002194, symSize: 0x2C }
  - { offsetInCU: 0x11BC5, offset: 0x11BC5, size: 0x8, addend: 0x0, symName: __ZNSt3__13endB8ue170006INS_6vectorINS_5tupleIJiiiEEENS_9allocatorIS3_EEEEEEDTcldtfp_3endEERKT_, symObjAddr: 0x1428, symBinAddr: 0x1000021C0, symSize: 0x2C }
  - { offsetInCU: 0x11E5F, offset: 0x11E5F, size: 0x8, addend: 0x0, symName: __ZNSt3__1neB8ue170006IP6EstadoEEbRKNS_11__wrap_iterIT_EES7_, symObjAddr: 0x1EB8, symBinAddr: 0x100002C50, symSize: 0x34 }
  - { offsetInCU: 0x11EA2, offset: 0x11EA2, size: 0x8, addend: 0x0, symName: __ZNSt3__1neB8ue170006IPNS_5tupleIJiNS_6vectorINS2_IiNS_9allocatorIiEEEENS3_IS5_EEEEiiiEEEEEbRKNS_11__wrap_iterIT_EESE_, symObjAddr: 0x5340, symBinAddr: 0x1000060D8, symSize: 0x34 }
  - { offsetInCU: 0x11EE5, offset: 0x11EE5, size: 0x8, addend: 0x0, symName: __ZNSt3__13getB8ue170006ILm0EJiNS_6vectorINS1_IiNS_9allocatorIiEEEENS2_IS4_EEEEiiiEEERKNS_13tuple_elementIXT_ENS_5tupleIJDpT0_EEEE4typeERKSB_, symObjAddr: 0x538C, symBinAddr: 0x100006124, symSize: 0x24 }
  - { offsetInCU: 0x11F3C, offset: 0x11F3C, size: 0x8, addend: 0x0, symName: __ZNSt3__13getB8ue170006ILm1EJiNS_6vectorINS1_IiNS_9allocatorIiEEEENS2_IS4_EEEEiiiEEERKNS_13tuple_elementIXT_ENS_5tupleIJDpT0_EEEE4typeERKSB_, symObjAddr: 0x53B0, symBinAddr: 0x100006148, symSize: 0x28 }
  - { offsetInCU: 0x11F93, offset: 0x11F93, size: 0x8, addend: 0x0, symName: __ZNSt3__13getB8ue170006ILm2EJiNS_6vectorINS1_IiNS_9allocatorIiEEEENS2_IS4_EEEEiiiEEERKNS_13tuple_elementIXT_ENS_5tupleIJDpT0_EEEE4typeERKSB_, symObjAddr: 0x53D8, symBinAddr: 0x100006170, symSize: 0x28 }
  - { offsetInCU: 0x11FEA, offset: 0x11FEA, size: 0x8, addend: 0x0, symName: __ZNSt3__13getB8ue170006ILm3EJiNS_6vectorINS1_IiNS_9allocatorIiEEEENS2_IS4_EEEEiiiEEERKNS_13tuple_elementIXT_ENS_5tupleIJDpT0_EEEE4typeERKSB_, symObjAddr: 0x5400, symBinAddr: 0x100006198, symSize: 0x28 }
  - { offsetInCU: 0x12041, offset: 0x12041, size: 0x8, addend: 0x0, symName: __ZNSt3__13getB8ue170006ILm4EJiNS_6vectorINS1_IiNS_9allocatorIiEEEENS2_IS4_EEEEiiiEEERKNS_13tuple_elementIXT_ENS_5tupleIJDpT0_EEEE4typeERKSB_, symObjAddr: 0x5428, symBinAddr: 0x1000061C0, symSize: 0x28 }
  - { offsetInCU: 0x12098, offset: 0x12098, size: 0x8, addend: 0x0, symName: __ZNSt3__1eqB8ue170006IPKNS_5tupleIJiiiEEEEEbRKNS_11__wrap_iterIT_EES9_, symObjAddr: 0x54C8, symBinAddr: 0x100006260, symSize: 0x48 }
  - { offsetInCU: 0x120DB, offset: 0x120DB, size: 0x8, addend: 0x0, symName: __ZNSt3__1eqB8ue170006IPiEEbRKNS_11__wrap_iterIT_EES6_, symObjAddr: 0x5528, symBinAddr: 0x1000062C0, symSize: 0x48 }
  - { offsetInCU: 0x1211E, offset: 0x1211E, size: 0x8, addend: 0x0, symName: __ZNSt3__122__make_exception_guardB8ue170006INS_6vectorINS_5tupleIJiiiEEENS_9allocatorIS3_EEE16__destroy_vectorEEENS_28__exception_guard_exceptionsIT_EES9_, symObjAddr: 0x586C, symBinAddr: 0x100006604, symSize: 0x40 }
  - { offsetInCU: 0x12153, offset: 0x12153, size: 0x8, addend: 0x0, symName: __ZNSt3__119__allocate_at_leastB8ue170006INS_9allocatorINS_5tupleIJiiiEEEEEEENS_19__allocation_resultINS_16allocator_traitsIT_E7pointerEEERS7_m, symObjAddr: 0x5B5C, symBinAddr: 0x1000068F4, symSize: 0x40 }
  - { offsetInCU: 0x12196, offset: 0x12196, size: 0x8, addend: 0x0, symName: __ZNSt3__13minB8ue170006ImEERKT_S3_S3_, symObjAddr: 0x5CB4, symBinAddr: 0x100006A4C, symSize: 0x2C }
  - { offsetInCU: 0x123DA, offset: 0x123DA, size: 0x8, addend: 0x0, symName: __ZNSt3__13minB8ue170006ImNS_6__lessIvvEEEERKT_S5_S5_T0_, symObjAddr: 0x5D24, symBinAddr: 0x100006ABC, symSize: 0x54 }
  - { offsetInCU: 0x124AA, offset: 0x124AA, size: 0x8, addend: 0x0, symName: __ZNSt3__120__throw_length_errorB8ue170006EPKc, symObjAddr: 0x5DCC, symBinAddr: 0x100006B64, symSize: 0x64 }
  - { offsetInCU: 0x124D4, offset: 0x124D4, size: 0x8, addend: 0x0, symName: __ZNSt3__117__libcpp_allocateB8ue170006Emm, symObjAddr: 0x5F40, symBinAddr: 0x100006CD8, symSize: 0x28 }
  - { offsetInCU: 0x12511, offset: 0x12511, size: 0x8, addend: 0x0, symName: __ZNSt3__121__libcpp_operator_newB8ue170006IJmEEEPvDpT_, symObjAddr: 0x5F68, symBinAddr: 0x100006D00, symSize: 0x24 }
  - { offsetInCU: 0x1254B, offset: 0x1254B, size: 0x8, addend: 0x0, symName: __ZNSt3__112__to_addressB8ue170006INS_5tupleIJiiiEEEEEPT_S4_, symObjAddr: 0x6084, symBinAddr: 0x100006E1C, symSize: 0x14 }
  - { offsetInCU: 0x1257F, offset: 0x1257F, size: 0x8, addend: 0x0, symName: __ZNSt3__130__uninitialized_allocator_copyB8ue170006INS_9allocatorINS_5tupleIJiiiEEEEEPS3_S5_S5_EET2_RT_T0_T1_S6_, symObjAddr: 0x6134, symBinAddr: 0x100006ECC, symSize: 0x80 }
  - { offsetInCU: 0x1261C, offset: 0x1261C, size: 0x8, addend: 0x0, symName: __ZNSt3__114__unwrap_rangeB8ue170006IPNS_5tupleIJiiiEEES3_EENS_4pairIT0_S5_EET_S7_, symObjAddr: 0x622C, symBinAddr: 0x100006FC4, symSize: 0x60 }
  - { offsetInCU: 0x12668, offset: 0x12668, size: 0x8, addend: 0x0, symName: __ZNSt3__135__uninitialized_allocator_copy_implB8ue170006INS_9allocatorINS_5tupleIJiiiEEEEEPS3_S5_S5_EET2_RT_T0_T1_S6_, symObjAddr: 0x628C, symBinAddr: 0x100007024, symSize: 0xF4 }
  - { offsetInCU: 0x12706, offset: 0x12706, size: 0x8, addend: 0x0, symName: __ZNSt3__113__unwrap_iterB8ue170006IPNS_5tupleIJiiiEEENS_18__unwrap_iter_implIS3_Lb1EEELi0EEEDTclsrT0_8__unwrapclsr3stdE7declvalIT_EEEES7_, symObjAddr: 0x6380, symBinAddr: 0x100007118, symSize: 0x24 }
  - { offsetInCU: 0x1274A, offset: 0x1274A, size: 0x8, addend: 0x0, symName: __ZNSt3__113__rewrap_iterB8ue170006IPNS_5tupleIJiiiEEES3_NS_18__unwrap_iter_implIS3_Lb1EEEEET_S6_T0_, symObjAddr: 0x63A4, symBinAddr: 0x10000713C, symSize: 0x3C }
  - { offsetInCU: 0x1279F, offset: 0x1279F, size: 0x8, addend: 0x0, symName: __ZNSt3__19make_pairB8ue170006IPNS_5tupleIJiiiEEES3_EENS_4pairINS_18__unwrap_ref_decayIT_E4typeENS5_IT0_E4typeEEEOS6_OS9_, symObjAddr: 0x63E0, symBinAddr: 0x100007178, symSize: 0x38 }
  - { offsetInCU: 0x128C2, offset: 0x128C2, size: 0x8, addend: 0x0, symName: __ZNSt3__122__make_exception_guardB8ue170006INS_29_AllocatorDestroyRangeReverseINS_9allocatorINS_5tupleIJiiiEEEEEPS4_EEEENS_28__exception_guard_exceptionsIT_EES9_, symObjAddr: 0x6488, symBinAddr: 0x100007220, symSize: 0x4C }
  - { offsetInCU: 0x128F8, offset: 0x128F8, size: 0x8, addend: 0x0, symName: __ZNSt3__119__allocator_destroyB8ue170006INS_9allocatorINS_5tupleIJiiiEEEEENS_16reverse_iteratorIPS3_EES7_EEvRT_T0_T1_, symObjAddr: 0x6718, symBinAddr: 0x1000074B0, symSize: 0x70 }
  - { offsetInCU: 0x1295B, offset: 0x1295B, size: 0x8, addend: 0x0, symName: __ZNSt3__1neB8ue170006IPNS_5tupleIJiiiEEES3_EEbRKNS_16reverse_iteratorIT_EERKNS4_IT0_EE, symObjAddr: 0x67BC, symBinAddr: 0x100007554, symSize: 0x48 }
  - { offsetInCU: 0x129A7, offset: 0x129A7, size: 0x8, addend: 0x0, symName: __ZNSt3__112__to_addressB8ue170006INS_16reverse_iteratorIPNS_5tupleIJiiiEEEEEvEEu7__decayIDTclsr19__to_address_helperIT_EE6__callclsr3stdE7declvalIRKS6_EEEEES8_, symObjAddr: 0x6830, symBinAddr: 0x1000075C8, symSize: 0x24 }
  - { offsetInCU: 0x12A59, offset: 0x12A59, size: 0x8, addend: 0x0, symName: __ZNSt3__119__libcpp_deallocateB8ue170006EPvmm, symObjAddr: 0x6CC8, symBinAddr: 0x100007A60, symSize: 0x30 }
  - { offsetInCU: 0x12AA1, offset: 0x12AA1, size: 0x8, addend: 0x0, symName: __ZNSt3__127__do_deallocate_handle_sizeB8ue170006IJEEEvPvmDpT_, symObjAddr: 0x6CF8, symBinAddr: 0x100007A90, symSize: 0x28 }
  - { offsetInCU: 0x12ADF, offset: 0x12ADF, size: 0x8, addend: 0x0, symName: __ZNSt3__124__libcpp_operator_deleteB8ue170006IJPvEEEvDpT_, symObjAddr: 0x6D20, symBinAddr: 0x100007AB8, symSize: 0x24 }
  - { offsetInCU: 0x12B30, offset: 0x12B30, size: 0x8, addend: 0x0, symName: __ZNSt3__18distanceB8ue170006IPNS_5tupleIJiiiEEEEENS_15iterator_traitsIT_E15difference_typeES5_S5_, symObjAddr: 0x7140, symBinAddr: 0x100007ED8, symSize: 0x2C }
  - { offsetInCU: 0x12B73, offset: 0x12B73, size: 0x8, addend: 0x0, symName: __ZNSt3__14nextB8ue170006IPNS_5tupleIJiiiEEEEENS_9enable_ifIXsr29__has_input_iterator_categoryIT_EE5valueES5_E4typeES5_NS_15iterator_traitsIS5_E15difference_typeE, symObjAddr: 0x716C, symBinAddr: 0x100007F04, symSize: 0x34 }
  - { offsetInCU: 0x12BB6, offset: 0x12BB6, size: 0x8, addend: 0x0, symName: __ZNSt3__14copyB8ue170006IPNS_5tupleIJiiiEEES3_EET0_T_S5_S4_, symObjAddr: 0x71A0, symBinAddr: 0x100007F38, symSize: 0x40 }
  - { offsetInCU: 0x12C10, offset: 0x12C10, size: 0x8, addend: 0x0, symName: __ZNSt3__16__copyB8ue170006INS_17_ClassicAlgPolicyEPNS_5tupleIJiiiEEES4_S4_EENS_4pairIT0_T2_EES6_T1_S7_, symObjAddr: 0x71E0, symBinAddr: 0x100007F78, symSize: 0x44 }
  - { offsetInCU: 0x12C7D, offset: 0x12C7D, size: 0x8, addend: 0x0, symName: __ZNSt3__121__convert_to_integralB8ue170006El, symObjAddr: 0x73F0, symBinAddr: 0x100008188, symSize: 0x14 }
  - { offsetInCU: 0x12CA9, offset: 0x12CA9, size: 0x8, addend: 0x0, symName: __ZNSt3__19__advanceB8ue170006IPNS_5tupleIJiiiEEEEEvRT_NS_15iterator_traitsIS4_E15difference_typeENS_26random_access_iterator_tagE, symObjAddr: 0x7404, symBinAddr: 0x10000819C, symSize: 0x30 }
  - { offsetInCU: 0x12CF1, offset: 0x12CF1, size: 0x8, addend: 0x0, symName: __ZNSt3__123__dispatch_copy_or_moveB8ue170006INS_17_ClassicAlgPolicyENS_11__copy_loopIS1_EENS_14__copy_trivialEPNS_5tupleIJiiiEEES7_S7_EENS_4pairIT2_T4_EES9_T3_SA_, symObjAddr: 0x7434, symBinAddr: 0x1000081CC, symSize: 0x44 }
  - { offsetInCU: 0x12D6F, offset: 0x12D6F, size: 0x8, addend: 0x0, symName: __ZNSt3__121__unwrap_and_dispatchB8ue170006INS_10__overloadINS_11__copy_loopINS_17_ClassicAlgPolicyEEENS_14__copy_trivialEEEPNS_5tupleIJiiiEEES9_S9_Li0EEENS_4pairIT0_T2_EESB_T1_SC_, symObjAddr: 0x7478, symBinAddr: 0x100008210, symSize: 0xB4 }
  - { offsetInCU: 0x12E97, offset: 0x12E97, size: 0x8, addend: 0x0, symName: __ZNSt3__114__rewrap_rangeB8ue170006IPNS_5tupleIJiiiEEES3_EET_S4_T0_, symObjAddr: 0x75B4, symBinAddr: 0x10000834C, symSize: 0x2C }
  - { offsetInCU: 0x12EE3, offset: 0x12EE3, size: 0x8, addend: 0x0, symName: __ZNSt3__124__memberwise_copy_assignB8ue170006INS_5tupleIJiiiEEES2_JLm0ELm1ELm2EEEEvRT_RKT0_NS_15__tuple_indicesIJXspT1_EEEE, symObjAddr: 0x761C, symBinAddr: 0x1000083B4, symSize: 0xB0 }
  - { offsetInCU: 0x12F53, offset: 0x12F53, size: 0x8, addend: 0x0, symName: __ZNSt3__19__swallowB8ue170006IJiiiEEEvDpOT_, symObjAddr: 0x76CC, symBinAddr: 0x100008464, symSize: 0x18 }
  - { offsetInCU: 0x12FA7, offset: 0x12FA7, size: 0x8, addend: 0x0, symName: __ZNSt3__13getB8ue170006ILm0EJiiiEEERKNS_13tuple_elementIXT_ENS_5tupleIJDpT0_EEEE4typeERKS5_, symObjAddr: 0x76E4, symBinAddr: 0x10000847C, symSize: 0x24 }
  - { offsetInCU: 0x12FF3, offset: 0x12FF3, size: 0x8, addend: 0x0, symName: __ZNSt3__13getB8ue170006ILm0EJiiiEEERNS_13tuple_elementIXT_ENS_5tupleIJDpT0_EEEE4typeERS5_, symObjAddr: 0x7708, symBinAddr: 0x1000084A0, symSize: 0x24 }
  - { offsetInCU: 0x1303F, offset: 0x1303F, size: 0x8, addend: 0x0, symName: __ZNSt3__13getB8ue170006ILm1EJiiiEEERKNS_13tuple_elementIXT_ENS_5tupleIJDpT0_EEEE4typeERKS5_, symObjAddr: 0x772C, symBinAddr: 0x1000084C4, symSize: 0x28 }
  - { offsetInCU: 0x1308B, offset: 0x1308B, size: 0x8, addend: 0x0, symName: __ZNSt3__13getB8ue170006ILm1EJiiiEEERNS_13tuple_elementIXT_ENS_5tupleIJDpT0_EEEE4typeERS5_, symObjAddr: 0x7754, symBinAddr: 0x1000084EC, symSize: 0x28 }
  - { offsetInCU: 0x130D7, offset: 0x130D7, size: 0x8, addend: 0x0, symName: __ZNSt3__13getB8ue170006ILm2EJiiiEEERKNS_13tuple_elementIXT_ENS_5tupleIJDpT0_EEEE4typeERKS5_, symObjAddr: 0x777C, symBinAddr: 0x100008514, symSize: 0x28 }
  - { offsetInCU: 0x13124, offset: 0x13124, size: 0x8, addend: 0x0, symName: __ZNSt3__13getB8ue170006ILm2EJiiiEEERNS_13tuple_elementIXT_ENS_5tupleIJDpT0_EEEE4typeERS5_, symObjAddr: 0x77A4, symBinAddr: 0x10000853C, symSize: 0x28 }
  - { offsetInCU: 0x13171, offset: 0x13171, size: 0x8, addend: 0x0, symName: __ZNSt3__13maxB8ue170006ImEERKT_S3_S3_, symObjAddr: 0x7958, symBinAddr: 0x1000086F0, symSize: 0x2C }
  - { offsetInCU: 0x131B4, offset: 0x131B4, size: 0x8, addend: 0x0, symName: __ZNSt3__13maxB8ue170006ImNS_6__lessIvvEEEERKT_S5_S5_T0_, symObjAddr: 0x7984, symBinAddr: 0x10000871C, symSize: 0x54 }
  - { offsetInCU: 0x1320F, offset: 0x1320F, size: 0x8, addend: 0x0, symName: __ZNSt3__110__distanceB8ue170006IPNS_5tupleIJiiiEEEEENS_15iterator_traitsIT_E15difference_typeES5_S5_NS_26random_access_iterator_tagE, symObjAddr: 0x79D8, symBinAddr: 0x100008770, symSize: 0x28 }
  - { offsetInCU: 0x1325B, offset: 0x1325B, size: 0x8, addend: 0x0, symName: __ZNSt3__1eqB8ue170006IP6EstadoEEbRKNS_11__wrap_iterIT_EES7_, symObjAddr: 0x7A00, symBinAddr: 0x100008798, symSize: 0x48 }
  - { offsetInCU: 0x1329E, offset: 0x1329E, size: 0x8, addend: 0x0, symName: __ZNSt3__1eqB8ue170006IPNS_5tupleIJiNS_6vectorINS2_IiNS_9allocatorIiEEEENS3_IS5_EEEEiiiEEEEEbRKNS_11__wrap_iterIT_EESE_, symObjAddr: 0x7B40, symBinAddr: 0x1000088D8, symSize: 0x48 }
  - { offsetInCU: 0x132E1, offset: 0x132E1, size: 0x8, addend: 0x0, symName: __ZNSt3__119__allocate_at_leastB8ue170006INS_9allocatorImEEEENS_19__allocation_resultINS_16allocator_traitsIT_E7pointerEEERS5_m, symObjAddr: 0x7FBC, symBinAddr: 0x100008D54, symSize: 0x40 }
  - { offsetInCU: 0x13526, offset: 0x13526, size: 0x8, addend: 0x0, symName: __ZNSt3__16fill_nB8ue170006INS_6vectorIbNS_9allocatorIbEEEEEEvNS_14__bit_iteratorIT_Lb0EXLi0EEEENS6_9size_typeEb, symObjAddr: 0x8204, symBinAddr: 0x100008F9C, symSize: 0x94 }
  - { offsetInCU: 0x13578, offset: 0x13578, size: 0x8, addend: 0x0, symName: __ZNSt3__16fill_nB8ue170006IPmmmEET_S2_T0_RKT1_, symObjAddr: 0x85EC, symBinAddr: 0x100009384, symSize: 0x44 }
  - { offsetInCU: 0x135DC, offset: 0x135DC, size: 0x8, addend: 0x0, symName: __ZNSt3__112__to_addressB8ue170006ImEEPT_S2_, symObjAddr: 0x8630, symBinAddr: 0x1000093C8, symSize: 0x14 }
  - { offsetInCU: 0x13611, offset: 0x13611, size: 0x8, addend: 0x0, symName: __ZNSt3__18__fill_nB8ue170006IPmmmEET_S2_T0_RKT1_, symObjAddr: 0x8644, symBinAddr: 0x1000093DC, symSize: 0x64 }
  - { offsetInCU: 0x13674, offset: 0x13674, size: 0x8, addend: 0x0, symName: __ZNSt3__121__convert_to_integralB8ue170006Em, symObjAddr: 0x86A8, symBinAddr: 0x100009440, symSize: 0x14 }
  - { offsetInCU: 0x1369F, offset: 0x1369F, size: 0x8, addend: 0x0, symName: __ZNSt3__16fill_nB8ue170006IPmmiEET_S2_T0_RKT1_, symObjAddr: 0x86EC, symBinAddr: 0x100009484, symSize: 0x44 }
  - { offsetInCU: 0x13703, offset: 0x13703, size: 0x8, addend: 0x0, symName: __ZNSt3__18__fill_nB8ue170006IPmmiEET_S2_T0_RKT1_, symObjAddr: 0x8730, symBinAddr: 0x1000094C8, symSize: 0x64 }
  - { offsetInCU: 0x13765, offset: 0x13765, size: 0x8, addend: 0x0, symName: __ZNSt3__122__make_exception_guardB8ue170006INS_6vectorINS1_IbNS_9allocatorIbEEEENS2_IS4_EEE16__destroy_vectorEEENS_28__exception_guard_exceptionsIT_EES9_, symObjAddr: 0x8A9C, symBinAddr: 0x100009834, symSize: 0x40 }
  - { offsetInCU: 0x1379A, offset: 0x1379A, size: 0x8, addend: 0x0, symName: __ZNSt3__119__allocate_at_leastB8ue170006INS_9allocatorINS_6vectorIbNS1_IbEEEEEEEENS_19__allocation_resultINS_16allocator_traitsIT_E7pointerEEERS8_m, symObjAddr: 0x8E98, symBinAddr: 0x100009C30, symSize: 0x40 }
  - { offsetInCU: 0x137DE, offset: 0x137DE, size: 0x8, addend: 0x0, symName: __ZNSt3__112__to_addressB8ue170006INS_6vectorIbNS_9allocatorIbEEEEEEPT_S6_, symObjAddr: 0x91E0, symBinAddr: 0x100009F78, symSize: 0x14 }
  - { offsetInCU: 0x13812, offset: 0x13812, size: 0x8, addend: 0x0, symName: __ZNSt3__16__copyB8ue170006INS_17_ClassicAlgPolicyENS_14__bit_iteratorINS_6vectorIbNS_9allocatorIbEEEELb1ELm0EEES7_NS2_IS6_Lb0ELm0EEEEENS_4pairIT0_T2_EESA_T1_SB_, symObjAddr: 0x96D0, symBinAddr: 0x10000A468, symSize: 0x7C }
  - { offsetInCU: 0x1387F, offset: 0x1387F, size: 0x8, addend: 0x0, symName: __ZNSt3__123__dispatch_copy_or_moveB8ue170006INS_17_ClassicAlgPolicyENS_11__copy_loopIS1_EENS_14__copy_trivialENS_14__bit_iteratorINS_6vectorIbNS_9allocatorIbEEEELb1ELm0EEESA_NS5_IS9_Lb0ELm0EEEEENS_4pairIT2_T4_EESD_T3_SE_, symObjAddr: 0x974C, symBinAddr: 0x10000A4E4, symSize: 0x7C }
  - { offsetInCU: 0x138FE, offset: 0x138FE, size: 0x8, addend: 0x0, symName: __ZNSt3__121__unwrap_and_dispatchB8ue170006INS_10__overloadINS_11__copy_loopINS_17_ClassicAlgPolicyEEENS_14__copy_trivialEEENS_14__bit_iteratorINS_6vectorIbNS_9allocatorIbEEEELb1ELm0EEESC_NS7_ISB_Lb0ELm0EEELi0EEENS_4pairIT0_T2_EESF_T1_SG_, symObjAddr: 0x97C8, symBinAddr: 0x10000A560, symSize: 0x150 }
  - { offsetInCU: 0x1398F, offset: 0x1398F, size: 0x8, addend: 0x0, symName: __ZNSt3__114__unwrap_rangeB8ue170006INS_14__bit_iteratorINS_6vectorIbNS_9allocatorIbEEEELb1ELm0EEES6_EENS_4pairIT0_S8_EET_SA_, symObjAddr: 0x9918, symBinAddr: 0x10000A6B0, symSize: 0x84 }
  - { offsetInCU: 0x13AAF, offset: 0x13AAF, size: 0x8, addend: 0x0, symName: __ZNSt3__113__unwrap_iterB8ue170006INS_14__bit_iteratorINS_6vectorIbNS_9allocatorIbEEEELb0ELm0EEENS_18__unwrap_iter_implIS6_Lb0EEELi0EEEDTclsrT0_8__unwrapclsr3stdE7declvalIT_EEEESA_, symObjAddr: 0x9A60, symBinAddr: 0x10000A7F8, symSize: 0x44 }
  - { offsetInCU: 0x13AF4, offset: 0x13AF4, size: 0x8, addend: 0x0, symName: __ZNSt3__19make_pairB8ue170006INS_14__bit_iteratorINS_6vectorIbNS_9allocatorIbEEEELb1ELm0EEENS1_IS5_Lb0ELm0EEEEENS_4pairINS_18__unwrap_ref_decayIT_E4typeENS9_IT0_E4typeEEEOSA_OSD_, symObjAddr: 0x9AA4, symBinAddr: 0x10000A83C, symSize: 0x40 }
  - { offsetInCU: 0x13B43, offset: 0x13B43, size: 0x8, addend: 0x0, symName: __ZNSt3__114__rewrap_rangeB8ue170006INS_14__bit_iteratorINS_6vectorIbNS_9allocatorIbEEEELb1ELm0EEES6_EET_S7_T0_, symObjAddr: 0x9AE4, symBinAddr: 0x10000A87C, symSize: 0x5C }
  - { offsetInCU: 0x13B8F, offset: 0x13B8F, size: 0x8, addend: 0x0, symName: __ZNSt3__113__rewrap_iterB8ue170006INS_14__bit_iteratorINS_6vectorIbNS_9allocatorIbEEEELb0ELm0EEES6_NS_18__unwrap_iter_implIS6_Lb0EEEEET_S9_T0_, symObjAddr: 0x9B40, symBinAddr: 0x10000A8D8, symSize: 0x74 }
  - { offsetInCU: 0x13BE6, offset: 0x13BE6, size: 0x8, addend: 0x0, symName: __ZNSt3__19make_pairB8ue170006INS_14__bit_iteratorINS_6vectorIbNS_9allocatorIbEEEELb1ELm0EEES6_EENS_4pairINS_18__unwrap_ref_decayIT_E4typeENS8_IT0_E4typeEEEOS9_OSC_, symObjAddr: 0x9BB4, symBinAddr: 0x10000A94C, symSize: 0x38 }
  - { offsetInCU: 0x13C35, offset: 0x13C35, size: 0x8, addend: 0x0, symName: __ZNSt3__113__unwrap_iterB8ue170006INS_14__bit_iteratorINS_6vectorIbNS_9allocatorIbEEEELb1ELm0EEENS_18__unwrap_iter_implIS6_Lb0EEELi0EEEDTclsrT0_8__unwrapclsr3stdE7declvalIT_EEEESA_, symObjAddr: 0x9BEC, symBinAddr: 0x10000A984, symSize: 0x44 }
  - { offsetInCU: 0x13D95, offset: 0x13D95, size: 0x8, addend: 0x0, symName: __ZNSt3__1neB8ue170006ERKNS_14__bit_iteratorINS_6vectorIbNS_9allocatorIbEEEELb1ELm0EEES7_, symObjAddr: 0x9CC4, symBinAddr: 0x10000AA5C, symSize: 0x34 }
  - { offsetInCU: 0x13DD3, offset: 0x13DD3, size: 0x8, addend: 0x0, symName: __ZNSt3__1eqB8ue170006ERKNS_14__bit_iteratorINS_6vectorIbNS_9allocatorIbEEEELb1ELm0EEES7_, symObjAddr: 0x9E64, symBinAddr: 0x10000ABFC, symSize: 0x64 }
  - { offsetInCU: 0x13E58, offset: 0x13E58, size: 0x8, addend: 0x0, symName: __ZNSt3__113__rewrap_iterB8ue170006INS_14__bit_iteratorINS_6vectorIbNS_9allocatorIbEEEELb1ELm0EEES6_NS_18__unwrap_iter_implIS6_Lb0EEEEET_S9_T0_, symObjAddr: 0xA054, symBinAddr: 0x10000ADEC, symSize: 0x74 }
  - { offsetInCU: 0x13EE7, offset: 0x13EE7, size: 0x8, addend: 0x0, symName: __ZNSt3__124__memberwise_copy_assignB8ue170006INS_5tupleIJRiS2_S2_EEENS1_IJiiiEEEJLm0ELm1ELm2EEEEvRT_RKT0_NS_15__tuple_indicesIJXspT1_EEEE, symObjAddr: 0xA7BC, symBinAddr: 0x10000B554, symSize: 0xB0 }
  - { offsetInCU: 0x13F56, offset: 0x13F56, size: 0x8, addend: 0x0, symName: __ZNSt3__13getB8ue170006ILm0EJRiS1_S1_EEERNS_13tuple_elementIXT_ENS_5tupleIJDpT0_EEEE4typeERS6_, symObjAddr: 0xA86C, symBinAddr: 0x10000B604, symSize: 0x24 }
  - { offsetInCU: 0x13FA2, offset: 0x13FA2, size: 0x8, addend: 0x0, symName: __ZNSt3__13getB8ue170006ILm1EJRiS1_S1_EEERNS_13tuple_elementIXT_ENS_5tupleIJDpT0_EEEE4typeERS6_, symObjAddr: 0xA890, symBinAddr: 0x10000B628, symSize: 0x28 }
  - { offsetInCU: 0x13FEE, offset: 0x13FEE, size: 0x8, addend: 0x0, symName: __ZNSt3__13getB8ue170006ILm2EJRiS1_S1_EEERNS_13tuple_elementIXT_ENS_5tupleIJDpT0_EEEE4typeERS6_, symObjAddr: 0xA8B8, symBinAddr: 0x10000B650, symSize: 0x28 }
  - { offsetInCU: 0x1403A, offset: 0x1403A, size: 0x8, addend: 0x0, symName: __ZNSt3__13maxB8ue170006IiNS_6__lessIvvEEEERKT_S5_S5_T0_, symObjAddr: 0xA928, symBinAddr: 0x10000B6C0, symSize: 0x54 }
  - { offsetInCU: 0x14094, offset: 0x14094, size: 0x8, addend: 0x0, symName: __ZNSt3__13minB8ue170006IiNS_6__lessIvvEEEERKT_S5_S5_T0_, symObjAddr: 0xA9B0, symBinAddr: 0x10000B748, symSize: 0x54 }
  - { offsetInCU: 0x140EF, offset: 0x140EF, size: 0x8, addend: 0x0, symName: __ZNSt3__112__to_addressB8ue170006I6EstadoEEPT_S3_, symObjAddr: 0xAF10, symBinAddr: 0x10000BCA8, symSize: 0x14 }
  - { offsetInCU: 0x14123, offset: 0x14123, size: 0x8, addend: 0x0, symName: __ZNSt3__122__make_exception_guardB8ue170006INS_6vectorIiNS_9allocatorIiEEE16__destroy_vectorEEENS_28__exception_guard_exceptionsIT_EES7_, symObjAddr: 0xB1C8, symBinAddr: 0x10000BF60, symSize: 0x40 }
  - { offsetInCU: 0x14158, offset: 0x14158, size: 0x8, addend: 0x0, symName: __ZNSt3__119__allocate_at_leastB8ue170006INS_9allocatorIiEEEENS_19__allocation_resultINS_16allocator_traitsIT_E7pointerEEERS5_m, symObjAddr: 0xB590, symBinAddr: 0x10000C328, symSize: 0x40 }
  - { offsetInCU: 0x1419C, offset: 0x1419C, size: 0x8, addend: 0x0, symName: __ZNSt3__112__to_addressB8ue170006IiEEPT_S2_, symObjAddr: 0xB8B4, symBinAddr: 0x10000C64C, symSize: 0x14 }
  - { offsetInCU: 0x141D0, offset: 0x141D0, size: 0x8, addend: 0x0, symName: __ZNSt3__130__uninitialized_allocator_copyB8ue170006INS_9allocatorIiEEPKiS4_PiEET2_RT_T0_T1_S6_, symObjAddr: 0xB964, symBinAddr: 0x10000C6FC, symSize: 0x80 }
  - { offsetInCU: 0x1426D, offset: 0x1426D, size: 0x8, addend: 0x0, symName: __ZNSt3__114__unwrap_rangeB8ue170006IPKiS2_EENS_4pairIT0_S4_EET_S6_, symObjAddr: 0xBA54, symBinAddr: 0x10000C7EC, symSize: 0x60 }
  - { offsetInCU: 0x142B9, offset: 0x142B9, size: 0x8, addend: 0x0, symName: __ZNSt3__135__uninitialized_allocator_copy_implB8ue170006INS_9allocatorIiEEKiiiLPv0EEEPT2_RT_PT0_SA_S6_, symObjAddr: 0xBAB4, symBinAddr: 0x10000C84C, symSize: 0x38 }
  - { offsetInCU: 0x1433B, offset: 0x1433B, size: 0x8, addend: 0x0, symName: __ZNSt3__113__unwrap_iterB8ue170006IPiNS_18__unwrap_iter_implIS1_Lb1EEELi0EEEDTclsrT0_8__unwrapclsr3stdE7declvalIT_EEEES5_, symObjAddr: 0xBAEC, symBinAddr: 0x10000C884, symSize: 0x24 }
  - { offsetInCU: 0x1437F, offset: 0x1437F, size: 0x8, addend: 0x0, symName: __ZNSt3__113__rewrap_iterB8ue170006IPiS1_NS_18__unwrap_iter_implIS1_Lb1EEEEET_S4_T0_, symObjAddr: 0xBB10, symBinAddr: 0x10000C8A8, symSize: 0x3C }
  - { offsetInCU: 0x143D4, offset: 0x143D4, size: 0x8, addend: 0x0, symName: __ZNSt3__19make_pairB8ue170006IPKiS2_EENS_4pairINS_18__unwrap_ref_decayIT_E4typeENS4_IT0_E4typeEEEOS5_OS8_, symObjAddr: 0xBB4C, symBinAddr: 0x10000C8E4, symSize: 0x38 }
  - { offsetInCU: 0x14423, offset: 0x14423, size: 0x8, addend: 0x0, symName: __ZNSt3__113__unwrap_iterB8ue170006IPKiNS_18__unwrap_iter_implIS2_Lb1EEELi0EEEDTclsrT0_8__unwrapclsr3stdE7declvalIT_EEEES6_, symObjAddr: 0xBB84, symBinAddr: 0x10000C91C, symSize: 0x24 }
  - { offsetInCU: 0x1458F, offset: 0x1458F, size: 0x8, addend: 0x0, symName: __ZNSt3__112__to_addressB8ue170006IKiEEPT_S3_, symObjAddr: 0xBC3C, symBinAddr: 0x10000C9D4, symSize: 0x14 }
  - { offsetInCU: 0x145C3, offset: 0x145C3, size: 0x8, addend: 0x0, symName: __ZNSt3__14copyB8ue170006IPKiPiEET0_T_S5_S4_, symObjAddr: 0xBC50, symBinAddr: 0x10000C9E8, symSize: 0x40 }
  - { offsetInCU: 0x1461D, offset: 0x1461D, size: 0x8, addend: 0x0, symName: __ZNSt3__16__copyB8ue170006INS_17_ClassicAlgPolicyEPKiS3_PiEENS_4pairIT0_T2_EES6_T1_S7_, symObjAddr: 0xBC90, symBinAddr: 0x10000CA28, symSize: 0x44 }
  - { offsetInCU: 0x14689, offset: 0x14689, size: 0x8, addend: 0x0, symName: __ZNSt3__123__dispatch_copy_or_moveB8ue170006INS_17_ClassicAlgPolicyENS_11__copy_loopIS1_EENS_14__copy_trivialEPKiS6_PiEENS_4pairIT2_T4_EES9_T3_SA_, symObjAddr: 0xBCD4, symBinAddr: 0x10000CA6C, symSize: 0x44 }
  - { offsetInCU: 0x14707, offset: 0x14707, size: 0x8, addend: 0x0, symName: __ZNSt3__121__unwrap_and_dispatchB8ue170006INS_10__overloadINS_11__copy_loopINS_17_ClassicAlgPolicyEEENS_14__copy_trivialEEEPKiS8_PiLi0EEENS_4pairIT0_T2_EESB_T1_SC_, symObjAddr: 0xBD18, symBinAddr: 0x10000CAB0, symSize: 0xB4 }
  - { offsetInCU: 0x1491A, offset: 0x1491A, size: 0x8, addend: 0x0, symName: __ZNSt3__19make_pairB8ue170006IPKiPiEENS_4pairINS_18__unwrap_ref_decayIT_E4typeENS5_IT0_E4typeEEEOS6_OS9_, symObjAddr: 0xBE14, symBinAddr: 0x10000CBAC, symSize: 0x38 }
  - { offsetInCU: 0x14969, offset: 0x14969, size: 0x8, addend: 0x0, symName: __ZNSt3__114__rewrap_rangeB8ue170006IPKiS2_EET_S3_T0_, symObjAddr: 0xBE4C, symBinAddr: 0x10000CBE4, symSize: 0x2C }
  - { offsetInCU: 0x149B5, offset: 0x149B5, size: 0x8, addend: 0x0, symName: __ZNSt3__119__copy_trivial_implB8ue170006IKiiEENS_4pairIPT_PT0_EES4_S4_S6_, symObjAddr: 0xBE78, symBinAddr: 0x10000CC10, symSize: 0x80 }
  - { offsetInCU: 0x14A1D, offset: 0x14A1D, size: 0x8, addend: 0x0, symName: __ZNSt3__119__constexpr_memmoveB8ue170006IiKiLi0EEEPT_S3_PT0_NS_15__element_countE, symObjAddr: 0xBEF8, symBinAddr: 0x10000CC90, symSize: 0x64 }
  - { offsetInCU: 0x14A8B, offset: 0x14A8B, size: 0x8, addend: 0x0, symName: __ZNSt3__19make_pairB8ue170006IRPKiPiEENS_4pairINS_18__unwrap_ref_decayIT_E4typeENS6_IT0_E4typeEEEOS7_OSA_, symObjAddr: 0xBF5C, symBinAddr: 0x10000CCF4, symSize: 0x38 }
  - { offsetInCU: 0x14ADA, offset: 0x14ADA, size: 0x8, addend: 0x0, symName: __ZNSt3__113__rewrap_iterB8ue170006IPKiS2_NS_18__unwrap_iter_implIS2_Lb1EEEEET_S5_T0_, symObjAddr: 0xC074, symBinAddr: 0x10000CE0C, symSize: 0x3C }
  - { offsetInCU: 0x14BA1, offset: 0x14BA1, size: 0x8, addend: 0x0, symName: __ZNSt3__142__uninitialized_allocator_move_if_noexceptB8ue170006INS_9allocatorINS_5tupleIJiiiEEEEENS_16reverse_iteratorIPS3_EES7_S7_EET2_RT_T0_T1_S8_, symObjAddr: 0xCCB0, symBinAddr: 0x10000DA48, symSize: 0x11C }
  - { offsetInCU: 0x14C42, offset: 0x14C42, size: 0x8, addend: 0x0, symName: __ZNSt3__14swapB8ue170006IPNS_5tupleIJiiiEEEEENS_9enable_ifIXaasr21is_move_constructibleIT_EE5valuesr18is_move_assignableIS5_EE5valueEvE4typeERS5_S8_, symObjAddr: 0xCDCC, symBinAddr: 0x10000DB64, symSize: 0x3C }
  - { offsetInCU: 0x14C92, offset: 0x14C92, size: 0x8, addend: 0x0, symName: __ZNSt3__122__make_exception_guardB8ue170006INS_29_AllocatorDestroyRangeReverseINS_9allocatorINS_5tupleIJiiiEEEEENS_16reverse_iteratorIPS4_EEEEEENS_28__exception_guard_exceptionsIT_EESB_, symObjAddr: 0xCE08, symBinAddr: 0x10000DBA0, symSize: 0x4C }
  - { offsetInCU: 0x14CC8, offset: 0x14CC8, size: 0x8, addend: 0x0, symName: __ZNSt3__119__allocator_destroyB8ue170006INS_9allocatorINS_5tupleIJiiiEEEEENS_16reverse_iteratorINS5_IPS3_EEEES8_EEvRT_T0_T1_, symObjAddr: 0xD0E4, symBinAddr: 0x10000DE7C, symSize: 0x70 }
  - { offsetInCU: 0x14D2D, offset: 0x14D2D, size: 0x8, addend: 0x0, symName: __ZNSt3__1neB8ue170006INS_16reverse_iteratorIPNS_5tupleIJiiiEEEEES5_EEbRKNS1_IT_EERKNS1_IT0_EE, symObjAddr: 0xD190, symBinAddr: 0x10000DF28, symSize: 0x60 }
  - { offsetInCU: 0x14D79, offset: 0x14D79, size: 0x8, addend: 0x0, symName: __ZNSt3__112__to_addressB8ue170006INS_16reverse_iteratorINS1_IPNS_5tupleIJiiiEEEEEEEvEEu7__decayIDTclsr19__to_address_helperIT_EE6__callclsr3stdE7declvalIRKS7_EEEEES9_, symObjAddr: 0xD1F0, symBinAddr: 0x10000DF88, symSize: 0x24 }
  - { offsetInCU: 0x14DD8, offset: 0x14DD8, size: 0x8, addend: 0x0, symName: __ZNSt3__119__allocate_at_leastB8ue170006INS_9allocatorI6EstadoEEEENS_19__allocation_resultINS_16allocator_traitsIT_E7pointerEEERS6_m, symObjAddr: 0xDC80, symBinAddr: 0x10000EA18, symSize: 0x40 }
  - { offsetInCU: 0x14E1B, offset: 0x14E1B, size: 0x8, addend: 0x0, symName: __ZNSt3__142__uninitialized_allocator_move_if_noexceptB8ue170006INS_9allocatorI6EstadoEENS_16reverse_iteratorIPS2_EES6_S6_EET2_RT_T0_T1_S7_, symObjAddr: 0xDE34, symBinAddr: 0x10000EBCC, symSize: 0x12C }
  - { offsetInCU: 0x14EBC, offset: 0x14EBC, size: 0x8, addend: 0x0, symName: __ZNSt3__14swapB8ue170006IP6EstadoEENS_9enable_ifIXaasr21is_move_constructibleIT_EE5valuesr18is_move_assignableIS4_EE5valueEvE4typeERS4_S7_, symObjAddr: 0xDFAC, symBinAddr: 0x10000ED44, symSize: 0x3C }
  - { offsetInCU: 0x14F0C, offset: 0x14F0C, size: 0x8, addend: 0x0, symName: __ZNSt3__122__make_exception_guardB8ue170006INS_29_AllocatorDestroyRangeReverseINS_9allocatorI6EstadoEENS_16reverse_iteratorIPS3_EEEEEENS_28__exception_guard_exceptionsIT_EESA_, symObjAddr: 0xE094, symBinAddr: 0x10000EE2C, symSize: 0x4C }
  - { offsetInCU: 0x14F42, offset: 0x14F42, size: 0x8, addend: 0x0, symName: __ZNSt3__1neB8ue170006IP6EstadoS2_EEbRKNS_16reverse_iteratorIT_EERKNS3_IT0_EE, symObjAddr: 0xE124, symBinAddr: 0x10000EEBC, symSize: 0x48 }
  - { offsetInCU: 0x14F8E, offset: 0x14F8E, size: 0x8, addend: 0x0, symName: __ZNSt3__112__to_addressB8ue170006INS_16reverse_iteratorIP6EstadoEEvEEu7__decayIDTclsr19__to_address_helperIT_EE6__callclsr3stdE7declvalIRKS5_EEEEES7_, symObjAddr: 0xE1A0, symBinAddr: 0x10000EF38, symSize: 0x24 }
  - { offsetInCU: 0x14FED, offset: 0x14FED, size: 0x8, addend: 0x0, symName: __ZNSt3__119__allocator_destroyB8ue170006INS_9allocatorI6EstadoEENS_16reverse_iteratorINS4_IPS2_EEEES7_EEvRT_T0_T1_, symObjAddr: 0xE5EC, symBinAddr: 0x10000F384, symSize: 0x70 }
  - { offsetInCU: 0x15052, offset: 0x15052, size: 0x8, addend: 0x0, symName: __ZNSt3__1neB8ue170006INS_16reverse_iteratorIP6EstadoEES4_EEbRKNS1_IT_EERKNS1_IT0_EE, symObjAddr: 0xE698, symBinAddr: 0x10000F430, symSize: 0x60 }
  - { offsetInCU: 0x1509E, offset: 0x1509E, size: 0x8, addend: 0x0, symName: __ZNSt3__112__to_addressB8ue170006INS_16reverse_iteratorINS1_IP6EstadoEEEEvEEu7__decayIDTclsr19__to_address_helperIT_EE6__callclsr3stdE7declvalIRKS6_EEEEES8_, symObjAddr: 0xE6F8, symBinAddr: 0x10000F490, symSize: 0x24 }
  - { offsetInCU: 0x150FD, offset: 0x150FD, size: 0x8, addend: 0x0, symName: __ZNSt3__116__pad_and_outputB8ue170006IcNS_11char_traitsIcEEEENS_19ostreambuf_iteratorIT_T0_EES6_PKS4_S8_S8_RNS_8ios_baseES4_, symObjAddr: 0xEC9C, symBinAddr: 0x10000FA34, symSize: 0x240 }
  - { offsetInCU: 0x151CD, offset: 0x151CD, size: 0x8, addend: 0x0, symName: __ZNSt3__112__to_addressB8ue170006IKcEEPT_S3_, symObjAddr: 0xF204, symBinAddr: 0x10000FF9C, symSize: 0x14 }
  - { offsetInCU: 0x15234, offset: 0x15234, size: 0x8, addend: 0x0, symName: __ZNSt3__19use_facetB8ue170006INS_5ctypeIcEEEERKT_RKNS_6localeE, symObjAddr: 0xF484, symBinAddr: 0x10001021C, symSize: 0x2C }
  - { offsetInCU: 0x15702, offset: 0x15702, size: 0x8, addend: 0x0, symName: __ZNSt3__118__constexpr_strlenB8ue170006EPKc, symObjAddr: 0xF51C, symBinAddr: 0x1000102B4, symSize: 0x24 }
  - { offsetInCU: 0x1572E, offset: 0x1572E, size: 0x8, addend: 0x0, symName: __ZNSt3__19push_heapB8ue170006INS_11__wrap_iterIP6EstadoEENS_7greaterIS2_EEEEvT_S7_T0_, symObjAddr: 0xF74C, symBinAddr: 0x1000104E4, symSize: 0x40 }
  - { offsetInCU: 0x15784, offset: 0x15784, size: 0x8, addend: 0x0, symName: __ZNSt3__111__push_heapB8ue170006INS_17_ClassicAlgPolicyENS_11__wrap_iterIP6EstadoEENS_7greaterIS3_EEEEvT0_S8_RT1_, symObjAddr: 0xF8F4, symBinAddr: 0x10001068C, symSize: 0x5C }
  - { offsetInCU: 0x157F1, offset: 0x157F1, size: 0x8, addend: 0x0, symName: __ZNSt3__1miB8ue170006IP6EstadoS2_EEDTmicldtfp_4baseEcldtfp0_4baseEERKNS_11__wrap_iterIT_EERKNS4_IT0_EE, symObjAddr: 0xF950, symBinAddr: 0x1000106E8, symSize: 0x48 }
  - { offsetInCU: 0x1583D, offset: 0x1583D, size: 0x8, addend: 0x0, symName: __ZNSt3__19__sift_upB8ue170006INS_17_ClassicAlgPolicyERNS_7greaterI6EstadoEENS_11__wrap_iterIPS3_EEEEvT1_S9_OT0_NS_15iterator_traitsIS9_E15difference_typeE, symObjAddr: 0xF998, symBinAddr: 0x100010730, symSize: 0x19C }
  - { offsetInCU: 0x15948, offset: 0x15948, size: 0x8, addend: 0x0, symName: __ZNSt3__18pop_heapB8ue170006INS_11__wrap_iterIP6EstadoEENS_7greaterIS2_EEEEvT_S7_T0_, symObjAddr: 0xFEE8, symBinAddr: 0x100010C80, symSize: 0x58 }
  - { offsetInCU: 0x159AC, offset: 0x159AC, size: 0x8, addend: 0x0, symName: __ZNSt3__110__pop_heapB8ue170006INS_17_ClassicAlgPolicyENS_7greaterI6EstadoEENS_11__wrap_iterIPS3_EEEEvT1_S8_RT0_NS_15iterator_traitsIS8_E15difference_typeE, symObjAddr: 0xFF6C, symBinAddr: 0x100010D04, symSize: 0x164 }
  - { offsetInCU: 0x15A57, offset: 0x15A57, size: 0x8, addend: 0x0, symName: __ZNSt3__112__to_addressB8ue170006INS_6vectorIiNS_9allocatorIiEEEEEEPT_S6_, symObjAddr: 0x10714, symBinAddr: 0x1000114AC, symSize: 0x14 }
  - { offsetInCU: 0x15A8B, offset: 0x15A8B, size: 0x8, addend: 0x0, symName: __ZNSt3__122__make_exception_guardB8ue170006INS_6vectorINS1_IiNS_9allocatorIiEEEENS2_IS4_EEE16__destroy_vectorEEENS_28__exception_guard_exceptionsIT_EES9_, symObjAddr: 0x109D0, symBinAddr: 0x100011768, symSize: 0x40 }
  - { offsetInCU: 0x15AC0, offset: 0x15AC0, size: 0x8, addend: 0x0, symName: __ZNSt3__119__allocate_at_leastB8ue170006INS_9allocatorINS_6vectorIiNS1_IiEEEEEEEENS_19__allocation_resultINS_16allocator_traitsIT_E7pointerEEERS8_m, symObjAddr: 0x10D8C, symBinAddr: 0x100011B24, symSize: 0x40 }
  - { offsetInCU: 0x15B03, offset: 0x15B03, size: 0x8, addend: 0x0, symName: __ZNSt3__130__uninitialized_allocator_copyB8ue170006INS_9allocatorINS_6vectorIiNS1_IiEEEEEEPKS4_S7_PS4_EET2_RT_T0_T1_S9_, symObjAddr: 0x11028, symBinAddr: 0x100011DC0, symSize: 0x80 }
  - { offsetInCU: 0x15BA0, offset: 0x15BA0, size: 0x8, addend: 0x0, symName: __ZNSt3__114__unwrap_rangeB8ue170006IPKNS_6vectorIiNS_9allocatorIiEEEES6_EENS_4pairIT0_S8_EET_SA_, symObjAddr: 0x11120, symBinAddr: 0x100011EB8, symSize: 0x60 }
  - { offsetInCU: 0x15BEC, offset: 0x15BEC, size: 0x8, addend: 0x0, symName: __ZNSt3__135__uninitialized_allocator_copy_implB8ue170006INS_9allocatorINS_6vectorIiNS1_IiEEEEEEPKS4_S7_PS4_EET2_RT_T0_T1_S9_, symObjAddr: 0x11180, symBinAddr: 0x100011F18, symSize: 0xF4 }
  - { offsetInCU: 0x15C8A, offset: 0x15C8A, size: 0x8, addend: 0x0, symName: __ZNSt3__113__unwrap_iterB8ue170006IPNS_6vectorIiNS_9allocatorIiEEEENS_18__unwrap_iter_implIS5_Lb1EEELi0EEEDTclsrT0_8__unwrapclsr3stdE7declvalIT_EEEES9_, symObjAddr: 0x11274, symBinAddr: 0x10001200C, symSize: 0x24 }
  - { offsetInCU: 0x15CCE, offset: 0x15CCE, size: 0x8, addend: 0x0, symName: __ZNSt3__113__rewrap_iterB8ue170006IPNS_6vectorIiNS_9allocatorIiEEEES5_NS_18__unwrap_iter_implIS5_Lb1EEEEET_S8_T0_, symObjAddr: 0x11298, symBinAddr: 0x100012030, symSize: 0x3C }
  - { offsetInCU: 0x15D23, offset: 0x15D23, size: 0x8, addend: 0x0, symName: __ZNSt3__19make_pairB8ue170006IPKNS_6vectorIiNS_9allocatorIiEEEES6_EENS_4pairINS_18__unwrap_ref_decayIT_E4typeENS8_IT0_E4typeEEEOS9_OSC_, symObjAddr: 0x112D4, symBinAddr: 0x10001206C, symSize: 0x38 }
  - { offsetInCU: 0x15D72, offset: 0x15D72, size: 0x8, addend: 0x0, symName: __ZNSt3__113__unwrap_iterB8ue170006IPKNS_6vectorIiNS_9allocatorIiEEEENS_18__unwrap_iter_implIS6_Lb1EEELi0EEEDTclsrT0_8__unwrapclsr3stdE7declvalIT_EEEESA_, symObjAddr: 0x1130C, symBinAddr: 0x1000120A4, symSize: 0x24 }
  - { offsetInCU: 0x15EDE, offset: 0x15EDE, size: 0x8, addend: 0x0, symName: __ZNSt3__112__to_addressB8ue170006IKNS_6vectorIiNS_9allocatorIiEEEEEEPT_S7_, symObjAddr: 0x113C4, symBinAddr: 0x10001215C, symSize: 0x14 }
  - { offsetInCU: 0x15F12, offset: 0x15F12, size: 0x8, addend: 0x0, symName: __ZNSt3__122__make_exception_guardB8ue170006INS_29_AllocatorDestroyRangeReverseINS_9allocatorINS_6vectorIiNS2_IiEEEEEEPS5_EEEENS_28__exception_guard_exceptionsIT_EESA_, symObjAddr: 0x113D8, symBinAddr: 0x100012170, symSize: 0x4C }
  - { offsetInCU: 0x15F48, offset: 0x15F48, size: 0x8, addend: 0x0, symName: __ZNSt3__130__uninitialized_allocator_copyB8ue170006INS_9allocatorIiEEPiS3_S3_EET2_RT_T0_T1_S4_, symObjAddr: 0x11864, symBinAddr: 0x1000125FC, symSize: 0x80 }
  - { offsetInCU: 0x15FE5, offset: 0x15FE5, size: 0x8, addend: 0x0, symName: __ZNSt3__114__unwrap_rangeB8ue170006IPiS1_EENS_4pairIT0_S3_EET_S5_, symObjAddr: 0x118E4, symBinAddr: 0x10001267C, symSize: 0x60 }
  - { offsetInCU: 0x16031, offset: 0x16031, size: 0x8, addend: 0x0, symName: __ZNSt3__135__uninitialized_allocator_copy_implB8ue170006INS_9allocatorIiEEiiiLPv0EEEPT2_RT_PT0_S9_S5_, symObjAddr: 0x11944, symBinAddr: 0x1000126DC, symSize: 0x38 }
  - { offsetInCU: 0x160B3, offset: 0x160B3, size: 0x8, addend: 0x0, symName: __ZNSt3__19make_pairB8ue170006IPiS1_EENS_4pairINS_18__unwrap_ref_decayIT_E4typeENS3_IT0_E4typeEEEOS4_OS7_, symObjAddr: 0x1197C, symBinAddr: 0x100012714, symSize: 0x38 }
  - { offsetInCU: 0x16205, offset: 0x16205, size: 0x8, addend: 0x0, symName: __ZNSt3__14copyB8ue170006IPiS1_EET0_T_S3_S2_, symObjAddr: 0x11A24, symBinAddr: 0x1000127BC, symSize: 0x40 }
  - { offsetInCU: 0x1625F, offset: 0x1625F, size: 0x8, addend: 0x0, symName: __ZNSt3__16__copyB8ue170006INS_17_ClassicAlgPolicyEPiS2_S2_EENS_4pairIT0_T2_EES4_T1_S5_, symObjAddr: 0x11A64, symBinAddr: 0x1000127FC, symSize: 0x44 }
  - { offsetInCU: 0x162CB, offset: 0x162CB, size: 0x8, addend: 0x0, symName: __ZNSt3__123__dispatch_copy_or_moveB8ue170006INS_17_ClassicAlgPolicyENS_11__copy_loopIS1_EENS_14__copy_trivialEPiS5_S5_EENS_4pairIT2_T4_EES7_T3_S8_, symObjAddr: 0x11AA8, symBinAddr: 0x100012840, symSize: 0x44 }
  - { offsetInCU: 0x16349, offset: 0x16349, size: 0x8, addend: 0x0, symName: __ZNSt3__121__unwrap_and_dispatchB8ue170006INS_10__overloadINS_11__copy_loopINS_17_ClassicAlgPolicyEEENS_14__copy_trivialEEEPiS7_S7_Li0EEENS_4pairIT0_T2_EES9_T1_SA_, symObjAddr: 0x11AEC, symBinAddr: 0x100012884, symSize: 0xB4 }
  - { offsetInCU: 0x163D7, offset: 0x163D7, size: 0x8, addend: 0x0, symName: __ZNSt3__114__rewrap_rangeB8ue170006IPiS1_EET_S2_T0_, symObjAddr: 0x11BE8, symBinAddr: 0x100012980, symSize: 0x2C }
  - { offsetInCU: 0x16423, offset: 0x16423, size: 0x8, addend: 0x0, symName: __ZNSt3__119__copy_trivial_implB8ue170006IiiEENS_4pairIPT_PT0_EES3_S3_S5_, symObjAddr: 0x11C14, symBinAddr: 0x1000129AC, symSize: 0x80 }
  - { offsetInCU: 0x1648B, offset: 0x1648B, size: 0x8, addend: 0x0, symName: __ZNSt3__119__constexpr_memmoveB8ue170006IiiLi0EEEPT_S2_PT0_NS_15__element_countE, symObjAddr: 0x11C94, symBinAddr: 0x100012A2C, symSize: 0x64 }
  - { offsetInCU: 0x164F9, offset: 0x164F9, size: 0x8, addend: 0x0, symName: __ZNSt3__19make_pairB8ue170006IRPiS1_EENS_4pairINS_18__unwrap_ref_decayIT_E4typeENS4_IT0_E4typeEEEOS5_OS8_, symObjAddr: 0x11CF8, symBinAddr: 0x100012A90, symSize: 0x38 }
  - { offsetInCU: 0x16548, offset: 0x16548, size: 0x8, addend: 0x0, symName: __ZNSt3__119__allocator_destroyB8ue170006INS_9allocatorINS_6vectorIiNS1_IiEEEEEENS_16reverse_iteratorIPS4_EES8_EEvRT_T0_T1_, symObjAddr: 0x11E58, symBinAddr: 0x100012BF0, symSize: 0x70 }
  - { offsetInCU: 0x165AB, offset: 0x165AB, size: 0x8, addend: 0x0, symName: __ZNSt3__1neB8ue170006IPNS_6vectorIiNS_9allocatorIiEEEES5_EEbRKNS_16reverse_iteratorIT_EERKNS6_IT0_EE, symObjAddr: 0x11EFC, symBinAddr: 0x100012C94, symSize: 0x48 }
  - { offsetInCU: 0x165F7, offset: 0x165F7, size: 0x8, addend: 0x0, symName: __ZNSt3__112__to_addressB8ue170006INS_16reverse_iteratorIPNS_6vectorIiNS_9allocatorIiEEEEEEvEEu7__decayIDTclsr19__to_address_helperIT_EE6__callclsr3stdE7declvalIRKS8_EEEEESA_, symObjAddr: 0x11F44, symBinAddr: 0x100012CDC, symSize: 0x24 }
  - { offsetInCU: 0x166D2, offset: 0x166D2, size: 0x8, addend: 0x0, symName: __ZNSt3__130__uninitialized_allocator_copyB8ue170006INS_9allocatorINS_6vectorIiNS1_IiEEEEEEPS4_S6_S6_EET2_RT_T0_T1_S7_, symObjAddr: 0x125D4, symBinAddr: 0x10001336C, symSize: 0x80 }
  - { offsetInCU: 0x1676F, offset: 0x1676F, size: 0x8, addend: 0x0, symName: __ZNSt3__114__unwrap_rangeB8ue170006IPNS_6vectorIiNS_9allocatorIiEEEES5_EENS_4pairIT0_S7_EET_S9_, symObjAddr: 0x12654, symBinAddr: 0x1000133EC, symSize: 0x60 }
  - { offsetInCU: 0x167BB, offset: 0x167BB, size: 0x8, addend: 0x0, symName: __ZNSt3__135__uninitialized_allocator_copy_implB8ue170006INS_9allocatorINS_6vectorIiNS1_IiEEEEEEPS4_S6_S6_EET2_RT_T0_T1_S7_, symObjAddr: 0x126B4, symBinAddr: 0x10001344C, symSize: 0xF4 }
  - { offsetInCU: 0x16859, offset: 0x16859, size: 0x8, addend: 0x0, symName: __ZNSt3__19make_pairB8ue170006IPNS_6vectorIiNS_9allocatorIiEEEES5_EENS_4pairINS_18__unwrap_ref_decayIT_E4typeENS7_IT0_E4typeEEEOS8_OSB_, symObjAddr: 0x127A8, symBinAddr: 0x100013540, symSize: 0x38 }
  - { offsetInCU: 0x1697C, offset: 0x1697C, size: 0x8, addend: 0x0, symName: __ZNSt3__122__make_exception_guardB8ue170006INS_6vectorINS_5tupleIJiNS1_INS1_IiNS_9allocatorIiEEEENS3_IS5_EEEEiiiEEENS3_IS8_EEE16__destroy_vectorEEENS_28__exception_guard_exceptionsIT_EESD_, symObjAddr: 0x12A10, symBinAddr: 0x1000137A8, symSize: 0x40 }
  - { offsetInCU: 0x169B1, offset: 0x169B1, size: 0x8, addend: 0x0, symName: __ZNSt3__119__allocate_at_leastB8ue170006INS_9allocatorINS_5tupleIJiNS_6vectorINS3_IiNS1_IiEEEENS1_IS5_EEEEiiiEEEEEEENS_19__allocation_resultINS_16allocator_traitsIT_E7pointerEEERSC_m, symObjAddr: 0x12E20, symBinAddr: 0x100013BB8, symSize: 0x40 }
  - { offsetInCU: 0x169F5, offset: 0x169F5, size: 0x8, addend: 0x0, symName: __ZNSt3__112__to_addressB8ue170006INS_5tupleIJiNS_6vectorINS2_IiNS_9allocatorIiEEEENS3_IS5_EEEEiiiEEEEEPT_SA_, symObjAddr: 0x13168, symBinAddr: 0x100013F00, symSize: 0x14 }
  - { offsetInCU: 0x16A29, offset: 0x16A29, size: 0x8, addend: 0x0, symName: __ZNSt3__130__uninitialized_allocator_copyB8ue170006INS_9allocatorINS_5tupleIJiNS_6vectorINS3_IiNS1_IiEEEENS1_IS5_EEEEiiiEEEEEPKS8_SB_PS8_EET2_RT_T0_T1_SD_, symObjAddr: 0x13218, symBinAddr: 0x100013FB0, symSize: 0x80 }
  - { offsetInCU: 0x16AC6, offset: 0x16AC6, size: 0x8, addend: 0x0, symName: __ZNSt3__114__unwrap_rangeB8ue170006IPKNS_5tupleIJiNS_6vectorINS2_IiNS_9allocatorIiEEEENS3_IS5_EEEEiiiEEESA_EENS_4pairIT0_SC_EET_SE_, symObjAddr: 0x13310, symBinAddr: 0x1000140A8, symSize: 0x60 }
  - { offsetInCU: 0x16B12, offset: 0x16B12, size: 0x8, addend: 0x0, symName: __ZNSt3__135__uninitialized_allocator_copy_implB8ue170006INS_9allocatorINS_5tupleIJiNS_6vectorINS3_IiNS1_IiEEEENS1_IS5_EEEEiiiEEEEEPKS8_SB_PS8_EET2_RT_T0_T1_SD_, symObjAddr: 0x13370, symBinAddr: 0x100014108, symSize: 0xF4 }
  - { offsetInCU: 0x16BB0, offset: 0x16BB0, size: 0x8, addend: 0x0, symName: __ZNSt3__113__unwrap_iterB8ue170006IPNS_5tupleIJiNS_6vectorINS2_IiNS_9allocatorIiEEEENS3_IS5_EEEEiiiEEENS_18__unwrap_iter_implIS9_Lb1EEELi0EEEDTclsrT0_8__unwrapclsr3stdE7declvalIT_EEEESD_, symObjAddr: 0x13464, symBinAddr: 0x1000141FC, symSize: 0x24 }
  - { offsetInCU: 0x16BF4, offset: 0x16BF4, size: 0x8, addend: 0x0, symName: __ZNSt3__113__rewrap_iterB8ue170006IPNS_5tupleIJiNS_6vectorINS2_IiNS_9allocatorIiEEEENS3_IS5_EEEEiiiEEES9_NS_18__unwrap_iter_implIS9_Lb1EEEEET_SC_T0_, symObjAddr: 0x13488, symBinAddr: 0x100014220, symSize: 0x3C }
  - { offsetInCU: 0x16C49, offset: 0x16C49, size: 0x8, addend: 0x0, symName: __ZNSt3__19make_pairB8ue170006IPKNS_5tupleIJiNS_6vectorINS2_IiNS_9allocatorIiEEEENS3_IS5_EEEEiiiEEESA_EENS_4pairINS_18__unwrap_ref_decayIT_E4typeENSC_IT0_E4typeEEEOSD_OSG_, symObjAddr: 0x134C4, symBinAddr: 0x10001425C, symSize: 0x38 }
  - { offsetInCU: 0x16C98, offset: 0x16C98, size: 0x8, addend: 0x0, symName: __ZNSt3__113__unwrap_iterB8ue170006IPKNS_5tupleIJiNS_6vectorINS2_IiNS_9allocatorIiEEEENS3_IS5_EEEEiiiEEENS_18__unwrap_iter_implISA_Lb1EEELi0EEEDTclsrT0_8__unwrapclsr3stdE7declvalIT_EEEESE_, symObjAddr: 0x134FC, symBinAddr: 0x100014294, symSize: 0x24 }
  - { offsetInCU: 0x16E04, offset: 0x16E04, size: 0x8, addend: 0x0, symName: __ZNSt3__112__to_addressB8ue170006IKNS_5tupleIJiNS_6vectorINS2_IiNS_9allocatorIiEEEENS3_IS5_EEEEiiiEEEEEPT_SB_, symObjAddr: 0x135B4, symBinAddr: 0x10001434C, symSize: 0x14 }
  - { offsetInCU: 0x16E38, offset: 0x16E38, size: 0x8, addend: 0x0, symName: __ZNSt3__122__make_exception_guardB8ue170006INS_29_AllocatorDestroyRangeReverseINS_9allocatorINS_5tupleIJiNS_6vectorINS4_IiNS2_IiEEEENS2_IS6_EEEEiiiEEEEEPS9_EEEENS_28__exception_guard_exceptionsIT_EESE_, symObjAddr: 0x135C8, symBinAddr: 0x100014360, symSize: 0x4C }
  - { offsetInCU: 0x16E6E, offset: 0x16E6E, size: 0x8, addend: 0x0, symName: __ZNSt3__119__allocator_destroyB8ue170006INS_9allocatorINS_5tupleIJiNS_6vectorINS3_IiNS1_IiEEEENS1_IS5_EEEEiiiEEEEENS_16reverse_iteratorIPS8_EESC_EEvRT_T0_T1_, symObjAddr: 0x13994, symBinAddr: 0x10001472C, symSize: 0x70 }
  - { offsetInCU: 0x16ED1, offset: 0x16ED1, size: 0x8, addend: 0x0, symName: __ZNSt3__1neB8ue170006IPNS_5tupleIJiNS_6vectorINS2_IiNS_9allocatorIiEEEENS3_IS5_EEEEiiiEEES9_EEbRKNS_16reverse_iteratorIT_EERKNSA_IT0_EE, symObjAddr: 0x13A38, symBinAddr: 0x1000147D0, symSize: 0x48 }
  - { offsetInCU: 0x16F1D, offset: 0x16F1D, size: 0x8, addend: 0x0, symName: __ZNSt3__112__to_addressB8ue170006INS_16reverse_iteratorIPNS_5tupleIJiNS_6vectorINS3_IiNS_9allocatorIiEEEENS4_IS6_EEEEiiiEEEEEvEEu7__decayIDTclsr19__to_address_helperIT_EE6__callclsr3stdE7declvalIRKSC_EEEEESE_, symObjAddr: 0x13AAC, symBinAddr: 0x100014844, symSize: 0x24 }
  - { offsetInCU: 0x16FD0, offset: 0x16FD0, size: 0x8, addend: 0x0, symName: __ZNSt3__112__to_addressB8ue170006IZ4mainE9ResultadoEEPT_S3_, symObjAddr: 0x14488, symBinAddr: 0x100015220, symSize: 0x14 }
  - { offsetInCU: 0x177E1, offset: 0x177E1, size: 0x8, addend: 0x0, symName: __ZSt28__throw_bad_array_new_lengthB8ue170006v, symObjAddr: 0x5F0C, symBinAddr: 0x100006CA4, symSize: 0x34 }
  - { offsetInCU: 0x17EC8, offset: 0x17EC8, size: 0x8, addend: 0x0, symName: __ZNKSt3__16chrono15__duration_castINS0_8durationIxNS_5ratioILl1ELl1000000000EEEEENS2_IxNS3_ILl1ELl1000EEEEENS3_ILl1ELl1000000EEELb1ELb0EEclB8ue170006ERKS5_, symObjAddr: 0x6E10, symBinAddr: 0x100007BA8, symSize: 0x4C }
  - { offsetInCU: 0x1871D, offset: 0x1871D, size: 0x8, addend: 0x0, symName: __ZNSt3__16vectorINS_5tupleIJiiiEEENS_9allocatorIS2_EEE26__swap_out_circular_bufferERNS_14__split_bufferIS2_RS4_EE, symObjAddr: 0xC93C, symBinAddr: 0x10000D6D4, symSize: 0x110 }
  - { offsetInCU: 0x187A5, offset: 0x187A5, size: 0x8, addend: 0x0, symName: __ZNSt3__16vectorI6EstadoNS_9allocatorIS1_EEE26__swap_out_circular_bufferERNS_14__split_bufferIS1_RS3_EE, symObjAddr: 0xD920, symBinAddr: 0x10000E6B8, symSize: 0x110 }
  - { offsetInCU: 0x18C03, offset: 0x18C03, size: 0x8, addend: 0x0, symName: _main, symObjAddr: 0x1FA8, symBinAddr: 0x100002D40, symSize: 0x31E8 }
  - { offsetInCU: 0x1B1CA, offset: 0x1B1CA, size: 0x8, addend: 0x0, symName: __Z13raio_protecaoi, symObjAddr: 0x0, symBinAddr: 0x100000D98, symSize: 0x80 }
  - { offsetInCU: 0x1B1F5, offset: 0x1B1F5, size: 0x8, addend: 0x0, symName: __Z27calcular_familas_protegidasRKNSt3__16vectorINS0_IiNS_9allocatorIiEEEENS1_IS3_EEEERK6Estado, symObjAddr: 0xB8, symBinAddr: 0x100000E50, symSize: 0x354 }
  - { offsetInCU: 0x1B2FD, offset: 0x1B2FD, size: 0x8, addend: 0x0, symName: __ZNKSt3__16vectorINS0_IiNS_9allocatorIiEEEENS1_IS3_EEE4sizeB8ue170006Ev, symObjAddr: 0x40C, symBinAddr: 0x1000011A4, symSize: 0x28 }
  - { offsetInCU: 0x1B323, offset: 0x1B323, size: 0x8, addend: 0x0, symName: __ZNKSt3__16vectorINS0_IiNS_9allocatorIiEEEENS1_IS3_EEEixB8ue170006Em, symObjAddr: 0x434, symBinAddr: 0x1000011CC, symSize: 0x2C }
  - { offsetInCU: 0x1B35A, offset: 0x1B35A, size: 0x8, addend: 0x0, symName: __ZNKSt3__16vectorIiNS_9allocatorIiEEE4sizeB8ue170006Ev, symObjAddr: 0x460, symBinAddr: 0x1000011F8, symSize: 0x28 }
  - { offsetInCU: 0x1B380, offset: 0x1B380, size: 0x8, addend: 0x0, symName: __ZNSt3__16vectorIbNS_9allocatorIbEEEC1EmRKb, symObjAddr: 0x488, symBinAddr: 0x100001220, symSize: 0x3C }
  - { offsetInCU: 0x1B3CA, offset: 0x1B3CA, size: 0x8, addend: 0x0, symName: __ZNSt3__16vectorINS0_IbNS_9allocatorIbEEEENS1_IS3_EEEC1EmRKS3_, symObjAddr: 0x4C4, symBinAddr: 0x10000125C, symSize: 0x3C }
  - { offsetInCU: 0x1B414, offset: 0x1B414, size: 0x8, addend: 0x0, symName: __ZNSt3__16vectorIbNS_9allocatorIbEEED1B8ue170006Ev, symObjAddr: 0x500, symBinAddr: 0x100001298, symSize: 0x2C }
  - { offsetInCU: 0x1B43E, offset: 0x1B43E, size: 0x8, addend: 0x0, symName: __ZNKSt3__16vectorINS_5tupleIJiiiEEENS_9allocatorIS2_EEE5beginB8ue170006Ev, symObjAddr: 0x52C, symBinAddr: 0x1000012C4, symSize: 0x30 }
  - { offsetInCU: 0x1B466, offset: 0x1B466, size: 0x8, addend: 0x0, symName: __ZNKSt3__16vectorINS_5tupleIJiiiEEENS_9allocatorIS2_EEE3endB8ue170006Ev, symObjAddr: 0x55C, symBinAddr: 0x1000012F4, symSize: 0x30 }
  - { offsetInCU: 0x1B48E, offset: 0x1B48E, size: 0x8, addend: 0x0, symName: __ZNKSt3__111__wrap_iterIPKNS_5tupleIJiiiEEEEdeB8ue170006Ev, symObjAddr: 0x5C0, symBinAddr: 0x100001358, symSize: 0x18 }
  - { offsetInCU: 0x1B55D, offset: 0x1B55D, size: 0x8, addend: 0x0, symName: __ZNSt3__15tupleIJRiS1_S1_EEaSB8ue170006IJiiiELi0EEERS2_RKNS0_IJDpT_EEE, symObjAddr: 0x618, symBinAddr: 0x1000013B0, symSize: 0x3C }
  - { offsetInCU: 0x1B5AD, offset: 0x1B5AD, size: 0x8, addend: 0x0, symName: __ZNSt3__16vectorINS0_IbNS_9allocatorIbEEEENS1_IS3_EEEixB8ue170006Em, symObjAddr: 0x6AC, symBinAddr: 0x100001444, symSize: 0x2C }
  - { offsetInCU: 0x1B5E4, offset: 0x1B5E4, size: 0x8, addend: 0x0, symName: __ZNSt3__16vectorIbNS_9allocatorIbEEEixB8ue170006Em, symObjAddr: 0x6D8, symBinAddr: 0x100001470, symSize: 0x3C }
  - { offsetInCU: 0x1B619, offset: 0x1B619, size: 0x8, addend: 0x0, symName: __ZNKSt3__115__bit_referenceINS_6vectorIbNS_9allocatorIbEEEELb1EEcvbB8ue170006Ev, symObjAddr: 0x714, symBinAddr: 0x1000014AC, symSize: 0x2C }
  - { offsetInCU: 0x1B63F, offset: 0x1B63F, size: 0x8, addend: 0x0, symName: __ZNKSt3__16vectorIiNS_9allocatorIiEEEixB8ue170006Em, symObjAddr: 0x740, symBinAddr: 0x1000014D8, symSize: 0x24 }
  - { offsetInCU: 0x1B676, offset: 0x1B676, size: 0x8, addend: 0x0, symName: __ZNSt3__115__bit_referenceINS_6vectorIbNS_9allocatorIbEEEELb1EEaSB8ue170006Eb, symObjAddr: 0x764, symBinAddr: 0x1000014FC, symSize: 0x6C }
  - { offsetInCU: 0x1B6AA, offset: 0x1B6AA, size: 0x8, addend: 0x0, symName: __ZNSt3__111__wrap_iterIPKNS_5tupleIJiiiEEEEppB8ue170006Ev, symObjAddr: 0x7D0, symBinAddr: 0x100001568, symSize: 0x20 }
  - { offsetInCU: 0x1B6D0, offset: 0x1B6D0, size: 0x8, addend: 0x0, symName: __ZNSt3__16vectorINS0_IbNS_9allocatorIbEEEENS1_IS3_EEED1B8ue170006Ev, symObjAddr: 0x7F0, symBinAddr: 0x100001588, symSize: 0x2C }
  - { offsetInCU: 0x1B6F9, offset: 0x1B6F9, size: 0x8, addend: 0x0, symName: __Z17gerar_successoresRK6EstadoRKNSt3__16vectorINS3_IiNS2_9allocatorIiEEEENS4_IS6_EEEEi, symObjAddr: 0x81C, symBinAddr: 0x1000015B4, symSize: 0x2F8 }
  - { offsetInCU: 0x1B7F9, offset: 0x1B7F9, size: 0x8, addend: 0x0, symName: __ZNSt3__16vectorI6EstadoNS_9allocatorIS1_EEEC1B8ue170006Ev, symObjAddr: 0xB14, symBinAddr: 0x1000018AC, symSize: 0x2C }
  - { offsetInCU: 0x1B823, offset: 0x1B823, size: 0x8, addend: 0x0, symName: __ZNSt3__16vectorIiNS_9allocatorIiEEEC1B8ue170006ESt16initializer_listIiE, symObjAddr: 0xB40, symBinAddr: 0x1000018D8, symSize: 0x3C }
  - { offsetInCU: 0x1B85E, offset: 0x1B85E, size: 0x8, addend: 0x0, symName: __ZNSt3__16vectorIiNS_9allocatorIiEEE5beginB8ue170006Ev, symObjAddr: 0xB7C, symBinAddr: 0x100001914, symSize: 0x30 }
  - { offsetInCU: 0x1B886, offset: 0x1B886, size: 0x8, addend: 0x0, symName: __ZNSt3__16vectorIiNS_9allocatorIiEEE3endB8ue170006Ev, symObjAddr: 0xBAC, symBinAddr: 0x100001944, symSize: 0x30 }
  - { offsetInCU: 0x1B8AE, offset: 0x1B8AE, size: 0x8, addend: 0x0, symName: __ZNKSt3__111__wrap_iterIPiEdeB8ue170006Ev, symObjAddr: 0xC10, symBinAddr: 0x1000019A8, symSize: 0x18 }
  - { offsetInCU: 0x1B8D4, offset: 0x1B8D4, size: 0x8, addend: 0x0, symName: __ZN6EstadoC1ERKS_, symObjAddr: 0xC28, symBinAddr: 0x1000019C0, symSize: 0x34 }
  - { offsetInCU: 0x1B909, offset: 0x1B909, size: 0x8, addend: 0x0, symName: __ZNSt3__16vectorINS_5tupleIJiiiEEENS_9allocatorIS2_EEE12emplace_backIJRmS7_RiEEEvDpOT_, symObjAddr: 0xC5C, symBinAddr: 0x1000019F4, symSize: 0x84 }
  - { offsetInCU: 0x1B973, offset: 0x1B973, size: 0x8, addend: 0x0, symName: __ZNSt3__16vectorI6EstadoNS_9allocatorIS1_EEE9push_backB8ue170006ERKS1_, symObjAddr: 0xCE0, symBinAddr: 0x100001A78, symSize: 0x6C }
  - { offsetInCU: 0x1B9AA, offset: 0x1B9AA, size: 0x8, addend: 0x0, symName: __ZN6EstadoD1Ev, symObjAddr: 0xD4C, symBinAddr: 0x100001AE4, symSize: 0x2C }
  - { offsetInCU: 0x1B9D6, offset: 0x1B9D6, size: 0x8, addend: 0x0, symName: __ZNSt3__111__wrap_iterIPiEppB8ue170006Ev, symObjAddr: 0xD78, symBinAddr: 0x100001B10, symSize: 0x20 }
  - { offsetInCU: 0x1B9FC, offset: 0x1B9FC, size: 0x8, addend: 0x0, symName: __ZNSt3__16vectorIiNS_9allocatorIiEEED1B8ue170006Ev, symObjAddr: 0xD98, symBinAddr: 0x100001B30, symSize: 0x2C }
  - { offsetInCU: 0x1BA26, offset: 0x1BA26, size: 0x8, addend: 0x0, symName: __ZNSt3__16vectorI6EstadoNS_9allocatorIS1_EEED1B8ue170006Ev, symObjAddr: 0xDC4, symBinAddr: 0x100001B5C, symSize: 0x2C }
  - { offsetInCU: 0x1BA4F, offset: 0x1BA4F, size: 0x8, addend: 0x0, symName: __Z12imprime_mapaRKNSt3__16vectorINS0_IiNS_9allocatorIiEEEENS1_IS3_EEEERK6Estadoi, symObjAddr: 0xDF0, symBinAddr: 0x100001B88, symSize: 0x460 }
  - { offsetInCU: 0x1BBE6, offset: 0x1BBE6, size: 0x8, addend: 0x0, symName: __ZNSt3__113basic_ostreamIcNS_11char_traitsIcEEElsB8ue170006EPFRS3_S4_E, symObjAddr: 0x1304, symBinAddr: 0x10000209C, symSize: 0x2C }
  - { offsetInCU: 0x1BC1A, offset: 0x1BC1A, size: 0x8, addend: 0x0, symName: __ZNKSt3__16vectorINS_5tupleIJiiiEEENS_9allocatorIS2_EEE4sizeB8ue170006Ev, symObjAddr: 0x1454, symBinAddr: 0x1000021EC, symSize: 0x28 }
  - { offsetInCU: 0x1BC3F, offset: 0x1BC3F, size: 0x8, addend: 0x0, symName: __Z10instanciasiRKNSt3__16vectorINS0_IiNS_9allocatorIiEEEENS1_IS3_EEEEiii, symObjAddr: 0x147C, symBinAddr: 0x100002214, symSize: 0x6E0 }
  - { offsetInCU: 0x1BDEB, offset: 0x1BDEB, size: 0x8, addend: 0x0, symName: __ZNSt3__16vectorINS_5tupleIJiiiEEENS_9allocatorIS2_EEEC1B8ue170006Ev, symObjAddr: 0x1B5C, symBinAddr: 0x1000028F4, symSize: 0x2C }
  - { offsetInCU: 0x1BE15, offset: 0x1BE15, size: 0x8, addend: 0x0, symName: __ZN6EstadoC1ENSt3__16vectorINS0_5tupleIJiiiEEENS0_9allocatorIS3_EEEEii, symObjAddr: 0x1B88, symBinAddr: 0x100002920, symSize: 0x44 }
  - { offsetInCU: 0x1BE6A, offset: 0x1BE6A, size: 0x8, addend: 0x0, symName: __ZNSt3__16vectorINS_5tupleIJiiiEEENS_9allocatorIS2_EEED1B8ue170006Ev, symObjAddr: 0x1BCC, symBinAddr: 0x100002964, symSize: 0x2C }
  - { offsetInCU: 0x1BE94, offset: 0x1BE94, size: 0x8, addend: 0x0, symName: __ZNKSt16initializer_listIiE5beginB8ue170006Ev, symObjAddr: 0x1BF8, symBinAddr: 0x100002990, symSize: 0x18 }
  - { offsetInCU: 0x1BEBA, offset: 0x1BEBA, size: 0x8, addend: 0x0, symName: __ZNKSt16initializer_listIiE3endB8ue170006Ev, symObjAddr: 0x1C10, symBinAddr: 0x1000029A8, symSize: 0x20 }
  - { offsetInCU: 0x1BF3B, offset: 0x1BF3B, size: 0x8, addend: 0x0, symName: __ZNSt3__114priority_queueI6EstadoNS_6vectorIS1_NS_9allocatorIS1_EEEENS_7greaterIS1_EEEC1B8ue170006Ev, symObjAddr: 0x1C30, symBinAddr: 0x1000029C8, symSize: 0x2C }
  - { offsetInCU: 0x1BF65, offset: 0x1BF65, size: 0x8, addend: 0x0, symName: __ZNSt3__114priority_queueI6EstadoNS_6vectorIS1_NS_9allocatorIS1_EEEENS_7greaterIS1_EEE4pushEOS1_, symObjAddr: 0x1C5C, symBinAddr: 0x1000029F4, symSize: 0x58 }
  - { offsetInCU: 0x1BF9C, offset: 0x1BF9C, size: 0x8, addend: 0x0, symName: __ZNKSt3__114priority_queueI6EstadoNS_6vectorIS1_NS_9allocatorIS1_EEEENS_7greaterIS1_EEE5emptyB8ue170006Ev, symObjAddr: 0x1CB4, symBinAddr: 0x100002A4C, symSize: 0x28 }
  - { offsetInCU: 0x1BFC2, offset: 0x1BFC2, size: 0x8, addend: 0x0, symName: __ZNKSt3__16chrono8durationIxNS_5ratioILl1ELl1000EEEE5countB8ue170006Ev, symObjAddr: 0x1D64, symBinAddr: 0x100002AFC, symSize: 0x18 }
  - { offsetInCU: 0x1BFE8, offset: 0x1BFE8, size: 0x8, addend: 0x0, symName: __ZNKSt3__114priority_queueI6EstadoNS_6vectorIS1_NS_9allocatorIS1_EEEENS_7greaterIS1_EEE3topB8ue170006Ev, symObjAddr: 0x1D7C, symBinAddr: 0x100002B14, symSize: 0x24 }
  - { offsetInCU: 0x1C00E, offset: 0x1C00E, size: 0x8, addend: 0x0, symName: __ZNSt3__114priority_queueI6EstadoNS_6vectorIS1_NS_9allocatorIS1_EEEENS_7greaterIS1_EEE3popEv, symObjAddr: 0x1DA0, symBinAddr: 0x100002B38, symSize: 0x50 }
  - { offsetInCU: 0x1C036, offset: 0x1C036, size: 0x8, addend: 0x0, symName: __ZN6EstadoaSERKS_, symObjAddr: 0x1DF0, symBinAddr: 0x100002B88, symSize: 0x40 }
  - { offsetInCU: 0x1C067, offset: 0x1C067, size: 0x8, addend: 0x0, symName: __ZNKSt3__16vectorI6EstadoNS_9allocatorIS1_EEE4sizeB8ue170006Ev, symObjAddr: 0x1E30, symBinAddr: 0x100002BC8, symSize: 0x28 }
  - { offsetInCU: 0x1C08D, offset: 0x1C08D, size: 0x8, addend: 0x0, symName: __ZNSt3__16vectorI6EstadoNS_9allocatorIS1_EEE5beginB8ue170006Ev, symObjAddr: 0x1E58, symBinAddr: 0x100002BF0, symSize: 0x30 }
  - { offsetInCU: 0x1C0B5, offset: 0x1C0B5, size: 0x8, addend: 0x0, symName: __ZNSt3__16vectorI6EstadoNS_9allocatorIS1_EEE3endB8ue170006Ev, symObjAddr: 0x1E88, symBinAddr: 0x100002C20, symSize: 0x30 }
  - { offsetInCU: 0x1C0DD, offset: 0x1C0DD, size: 0x8, addend: 0x0, symName: __ZNKSt3__111__wrap_iterIP6EstadoEdeB8ue170006Ev, symObjAddr: 0x1EEC, symBinAddr: 0x100002C84, symSize: 0x18 }
  - { offsetInCU: 0x1C103, offset: 0x1C103, size: 0x8, addend: 0x0, symName: __ZNSt3__114priority_queueI6EstadoNS_6vectorIS1_NS_9allocatorIS1_EEEENS_7greaterIS1_EEE4pushERKS1_, symObjAddr: 0x1F04, symBinAddr: 0x100002C9C, symSize: 0x58 }
  - { offsetInCU: 0x1C13A, offset: 0x1C13A, size: 0x8, addend: 0x0, symName: __ZNSt3__111__wrap_iterIP6EstadoEppB8ue170006Ev, symObjAddr: 0x1F5C, symBinAddr: 0x100002CF4, symSize: 0x20 }
  - { offsetInCU: 0x1C160, offset: 0x1C160, size: 0x8, addend: 0x0, symName: __ZNSt3__114priority_queueI6EstadoNS_6vectorIS1_NS_9allocatorIS1_EEEENS_7greaterIS1_EEED1Ev, symObjAddr: 0x1F7C, symBinAddr: 0x100002D14, symSize: 0x2C }
  - { offsetInCU: 0x1C18D, offset: 0x1C18D, size: 0x8, addend: 0x0, symName: __ZNSt3__16vectorINS0_IiNS_9allocatorIiEEEENS1_IS3_EEEC1B8ue170006ESt16initializer_listIS3_E, symObjAddr: 0x5190, symBinAddr: 0x100005F28, symSize: 0x3C }
  - { offsetInCU: 0x1C1C8, offset: 0x1C1C8, size: 0x8, addend: 0x0, symName: __ZNSt3__15tupleIJiNS_6vectorINS1_IiNS_9allocatorIiEEEENS2_IS4_EEEEiiiEEC1B8ue170006INS_4_AndELi0EEERKiRKS6_SB_SB_SB_, symObjAddr: 0x51CC, symBinAddr: 0x100005F64, symSize: 0x54 }
  - { offsetInCU: 0x1C24C, offset: 0x1C24C, size: 0x8, addend: 0x0, symName: __ZNSt3__16vectorINS_5tupleIJiNS0_INS0_IiNS_9allocatorIiEEEENS2_IS4_EEEEiiiEEENS2_IS7_EEEC1B8ue170006ESt16initializer_listIS7_E, symObjAddr: 0x5220, symBinAddr: 0x100005FB8, symSize: 0x3C }
  - { offsetInCU: 0x1C287, offset: 0x1C287, size: 0x8, addend: 0x0, symName: __ZNSt3__15tupleIJiNS_6vectorINS1_IiNS_9allocatorIiEEEENS2_IS4_EEEEiiiEED1Ev, symObjAddr: 0x525C, symBinAddr: 0x100005FF4, symSize: 0x2C }
  - { offsetInCU: 0x1C2B4, offset: 0x1C2B4, size: 0x8, addend: 0x0, symName: __ZNSt3__16vectorINS0_IiNS_9allocatorIiEEEENS1_IS3_EEED1B8ue170006Ev, symObjAddr: 0x5288, symBinAddr: 0x100006020, symSize: 0x2C }
  - { offsetInCU: 0x1C2DE, offset: 0x1C2DE, size: 0x8, addend: 0x0, symName: __ZNSt3__16vectorIZ4mainE9ResultadoNS_9allocatorIS1_EEEC1B8ue170006Ev, symObjAddr: 0x52B4, symBinAddr: 0x10000604C, symSize: 0x2C }
  - { offsetInCU: 0x1C308, offset: 0x1C308, size: 0x8, addend: 0x0, symName: __ZNSt3__16vectorINS_5tupleIJiNS0_INS0_IiNS_9allocatorIiEEEENS2_IS4_EEEEiiiEEENS2_IS7_EEE5beginB8ue170006Ev, symObjAddr: 0x52E0, symBinAddr: 0x100006078, symSize: 0x30 }
  - { offsetInCU: 0x1C330, offset: 0x1C330, size: 0x8, addend: 0x0, symName: __ZNSt3__16vectorINS_5tupleIJiNS0_INS0_IiNS_9allocatorIiEEEENS2_IS4_EEEEiiiEEENS2_IS7_EEE3endB8ue170006Ev, symObjAddr: 0x5310, symBinAddr: 0x1000060A8, symSize: 0x30 }
  - { offsetInCU: 0x1C358, offset: 0x1C358, size: 0x8, addend: 0x0, symName: __ZNKSt3__111__wrap_iterIPNS_5tupleIJiNS_6vectorINS2_IiNS_9allocatorIiEEEENS3_IS5_EEEEiiiEEEEdeB8ue170006Ev, symObjAddr: 0x5374, symBinAddr: 0x10000610C, symSize: 0x18 }
  - { offsetInCU: 0x1C37E, offset: 0x1C37E, size: 0x8, addend: 0x0, symName: __ZNSt3__111__wrap_iterIPNS_5tupleIJiNS_6vectorINS2_IiNS_9allocatorIiEEEENS3_IS5_EEEEiiiEEEEppB8ue170006Ev, symObjAddr: 0x5450, symBinAddr: 0x1000061E8, symSize: 0x20 }
  - { offsetInCU: 0x1C3A4, offset: 0x1C3A4, size: 0x8, addend: 0x0, symName: __ZNSt3__16vectorIZ4mainE9ResultadoNS_9allocatorIS1_EEED1B8ue170006Ev, symObjAddr: 0x5470, symBinAddr: 0x100006208, symSize: 0x2C }
  - { offsetInCU: 0x1C3CE, offset: 0x1C3CE, size: 0x8, addend: 0x0, symName: __ZNSt3__16vectorINS_5tupleIJiNS0_INS0_IiNS_9allocatorIiEEEENS2_IS4_EEEEiiiEEENS2_IS7_EEED1B8ue170006Ev, symObjAddr: 0x549C, symBinAddr: 0x100006234, symSize: 0x2C }
  - { offsetInCU: 0x1C3F8, offset: 0x1C3F8, size: 0x8, addend: 0x0, symName: __ZNKSt3__111__wrap_iterIPKNS_5tupleIJiiiEEEE4baseB8ue170006Ev, symObjAddr: 0x5510, symBinAddr: 0x1000062A8, symSize: 0x18 }
  - { offsetInCU: 0x1C41E, offset: 0x1C41E, size: 0x8, addend: 0x0, symName: __ZNKSt3__111__wrap_iterIPiE4baseB8ue170006Ev, symObjAddr: 0x5570, symBinAddr: 0x100006308, symSize: 0x18 }
  - { offsetInCU: 0x1C444, offset: 0x1C444, size: 0x8, addend: 0x0, symName: __ZN6EstadoC2ERKS_, symObjAddr: 0x5588, symBinAddr: 0x100006320, symSize: 0x40 }
  - { offsetInCU: 0x1C479, offset: 0x1C479, size: 0x8, addend: 0x0, symName: __ZNSt3__16vectorINS_5tupleIJiiiEEENS_9allocatorIS2_EEEC1ERKS5_, symObjAddr: 0x55C8, symBinAddr: 0x100006360, symSize: 0x34 }
  - { offsetInCU: 0x1C4B4, offset: 0x1C4B4, size: 0x8, addend: 0x0, symName: __ZNSt3__16vectorINS_5tupleIJiiiEEENS_9allocatorIS2_EEEC2ERKS5_, symObjAddr: 0x55FC, symBinAddr: 0x100006394, symSize: 0x94 }
  - { offsetInCU: 0x1C4FA, offset: 0x1C4FA, size: 0x8, addend: 0x0, symName: __ZNSt3__116allocator_traitsINS_9allocatorINS_5tupleIJiiiEEEEEE37select_on_container_copy_constructionB8ue170006IS4_vvEES4_RKS4_, symObjAddr: 0x5690, symBinAddr: 0x100006428, symSize: 0x10 }
  - { offsetInCU: 0x1C529, offset: 0x1C529, size: 0x8, addend: 0x0, symName: __ZNKSt3__16vectorINS_5tupleIJiiiEEENS_9allocatorIS2_EEE7__allocB8ue170006Ev, symObjAddr: 0x56A0, symBinAddr: 0x100006438, symSize: 0x28 }
  - { offsetInCU: 0x1C55B, offset: 0x1C55B, size: 0x8, addend: 0x0, symName: __ZNSt3__117__compressed_pairIPNS_5tupleIJiiiEEENS_9allocatorIS2_EEEC1B8ue170006IDnS5_EEOT_OT0_, symObjAddr: 0x56C8, symBinAddr: 0x100006460, symSize: 0x3C }
  - { offsetInCU: 0x1C5B3, offset: 0x1C5B3, size: 0x8, addend: 0x0, symName: __ZNSt3__16vectorINS_5tupleIJiiiEEENS_9allocatorIS2_EEE16__init_with_sizeB8ue170006IPS2_S7_EEvT_T0_m, symObjAddr: 0x5704, symBinAddr: 0x10000649C, symSize: 0xB8 }
  - { offsetInCU: 0x1C627, offset: 0x1C627, size: 0x8, addend: 0x0, symName: __ZNKSt3__117__compressed_pairIPNS_5tupleIJiiiEEENS_9allocatorIS2_EEE6secondB8ue170006Ev, symObjAddr: 0x57BC, symBinAddr: 0x100006554, symSize: 0x24 }
  - { offsetInCU: 0x1C64D, offset: 0x1C64D, size: 0x8, addend: 0x0, symName: __ZNKSt3__122__compressed_pair_elemINS_9allocatorINS_5tupleIJiiiEEEEELi1ELb1EE5__getB8ue170006Ev, symObjAddr: 0x57E0, symBinAddr: 0x100006578, symSize: 0x14 }
  - { offsetInCU: 0x1C673, offset: 0x1C673, size: 0x8, addend: 0x0, symName: __ZNSt3__117__compressed_pairIPNS_5tupleIJiiiEEENS_9allocatorIS2_EEEC2B8ue170006IDnS5_EEOT_OT0_, symObjAddr: 0x57F4, symBinAddr: 0x10000658C, symSize: 0x44 }
  - { offsetInCU: 0x1C6CB, offset: 0x1C6CB, size: 0x8, addend: 0x0, symName: __ZNSt3__122__compressed_pair_elemIPNS_5tupleIJiiiEEELi0ELb0EEC2B8ue170006IDnvEEOT_, symObjAddr: 0x5838, symBinAddr: 0x1000065D0, symSize: 0x1C }
  - { offsetInCU: 0x1C70D, offset: 0x1C70D, size: 0x8, addend: 0x0, symName: __ZNSt3__122__compressed_pair_elemINS_9allocatorINS_5tupleIJiiiEEEEELi1ELb1EEC2B8ue170006IS4_vEEOT_, symObjAddr: 0x5854, symBinAddr: 0x1000065EC, symSize: 0x18 }
  - { offsetInCU: 0x1C74F, offset: 0x1C74F, size: 0x8, addend: 0x0, symName: __ZNSt3__16vectorINS_5tupleIJiiiEEENS_9allocatorIS2_EEE16__destroy_vectorC1B8ue170006ERS5_, symObjAddr: 0x58AC, symBinAddr: 0x100006644, symSize: 0x34 }
  - { offsetInCU: 0x1C788, offset: 0x1C788, size: 0x8, addend: 0x0, symName: __ZNSt3__16vectorINS_5tupleIJiiiEEENS_9allocatorIS2_EEE11__vallocateB8ue170006Em, symObjAddr: 0x58E0, symBinAddr: 0x100006678, symSize: 0xB4 }
  - { offsetInCU: 0x1C7CC, offset: 0x1C7CC, size: 0x8, addend: 0x0, symName: __ZNSt3__16vectorINS_5tupleIJiiiEEENS_9allocatorIS2_EEE18__construct_at_endIPS2_S7_EEvT_T0_m, symObjAddr: 0x5994, symBinAddr: 0x10000672C, symSize: 0x8C }
  - { offsetInCU: 0x1C842, offset: 0x1C842, size: 0x8, addend: 0x0, symName: __ZNSt3__128__exception_guard_exceptionsINS_6vectorINS_5tupleIJiiiEEENS_9allocatorIS3_EEE16__destroy_vectorEE10__completeB8ue170006Ev, symObjAddr: 0x5A20, symBinAddr: 0x1000067B8, symSize: 0x1C }
  - { offsetInCU: 0x1C868, offset: 0x1C868, size: 0x8, addend: 0x0, symName: __ZNSt3__128__exception_guard_exceptionsINS_6vectorINS_5tupleIJiiiEEENS_9allocatorIS3_EEE16__destroy_vectorEED1B8ue170006Ev, symObjAddr: 0x5A3C, symBinAddr: 0x1000067D4, symSize: 0x2C }
  - { offsetInCU: 0x1C892, offset: 0x1C892, size: 0x8, addend: 0x0, symName: __ZNSt3__128__exception_guard_exceptionsINS_6vectorINS_5tupleIJiiiEEENS_9allocatorIS3_EEE16__destroy_vectorEEC1B8ue170006ES7_, symObjAddr: 0x5A68, symBinAddr: 0x100006800, symSize: 0x34 }
  - { offsetInCU: 0x1C8CA, offset: 0x1C8CA, size: 0x8, addend: 0x0, symName: __ZNSt3__128__exception_guard_exceptionsINS_6vectorINS_5tupleIJiiiEEENS_9allocatorIS3_EEE16__destroy_vectorEEC2B8ue170006ES7_, symObjAddr: 0x5A9C, symBinAddr: 0x100006834, symSize: 0x24 }
  - { offsetInCU: 0x1C902, offset: 0x1C902, size: 0x8, addend: 0x0, symName: __ZNSt3__16vectorINS_5tupleIJiiiEEENS_9allocatorIS2_EEE16__destroy_vectorC2B8ue170006ERS5_, symObjAddr: 0x5AC0, symBinAddr: 0x100006858, symSize: 0x20 }
  - { offsetInCU: 0x1C93B, offset: 0x1C93B, size: 0x8, addend: 0x0, symName: __ZNKSt3__16vectorINS_5tupleIJiiiEEENS_9allocatorIS2_EEE8max_sizeEv, symObjAddr: 0x5AE0, symBinAddr: 0x100006878, symSize: 0x60 }
  - { offsetInCU: 0x1C963, offset: 0x1C963, size: 0x8, addend: 0x0, symName: __ZNKSt3__16vectorINS_5tupleIJiiiEEENS_9allocatorIS2_EEE20__throw_length_errorB8ue170006Ev, symObjAddr: 0x5B40, symBinAddr: 0x1000068D8, symSize: 0x1C }
  - { offsetInCU: 0x1C989, offset: 0x1C989, size: 0x8, addend: 0x0, symName: __ZNSt3__16vectorINS_5tupleIJiiiEEENS_9allocatorIS2_EEE7__allocB8ue170006Ev, symObjAddr: 0x5B9C, symBinAddr: 0x100006934, symSize: 0x28 }
  - { offsetInCU: 0x1C9AF, offset: 0x1C9AF, size: 0x8, addend: 0x0, symName: __ZNSt3__16vectorINS_5tupleIJiiiEEENS_9allocatorIS2_EEE9__end_capB8ue170006Ev, symObjAddr: 0x5BC4, symBinAddr: 0x10000695C, symSize: 0x28 }
  - { offsetInCU: 0x1C9D5, offset: 0x1C9D5, size: 0x8, addend: 0x0, symName: __ZNKSt3__16vectorINS_5tupleIJiiiEEENS_9allocatorIS2_EEE14__annotate_newB8ue170006Em, symObjAddr: 0x5BEC, symBinAddr: 0x100006984, symSize: 0xC8 }
  - { offsetInCU: 0x1CA0A, offset: 0x1CA0A, size: 0x8, addend: 0x0, symName: __ZNSt3__116allocator_traitsINS_9allocatorINS_5tupleIJiiiEEEEEE8max_sizeB8ue170006IS4_vEEmRKS4_, symObjAddr: 0x5CE0, symBinAddr: 0x100006A78, symSize: 0x24 }
  - { offsetInCU: 0x1CA38, offset: 0x1CA38, size: 0x8, addend: 0x0, symName: __ZNSt3__114numeric_limitsIlE3maxB8ue170006Ev, symObjAddr: 0x5D04, symBinAddr: 0x100006A9C, symSize: 0x14 }
  - { offsetInCU: 0x1CA57, offset: 0x1CA57, size: 0x8, addend: 0x0, symName: __ZNKSt3__16__lessIvvEclB8ue170006ImmEEbRKT_RKT0_, symObjAddr: 0x5D78, symBinAddr: 0x100006B10, symSize: 0x34 }
  - { offsetInCU: 0x1CAAB, offset: 0x1CAAB, size: 0x8, addend: 0x0, symName: __ZNKSt3__19allocatorINS_5tupleIJiiiEEEE8max_sizeB8ue170006Ev, symObjAddr: 0x5DAC, symBinAddr: 0x100006B44, symSize: 0x18 }
  - { offsetInCU: 0x1CAD1, offset: 0x1CAD1, size: 0x8, addend: 0x0, symName: __ZNSt3__123__libcpp_numeric_limitsIlLb1EE3maxB8ue170006Ev, symObjAddr: 0x5DC4, symBinAddr: 0x100006B5C, symSize: 0x8 }
  - { offsetInCU: 0x1CAE5, offset: 0x1CAE5, size: 0x8, addend: 0x0, symName: __ZNSt12length_errorC1B8ue170006EPKc, symObjAddr: 0x5E30, symBinAddr: 0x100006BC8, symSize: 0x34 }
  - { offsetInCU: 0x1CB1D, offset: 0x1CB1D, size: 0x8, addend: 0x0, symName: __ZNSt12length_errorC2B8ue170006EPKc, symObjAddr: 0x5E64, symBinAddr: 0x100006BFC, symSize: 0x4C }
  - { offsetInCU: 0x1CB55, offset: 0x1CB55, size: 0x8, addend: 0x0, symName: __ZNSt3__19allocatorINS_5tupleIJiiiEEEE8allocateB8ue170006Em, symObjAddr: 0x5EB0, symBinAddr: 0x100006C48, symSize: 0x5C }
  - { offsetInCU: 0x1CB89, offset: 0x1CB89, size: 0x8, addend: 0x0, symName: __ZNSt3__117__compressed_pairIPNS_5tupleIJiiiEEENS_9allocatorIS2_EEE6secondB8ue170006Ev, symObjAddr: 0x5F8C, symBinAddr: 0x100006D24, symSize: 0x24 }
  - { offsetInCU: 0x1CBAF, offset: 0x1CBAF, size: 0x8, addend: 0x0, symName: __ZNSt3__122__compressed_pair_elemINS_9allocatorINS_5tupleIJiiiEEEEELi1ELb1EE5__getB8ue170006Ev, symObjAddr: 0x5FB0, symBinAddr: 0x100006D48, symSize: 0x14 }
  - { offsetInCU: 0x1CBD5, offset: 0x1CBD5, size: 0x8, addend: 0x0, symName: __ZNSt3__117__compressed_pairIPNS_5tupleIJiiiEEENS_9allocatorIS2_EEE5firstB8ue170006Ev, symObjAddr: 0x5FC4, symBinAddr: 0x100006D5C, symSize: 0x24 }
  - { offsetInCU: 0x1CBFB, offset: 0x1CBFB, size: 0x8, addend: 0x0, symName: __ZNSt3__122__compressed_pair_elemIPNS_5tupleIJiiiEEELi0ELb0EE5__getB8ue170006Ev, symObjAddr: 0x5FE8, symBinAddr: 0x100006D80, symSize: 0x14 }
  - { offsetInCU: 0x1CC21, offset: 0x1CC21, size: 0x8, addend: 0x0, symName: __ZNKSt3__16vectorINS_5tupleIJiiiEEENS_9allocatorIS2_EEE31__annotate_contiguous_containerB8ue170006EPKvS7_S7_S7_, symObjAddr: 0x5FFC, symBinAddr: 0x100006D94, symSize: 0x20 }
  - { offsetInCU: 0x1CC77, offset: 0x1CC77, size: 0x8, addend: 0x0, symName: __ZNKSt3__16vectorINS_5tupleIJiiiEEENS_9allocatorIS2_EEE4dataB8ue170006Ev, symObjAddr: 0x601C, symBinAddr: 0x100006DB4, symSize: 0x28 }
  - { offsetInCU: 0x1CC9D, offset: 0x1CC9D, size: 0x8, addend: 0x0, symName: __ZNKSt3__16vectorINS_5tupleIJiiiEEENS_9allocatorIS2_EEE8capacityB8ue170006Ev, symObjAddr: 0x6044, symBinAddr: 0x100006DDC, symSize: 0x40 }
  - { offsetInCU: 0x1CCC3, offset: 0x1CCC3, size: 0x8, addend: 0x0, symName: __ZNKSt3__16vectorINS_5tupleIJiiiEEENS_9allocatorIS2_EEE9__end_capB8ue170006Ev, symObjAddr: 0x6098, symBinAddr: 0x100006E30, symSize: 0x28 }
  - { offsetInCU: 0x1CCE9, offset: 0x1CCE9, size: 0x8, addend: 0x0, symName: __ZNKSt3__117__compressed_pairIPNS_5tupleIJiiiEEENS_9allocatorIS2_EEE5firstB8ue170006Ev, symObjAddr: 0x60C0, symBinAddr: 0x100006E58, symSize: 0x24 }
  - { offsetInCU: 0x1CD0F, offset: 0x1CD0F, size: 0x8, addend: 0x0, symName: __ZNKSt3__122__compressed_pair_elemIPNS_5tupleIJiiiEEELi0ELb0EE5__getB8ue170006Ev, symObjAddr: 0x60E4, symBinAddr: 0x100006E7C, symSize: 0x14 }
  - { offsetInCU: 0x1CD51, offset: 0x1CD51, size: 0x8, addend: 0x0, symName: __ZNSt3__16vectorINS_5tupleIJiiiEEENS_9allocatorIS2_EEE21_ConstructTransactionC1B8ue170006ERS5_m, symObjAddr: 0x60F8, symBinAddr: 0x100006E90, symSize: 0x3C }
  - { offsetInCU: 0x1CD99, offset: 0x1CD99, size: 0x8, addend: 0x0, symName: __ZNSt3__16vectorINS_5tupleIJiiiEEENS_9allocatorIS2_EEE21_ConstructTransactionD1B8ue170006Ev, symObjAddr: 0x61B4, symBinAddr: 0x100006F4C, symSize: 0x2C }
  - { offsetInCU: 0x1CDC3, offset: 0x1CDC3, size: 0x8, addend: 0x0, symName: __ZNSt3__16vectorINS_5tupleIJiiiEEENS_9allocatorIS2_EEE21_ConstructTransactionC2B8ue170006ERS5_m, symObjAddr: 0x61E0, symBinAddr: 0x100006F78, symSize: 0x4C }
  - { offsetInCU: 0x1CE2E, offset: 0x1CE2E, size: 0x8, addend: 0x0, symName: __ZNSt3__14pairIPNS_5tupleIJiiiEEES3_EC1B8ue170006IS3_S3_LPv0EEEOT_OT0_, symObjAddr: 0x6418, symBinAddr: 0x1000071B0, symSize: 0x3C }
  - { offsetInCU: 0x1CE8C, offset: 0x1CE8C, size: 0x8, addend: 0x0, symName: __ZNSt3__14pairIPNS_5tupleIJiiiEEES3_EC2B8ue170006IS3_S3_LPv0EEEOT_OT0_, symObjAddr: 0x6454, symBinAddr: 0x1000071EC, symSize: 0x34 }
  - { offsetInCU: 0x1CEEA, offset: 0x1CEEA, size: 0x8, addend: 0x0, symName: __ZNSt3__129_AllocatorDestroyRangeReverseINS_9allocatorINS_5tupleIJiiiEEEEEPS3_EC1B8ue170006ERS4_RS5_S8_, symObjAddr: 0x64D4, symBinAddr: 0x10000726C, symSize: 0x44 }
  - { offsetInCU: 0x1CF41, offset: 0x1CF41, size: 0x8, addend: 0x0, symName: __ZNSt3__116allocator_traitsINS_9allocatorINS_5tupleIJiiiEEEEEE9constructB8ue170006IS3_JRS3_EvEEvRS4_PT_DpOT0_, symObjAddr: 0x6518, symBinAddr: 0x1000072B0, symSize: 0x34 }
  - { offsetInCU: 0x1CF98, offset: 0x1CF98, size: 0x8, addend: 0x0, symName: __ZNSt3__128__exception_guard_exceptionsINS_29_AllocatorDestroyRangeReverseINS_9allocatorINS_5tupleIJiiiEEEEEPS4_EEE10__completeB8ue170006Ev, symObjAddr: 0x654C, symBinAddr: 0x1000072E4, symSize: 0x1C }
  - { offsetInCU: 0x1CFBE, offset: 0x1CFBE, size: 0x8, addend: 0x0, symName: __ZNSt3__128__exception_guard_exceptionsINS_29_AllocatorDestroyRangeReverseINS_9allocatorINS_5tupleIJiiiEEEEEPS4_EEED1B8ue170006Ev, symObjAddr: 0x6568, symBinAddr: 0x100007300, symSize: 0x2C }
  - { offsetInCU: 0x1CFE8, offset: 0x1CFE8, size: 0x8, addend: 0x0, symName: __ZNSt3__128__exception_guard_exceptionsINS_29_AllocatorDestroyRangeReverseINS_9allocatorINS_5tupleIJiiiEEEEEPS4_EEEC1B8ue170006ES7_, symObjAddr: 0x6594, symBinAddr: 0x10000732C, symSize: 0x34 }
  - { offsetInCU: 0x1D021, offset: 0x1D021, size: 0x8, addend: 0x0, symName: __ZNSt3__128__exception_guard_exceptionsINS_29_AllocatorDestroyRangeReverseINS_9allocatorINS_5tupleIJiiiEEEEEPS4_EEEC2B8ue170006ES7_, symObjAddr: 0x65C8, symBinAddr: 0x100007360, symSize: 0x30 }
  - { offsetInCU: 0x1D05A, offset: 0x1D05A, size: 0x8, addend: 0x0, symName: __ZNSt3__129_AllocatorDestroyRangeReverseINS_9allocatorINS_5tupleIJiiiEEEEEPS3_EC2B8ue170006ERS4_RS5_S8_, symObjAddr: 0x65F8, symBinAddr: 0x100007390, symSize: 0x38 }
  - { offsetInCU: 0x1D0B1, offset: 0x1D0B1, size: 0x8, addend: 0x0, symName: __ZNSt3__19allocatorINS_5tupleIJiiiEEEE9constructB8ue170006IS2_JRS2_EEEvPT_DpOT0_, symObjAddr: 0x6630, symBinAddr: 0x1000073C8, symSize: 0x30 }
  - { offsetInCU: 0x1D107, offset: 0x1D107, size: 0x8, addend: 0x0, symName: __ZNSt3__128__exception_guard_exceptionsINS_29_AllocatorDestroyRangeReverseINS_9allocatorINS_5tupleIJiiiEEEEEPS4_EEED2B8ue170006Ev, symObjAddr: 0x6660, symBinAddr: 0x1000073F8, symSize: 0x50 }
  - { offsetInCU: 0x1D131, offset: 0x1D131, size: 0x8, addend: 0x0, symName: __ZNKSt3__129_AllocatorDestroyRangeReverseINS_9allocatorINS_5tupleIJiiiEEEEEPS3_EclB8ue170006Ev, symObjAddr: 0x66B0, symBinAddr: 0x100007448, symSize: 0x68 }
  - { offsetInCU: 0x1D157, offset: 0x1D157, size: 0x8, addend: 0x0, symName: __ZNSt3__116reverse_iteratorIPNS_5tupleIJiiiEEEEC1B8ue170006ES3_, symObjAddr: 0x6788, symBinAddr: 0x100007520, symSize: 0x34 }
  - { offsetInCU: 0x1D18F, offset: 0x1D18F, size: 0x8, addend: 0x0, symName: __ZNSt3__116allocator_traitsINS_9allocatorINS_5tupleIJiiiEEEEEE7destroyB8ue170006IS3_vEEvRS4_PT_, symObjAddr: 0x6804, symBinAddr: 0x10000759C, symSize: 0x2C }
  - { offsetInCU: 0x1D1CC, offset: 0x1D1CC, size: 0x8, addend: 0x0, symName: __ZNSt3__116reverse_iteratorIPNS_5tupleIJiiiEEEEppB8ue170006Ev, symObjAddr: 0x6854, symBinAddr: 0x1000075EC, symSize: 0x20 }
  - { offsetInCU: 0x1D1F2, offset: 0x1D1F2, size: 0x8, addend: 0x0, symName: __ZNKSt3__116reverse_iteratorIPNS_5tupleIJiiiEEEE4baseB8ue170006Ev, symObjAddr: 0x6874, symBinAddr: 0x10000760C, symSize: 0x18 }
  - { offsetInCU: 0x1D218, offset: 0x1D218, size: 0x8, addend: 0x0, symName: __ZNSt3__19allocatorINS_5tupleIJiiiEEEE7destroyB8ue170006EPS2_, symObjAddr: 0x688C, symBinAddr: 0x100007624, symSize: 0x14 }
  - { offsetInCU: 0x1D252, offset: 0x1D252, size: 0x8, addend: 0x0, symName: __ZNSt3__119__to_address_helperINS_16reverse_iteratorIPNS_5tupleIJiiiEEEEEvE6__callB8ue170006ERKS5_, symObjAddr: 0x68A0, symBinAddr: 0x100007638, symSize: 0x38 }
  - { offsetInCU: 0x1D275, offset: 0x1D275, size: 0x8, addend: 0x0, symName: __ZNKSt3__116reverse_iteratorIPNS_5tupleIJiiiEEEEptB8ue170006Ev, symObjAddr: 0x68D8, symBinAddr: 0x100007670, symSize: 0x24 }
  - { offsetInCU: 0x1D29B, offset: 0x1D29B, size: 0x8, addend: 0x0, symName: __ZNKSt3__116reverse_iteratorIPNS_5tupleIJiiiEEEEdeB8ue170006Ev, symObjAddr: 0x68FC, symBinAddr: 0x100007694, symSize: 0x28 }
  - { offsetInCU: 0x1D2CF, offset: 0x1D2CF, size: 0x8, addend: 0x0, symName: __ZNSt3__116reverse_iteratorIPNS_5tupleIJiiiEEEEC2B8ue170006ES3_, symObjAddr: 0x6924, symBinAddr: 0x1000076BC, symSize: 0x28 }
  - { offsetInCU: 0x1D307, offset: 0x1D307, size: 0x8, addend: 0x0, symName: __ZNSt3__118__unwrap_iter_implIPNS_5tupleIJiiiEEELb1EE8__unwrapB8ue170006ES3_, symObjAddr: 0x694C, symBinAddr: 0x1000076E4, symSize: 0x24 }
  - { offsetInCU: 0x1D32A, offset: 0x1D32A, size: 0x8, addend: 0x0, symName: __ZNSt3__118__unwrap_iter_implIPNS_5tupleIJiiiEEELb1EE8__rewrapB8ue170006ES3_S3_, symObjAddr: 0x6970, symBinAddr: 0x100007708, symSize: 0x58 }
  - { offsetInCU: 0x1D35B, offset: 0x1D35B, size: 0x8, addend: 0x0, symName: __ZNSt3__16vectorINS_5tupleIJiiiEEENS_9allocatorIS2_EEE21_ConstructTransactionD2B8ue170006Ev, symObjAddr: 0x69C8, symBinAddr: 0x100007760, symSize: 0x20 }
  - { offsetInCU: 0x1D385, offset: 0x1D385, size: 0x8, addend: 0x0, symName: __ZNSt3__128__exception_guard_exceptionsINS_6vectorINS_5tupleIJiiiEEENS_9allocatorIS3_EEE16__destroy_vectorEED2B8ue170006Ev, symObjAddr: 0x69E8, symBinAddr: 0x100007780, symSize: 0x50 }
  - { offsetInCU: 0x1D3AF, offset: 0x1D3AF, size: 0x8, addend: 0x0, symName: __ZNSt3__16vectorINS_5tupleIJiiiEEENS_9allocatorIS2_EEE16__destroy_vectorclB8ue170006Ev, symObjAddr: 0x6A38, symBinAddr: 0x1000077D0, symSize: 0x90 }
  - { offsetInCU: 0x1D3D5, offset: 0x1D3D5, size: 0x8, addend: 0x0, symName: __ZNSt3__16vectorINS_5tupleIJiiiEEENS_9allocatorIS2_EEE7__clearB8ue170006Ev, symObjAddr: 0x6AC8, symBinAddr: 0x100007860, symSize: 0x28 }
  - { offsetInCU: 0x1D3FB, offset: 0x1D3FB, size: 0x8, addend: 0x0, symName: __ZNKSt3__16vectorINS_5tupleIJiiiEEENS_9allocatorIS2_EEE17__annotate_deleteB8ue170006Ev, symObjAddr: 0x6AF0, symBinAddr: 0x100007888, symSize: 0xD4 }
  - { offsetInCU: 0x1D421, offset: 0x1D421, size: 0x8, addend: 0x0, symName: __ZNSt3__116allocator_traitsINS_9allocatorINS_5tupleIJiiiEEEEEE10deallocateB8ue170006ERS4_PS3_m, symObjAddr: 0x6BC4, symBinAddr: 0x10000795C, symSize: 0x34 }
  - { offsetInCU: 0x1D463, offset: 0x1D463, size: 0x8, addend: 0x0, symName: __ZNSt3__16vectorINS_5tupleIJiiiEEENS_9allocatorIS2_EEE22__base_destruct_at_endB8ue170006EPS2_, symObjAddr: 0x6BF8, symBinAddr: 0x100007990, symSize: 0x8C }
  - { offsetInCU: 0x1D4A7, offset: 0x1D4A7, size: 0x8, addend: 0x0, symName: __ZNSt3__19allocatorINS_5tupleIJiiiEEEE10deallocateB8ue170006EPS2_m, symObjAddr: 0x6C84, symBinAddr: 0x100007A1C, symSize: 0x44 }
  - { offsetInCU: 0x1D4E9, offset: 0x1D4E9, size: 0x8, addend: 0x0, symName: __ZN6EstadoD2Ev, symObjAddr: 0x6D44, symBinAddr: 0x100007ADC, symSize: 0x2C }
  - { offsetInCU: 0x1D515, offset: 0x1D515, size: 0x8, addend: 0x0, symName: __ZNSt3__18__iom_t6C1B8ue170006Ei, symObjAddr: 0x6D70, symBinAddr: 0x100007B08, symSize: 0x34 }
  - { offsetInCU: 0x1D54D, offset: 0x1D54D, size: 0x8, addend: 0x0, symName: __ZNSt3__18__iom_t6C2B8ue170006Ei, symObjAddr: 0x6DA4, symBinAddr: 0x100007B3C, symSize: 0x20 }
  - { offsetInCU: 0x1D585, offset: 0x1D585, size: 0x8, addend: 0x0, symName: __ZN6EstadoC2ENSt3__16vectorINS0_5tupleIJiiiEEENS0_9allocatorIS3_EEEEii, symObjAddr: 0x6DC4, symBinAddr: 0x100007B5C, symSize: 0x4C }
  - { offsetInCU: 0x1D5DA, offset: 0x1D5DA, size: 0x8, addend: 0x0, symName: __ZNKSt3__16chrono8durationIxNS_5ratioILl1ELl1000000000EEEE5countB8ue170006Ev, symObjAddr: 0x6E5C, symBinAddr: 0x100007BF4, symSize: 0x18 }
  - { offsetInCU: 0x1D611, offset: 0x1D611, size: 0x8, addend: 0x0, symName: __ZNSt3__16chrono8durationIxNS_5ratioILl1ELl1000EEEEC1B8ue170006IxEERKT_PNS_9enable_ifIXaasr14is_convertibleIS8_xEE5valueooL_ZNS_17integral_constantIbLb0EE5valueEEntsr23treat_as_floating_pointIS6_EE5valueEvE4typeE, symObjAddr: 0x6E74, symBinAddr: 0x100007C0C, symSize: 0x3C }
  - { offsetInCU: 0x1D65E, offset: 0x1D65E, size: 0x8, addend: 0x0, symName: __ZNSt3__16chrono8durationIxNS_5ratioILl1ELl1000EEEEC2B8ue170006IxEERKT_PNS_9enable_ifIXaasr14is_convertibleIS8_xEE5valueooL_ZNS_17integral_constantIbLb0EE5valueEEntsr23treat_as_floating_pointIS6_EE5valueEvE4typeE, symObjAddr: 0x6EB0, symBinAddr: 0x100007C48, symSize: 0x28 }
  - { offsetInCU: 0x1D6AB, offset: 0x1D6AB, size: 0x8, addend: 0x0, symName: __ZNSt3__16vectorINS_5tupleIJiiiEEENS_9allocatorIS2_EEEaSB8ue170006ERKS5_, symObjAddr: 0x6ED8, symBinAddr: 0x100007C70, symSize: 0x68 }
  - { offsetInCU: 0x1D6E2, offset: 0x1D6E2, size: 0x8, addend: 0x0, symName: __ZNSt3__16vectorINS_5tupleIJiiiEEENS_9allocatorIS2_EEE19__copy_assign_allocB8ue170006ERKS5_, symObjAddr: 0x6F40, symBinAddr: 0x100007CD8, symSize: 0x2C }
  - { offsetInCU: 0x1D717, offset: 0x1D717, size: 0x8, addend: 0x0, symName: __ZNSt3__16vectorINS_5tupleIJiiiEEENS_9allocatorIS2_EEE6assignIPS2_Li0EEEvT_S8_, symObjAddr: 0x6F6C, symBinAddr: 0x100007D04, symSize: 0x5C }
  - { offsetInCU: 0x1D76C, offset: 0x1D76C, size: 0x8, addend: 0x0, symName: __ZNSt3__16vectorINS_5tupleIJiiiEEENS_9allocatorIS2_EEE19__copy_assign_allocB8ue170006ERKS5_NS_17integral_constantIbLb0EEE, symObjAddr: 0x6FC8, symBinAddr: 0x100007D60, symSize: 0x14 }
  - { offsetInCU: 0x1D7AA, offset: 0x1D7AA, size: 0x8, addend: 0x0, symName: __ZNSt3__16vectorINS_5tupleIJiiiEEENS_9allocatorIS2_EEE18__assign_with_sizeB8ue170006IPS2_S7_EEvT_T0_l, symObjAddr: 0x6FDC, symBinAddr: 0x100007D74, symSize: 0x164 }
  - { offsetInCU: 0x1D85A, offset: 0x1D85A, size: 0x8, addend: 0x0, symName: __ZNSt3__16vectorINS_5tupleIJiiiEEENS_9allocatorIS2_EEE17__destruct_at_endB8ue170006EPS2_, symObjAddr: 0x7224, symBinAddr: 0x100007FBC, symSize: 0x4C }
  - { offsetInCU: 0x1D89E, offset: 0x1D89E, size: 0x8, addend: 0x0, symName: __ZNSt3__16vectorINS_5tupleIJiiiEEENS_9allocatorIS2_EEE13__vdeallocateEv, symObjAddr: 0x7270, symBinAddr: 0x100008008, symSize: 0x94 }
  - { offsetInCU: 0x1D8C6, offset: 0x1D8C6, size: 0x8, addend: 0x0, symName: __ZNKSt3__16vectorINS_5tupleIJiiiEEENS_9allocatorIS2_EEE11__recommendB8ue170006Em, symObjAddr: 0x7304, symBinAddr: 0x10000809C, symSize: 0xB4 }
  - { offsetInCU: 0x1D926, offset: 0x1D926, size: 0x8, addend: 0x0, symName: __ZNKSt3__111__copy_loopINS_17_ClassicAlgPolicyEEclB8ue170006IPNS_5tupleIJiiiEEES6_S6_EENS_4pairIT_T1_EES8_T0_S9_, symObjAddr: 0x752C, symBinAddr: 0x1000082C4, symSize: 0x88 }
  - { offsetInCU: 0x1D991, offset: 0x1D991, size: 0x8, addend: 0x0, symName: __ZNSt3__15tupleIJiiiEEaSB8ue170006ERKS1_, symObjAddr: 0x75E0, symBinAddr: 0x100008378, symSize: 0x3C }
  - { offsetInCU: 0x1D9C6, offset: 0x1D9C6, size: 0x8, addend: 0x0, symName: __ZNKSt3__112__tuple_leafILm0EiLb0EE3getB8ue170006Ev, symObjAddr: 0x77CC, symBinAddr: 0x100008564, symSize: 0x14 }
  - { offsetInCU: 0x1D9EC, offset: 0x1D9EC, size: 0x8, addend: 0x0, symName: __ZNSt3__112__tuple_leafILm0EiLb0EE3getB8ue170006Ev, symObjAddr: 0x77E0, symBinAddr: 0x100008578, symSize: 0x14 }
  - { offsetInCU: 0x1DA12, offset: 0x1DA12, size: 0x8, addend: 0x0, symName: __ZNKSt3__112__tuple_leafILm1EiLb0EE3getB8ue170006Ev, symObjAddr: 0x77F4, symBinAddr: 0x10000858C, symSize: 0x14 }
  - { offsetInCU: 0x1DA38, offset: 0x1DA38, size: 0x8, addend: 0x0, symName: __ZNSt3__112__tuple_leafILm1EiLb0EE3getB8ue170006Ev, symObjAddr: 0x7808, symBinAddr: 0x1000085A0, symSize: 0x14 }
  - { offsetInCU: 0x1DA5E, offset: 0x1DA5E, size: 0x8, addend: 0x0, symName: __ZNKSt3__112__tuple_leafILm2EiLb0EE3getB8ue170006Ev, symObjAddr: 0x781C, symBinAddr: 0x1000085B4, symSize: 0x14 }
  - { offsetInCU: 0x1DA84, offset: 0x1DA84, size: 0x8, addend: 0x0, symName: __ZNSt3__112__tuple_leafILm2EiLb0EE3getB8ue170006Ev, symObjAddr: 0x7830, symBinAddr: 0x1000085C8, symSize: 0x14 }
  - { offsetInCU: 0x1DAAA, offset: 0x1DAAA, size: 0x8, addend: 0x0, symName: __ZNKSt3__16vectorINS_5tupleIJiiiEEENS_9allocatorIS2_EEE17__annotate_shrinkB8ue170006Em, symObjAddr: 0x7844, symBinAddr: 0x1000085DC, symSize: 0xD0 }
  - { offsetInCU: 0x1DADF, offset: 0x1DADF, size: 0x8, addend: 0x0, symName: __ZNSt3__16vectorINS_5tupleIJiiiEEENS_9allocatorIS2_EEE5clearB8ue170006Ev, symObjAddr: 0x7914, symBinAddr: 0x1000086AC, symSize: 0x44 }
  - { offsetInCU: 0x1DB14, offset: 0x1DB14, size: 0x8, addend: 0x0, symName: __ZNKSt3__111__wrap_iterIP6EstadoE4baseB8ue170006Ev, symObjAddr: 0x7A48, symBinAddr: 0x1000087E0, symSize: 0x18 }
  - { offsetInCU: 0x1DB3A, offset: 0x1DB3A, size: 0x8, addend: 0x0, symName: __ZNSt3__114priority_queueI6EstadoNS_6vectorIS1_NS_9allocatorIS1_EEEENS_7greaterIS1_EEED2Ev, symObjAddr: 0x7A60, symBinAddr: 0x1000087F8, symSize: 0x2C }
  - { offsetInCU: 0x1DB67, offset: 0x1DB67, size: 0x8, addend: 0x0, symName: __ZNSt3__15tupleIJiNS_6vectorINS1_IiNS_9allocatorIiEEEENS2_IS4_EEEEiiiEED2Ev, symObjAddr: 0x7A8C, symBinAddr: 0x100008824, symSize: 0x2C }
  - { offsetInCU: 0x1DB94, offset: 0x1DB94, size: 0x8, addend: 0x0, symName: __ZNSt3__112__tuple_implINS_15__tuple_indicesIJLm0ELm1ELm2ELm3ELm4EEEEJiNS_6vectorINS3_IiNS_9allocatorIiEEEENS4_IS6_EEEEiiiEED1Ev, symObjAddr: 0x7AB8, symBinAddr: 0x100008850, symSize: 0x2C }
  - { offsetInCU: 0x1DBC1, offset: 0x1DBC1, size: 0x8, addend: 0x0, symName: __ZNSt3__112__tuple_implINS_15__tuple_indicesIJLm0ELm1ELm2ELm3ELm4EEEEJiNS_6vectorINS3_IiNS_9allocatorIiEEEENS4_IS6_EEEEiiiEED2Ev, symObjAddr: 0x7AE4, symBinAddr: 0x10000887C, symSize: 0x30 }
  - { offsetInCU: 0x1DBEE, offset: 0x1DBEE, size: 0x8, addend: 0x0, symName: __ZNSt3__112__tuple_leafILm1ENS_6vectorINS1_IiNS_9allocatorIiEEEENS2_IS4_EEEELb0EED2Ev, symObjAddr: 0x7B14, symBinAddr: 0x1000088AC, symSize: 0x2C }
  - { offsetInCU: 0x1DC1B, offset: 0x1DC1B, size: 0x8, addend: 0x0, symName: __ZNKSt3__111__wrap_iterIPNS_5tupleIJiNS_6vectorINS2_IiNS_9allocatorIiEEEENS3_IS5_EEEEiiiEEEE4baseB8ue170006Ev, symObjAddr: 0x7B88, symBinAddr: 0x100008920, symSize: 0x18 }
  - { offsetInCU: 0x1DC41, offset: 0x1DC41, size: 0x8, addend: 0x0, symName: __ZNSt3__16vectorINS_5tupleIJiiiEEENS_9allocatorIS2_EEED2B8ue170006Ev, symObjAddr: 0x7BA0, symBinAddr: 0x100008938, symSize: 0x40 }
  - { offsetInCU: 0x1DC6B, offset: 0x1DC6B, size: 0x8, addend: 0x0, symName: __ZNSt3__16vectorIbNS_9allocatorIbEEEC2EmRKb, symObjAddr: 0x7BE0, symBinAddr: 0x100008978, symSize: 0x90 }
  - { offsetInCU: 0x1DCC1, offset: 0x1DCC1, size: 0x8, addend: 0x0, symName: __ZNSt3__117__compressed_pairImNS_9allocatorImEEEC1B8ue170006IiNS_18__default_init_tagEEEOT_OT0_, symObjAddr: 0x7C70, symBinAddr: 0x100008A08, symSize: 0x3C }
  - { offsetInCU: 0x1DD19, offset: 0x1DD19, size: 0x8, addend: 0x0, symName: __ZNSt3__16vectorIbNS_9allocatorIbEEE11__vallocateB8ue170006Em, symObjAddr: 0x7CAC, symBinAddr: 0x100008A44, symSize: 0xA0 }
  - { offsetInCU: 0x1DD5D, offset: 0x1DD5D, size: 0x8, addend: 0x0, symName: __ZNSt3__16vectorIbNS_9allocatorIbEEE18__construct_at_endB8ue170006Emb, symObjAddr: 0x7D4C, symBinAddr: 0x100008AE4, symSize: 0x108 }
  - { offsetInCU: 0x1DDB2, offset: 0x1DDB2, size: 0x8, addend: 0x0, symName: __ZNSt3__117__compressed_pairImNS_9allocatorImEEEC2B8ue170006IiNS_18__default_init_tagEEEOT_OT0_, symObjAddr: 0x7E54, symBinAddr: 0x100008BEC, symSize: 0x40 }
  - { offsetInCU: 0x1DE0A, offset: 0x1DE0A, size: 0x8, addend: 0x0, symName: __ZNSt3__122__compressed_pair_elemImLi0ELb0EEC2B8ue170006IivEEOT_, symObjAddr: 0x7E94, symBinAddr: 0x100008C2C, symSize: 0x24 }
  - { offsetInCU: 0x1DE4C, offset: 0x1DE4C, size: 0x8, addend: 0x0, symName: __ZNSt3__122__compressed_pair_elemINS_9allocatorImEELi1ELb1EEC2B8ue170006ENS_18__default_init_tagE, symObjAddr: 0x7EB8, symBinAddr: 0x100008C50, symSize: 0x2C }
  - { offsetInCU: 0x1DE80, offset: 0x1DE80, size: 0x8, addend: 0x0, symName: __ZNSt3__19allocatorImEC2B8ue170006Ev, symObjAddr: 0x7EE4, symBinAddr: 0x100008C7C, symSize: 0x2C }
  - { offsetInCU: 0x1DEAA, offset: 0x1DEAA, size: 0x8, addend: 0x0, symName: __ZNSt3__116__non_trivial_ifILb1ENS_9allocatorImEEEC2B8ue170006Ev, symObjAddr: 0x7F10, symBinAddr: 0x100008CA8, symSize: 0x14 }
  - { offsetInCU: 0x1DED4, offset: 0x1DED4, size: 0x8, addend: 0x0, symName: __ZNKSt3__16vectorIbNS_9allocatorIbEEE8max_sizeEv, symObjAddr: 0x7F24, symBinAddr: 0x100008CBC, symSize: 0x7C }
  - { offsetInCU: 0x1DF1A, offset: 0x1DF1A, size: 0x8, addend: 0x0, symName: __ZNKSt3__16vectorIbNS_9allocatorIbEEE20__throw_length_errorB8ue170006Ev, symObjAddr: 0x7FA0, symBinAddr: 0x100008D38, symSize: 0x1C }
  - { offsetInCU: 0x1DF40, offset: 0x1DF40, size: 0x8, addend: 0x0, symName: __ZNSt3__16vectorIbNS_9allocatorIbEEE7__allocB8ue170006Ev, symObjAddr: 0x7FFC, symBinAddr: 0x100008D94, symSize: 0x28 }
  - { offsetInCU: 0x1DF66, offset: 0x1DF66, size: 0x8, addend: 0x0, symName: __ZNSt3__16vectorIbNS_9allocatorIbEEE26__external_cap_to_internalB8ue170006Em, symObjAddr: 0x8024, symBinAddr: 0x100008DBC, symSize: 0x24 }
  - { offsetInCU: 0x1DF8A, offset: 0x1DF8A, size: 0x8, addend: 0x0, symName: __ZNSt3__16vectorIbNS_9allocatorIbEEE5__capB8ue170006Ev, symObjAddr: 0x8048, symBinAddr: 0x100008DE0, symSize: 0x28 }
  - { offsetInCU: 0x1DFBB, offset: 0x1DFBB, size: 0x8, addend: 0x0, symName: __ZNSt3__116allocator_traitsINS_9allocatorImEEE8max_sizeB8ue170006IS2_vEEmRKS2_, symObjAddr: 0x8070, symBinAddr: 0x100008E08, symSize: 0x24 }
  - { offsetInCU: 0x1DFE9, offset: 0x1DFE9, size: 0x8, addend: 0x0, symName: __ZNKSt3__16vectorIbNS_9allocatorIbEEE7__allocB8ue170006Ev, symObjAddr: 0x8094, symBinAddr: 0x100008E2C, symSize: 0x28 }
  - { offsetInCU: 0x1E00F, offset: 0x1E00F, size: 0x8, addend: 0x0, symName: __ZNSt3__114numeric_limitsImE3maxB8ue170006Ev, symObjAddr: 0x80BC, symBinAddr: 0x100008E54, symSize: 0x14 }
  - { offsetInCU: 0x1E023, offset: 0x1E023, size: 0x8, addend: 0x0, symName: __ZNSt3__16vectorIbNS_9allocatorIbEEE26__internal_cap_to_externalB8ue170006Em, symObjAddr: 0x80D0, symBinAddr: 0x100008E68, symSize: 0x18 }
  - { offsetInCU: 0x1E047, offset: 0x1E047, size: 0x8, addend: 0x0, symName: __ZNKSt3__19allocatorImE8max_sizeB8ue170006Ev, symObjAddr: 0x80E8, symBinAddr: 0x100008E80, symSize: 0x14 }
  - { offsetInCU: 0x1E06D, offset: 0x1E06D, size: 0x8, addend: 0x0, symName: __ZNKSt3__117__compressed_pairImNS_9allocatorImEEE6secondB8ue170006Ev, symObjAddr: 0x80FC, symBinAddr: 0x100008E94, symSize: 0x24 }
  - { offsetInCU: 0x1E093, offset: 0x1E093, size: 0x8, addend: 0x0, symName: __ZNKSt3__122__compressed_pair_elemINS_9allocatorImEELi1ELb1EE5__getB8ue170006Ev, symObjAddr: 0x8120, symBinAddr: 0x100008EB8, symSize: 0x14 }
  - { offsetInCU: 0x1E0B9, offset: 0x1E0B9, size: 0x8, addend: 0x0, symName: __ZNSt3__123__libcpp_numeric_limitsImLb1EE3maxB8ue170006Ev, symObjAddr: 0x8134, symBinAddr: 0x100008ECC, symSize: 0x8 }
  - { offsetInCU: 0x1E0CD, offset: 0x1E0CD, size: 0x8, addend: 0x0, symName: __ZNSt3__19allocatorImE8allocateB8ue170006Em, symObjAddr: 0x813C, symBinAddr: 0x100008ED4, symSize: 0x58 }
  - { offsetInCU: 0x1E101, offset: 0x1E101, size: 0x8, addend: 0x0, symName: __ZNSt3__117__compressed_pairImNS_9allocatorImEEE6secondB8ue170006Ev, symObjAddr: 0x8194, symBinAddr: 0x100008F2C, symSize: 0x24 }
  - { offsetInCU: 0x1E127, offset: 0x1E127, size: 0x8, addend: 0x0, symName: __ZNSt3__122__compressed_pair_elemINS_9allocatorImEELi1ELb1EE5__getB8ue170006Ev, symObjAddr: 0x81B8, symBinAddr: 0x100008F50, symSize: 0x14 }
  - { offsetInCU: 0x1E14D, offset: 0x1E14D, size: 0x8, addend: 0x0, symName: __ZNSt3__117__compressed_pairImNS_9allocatorImEEE5firstB8ue170006Ev, symObjAddr: 0x81CC, symBinAddr: 0x100008F64, symSize: 0x24 }
  - { offsetInCU: 0x1E173, offset: 0x1E173, size: 0x8, addend: 0x0, symName: __ZNSt3__122__compressed_pair_elemImLi0ELb0EE5__getB8ue170006Ev, symObjAddr: 0x81F0, symBinAddr: 0x100008F88, symSize: 0x14 }
  - { offsetInCU: 0x1E199, offset: 0x1E199, size: 0x8, addend: 0x0, symName: __ZNSt3__16vectorIbNS_9allocatorIbEEE11__make_iterB8ue170006Em, symObjAddr: 0x8298, symBinAddr: 0x100009030, symSize: 0x64 }
  - { offsetInCU: 0x1E1CE, offset: 0x1E1CE, size: 0x8, addend: 0x0, symName: __ZNSt3__114__bit_iteratorINS_6vectorIbNS_9allocatorIbEEEELb0ELm0EEC1B8ue170006ERKS5_, symObjAddr: 0x845C, symBinAddr: 0x1000091F4, symSize: 0x34 }
  - { offsetInCU: 0x1E207, offset: 0x1E207, size: 0x8, addend: 0x0, symName: __ZNSt3__114__bit_iteratorINS_6vectorIbNS_9allocatorIbEEEELb0ELm0EEC2B8ue170006ERKS5_, symObjAddr: 0x86BC, symBinAddr: 0x100009454, symSize: 0x30 }
  - { offsetInCU: 0x1E240, offset: 0x1E240, size: 0x8, addend: 0x0, symName: __ZNSt3__114__bit_iteratorINS_6vectorIbNS_9allocatorIbEEEELb0ELm0EEC1B8ue170006EPmj, symObjAddr: 0x8794, symBinAddr: 0x10000952C, symSize: 0x3C }
  - { offsetInCU: 0x1E288, offset: 0x1E288, size: 0x8, addend: 0x0, symName: __ZNSt3__114__bit_iteratorINS_6vectorIbNS_9allocatorIbEEEELb0ELm0EEC2B8ue170006EPmj, symObjAddr: 0x87D0, symBinAddr: 0x100009568, symSize: 0x2C }
  - { offsetInCU: 0x1E2D0, offset: 0x1E2D0, size: 0x8, addend: 0x0, symName: __ZNSt3__16vectorIbNS_9allocatorIbEEED2B8ue170006Ev, symObjAddr: 0x87FC, symBinAddr: 0x100009594, symSize: 0x44 }
  - { offsetInCU: 0x1E2FA, offset: 0x1E2FA, size: 0x8, addend: 0x0, symName: __ZNSt3__16vectorIbNS_9allocatorIbEEE16__destroy_vectorC1B8ue170006ERS3_, symObjAddr: 0x8840, symBinAddr: 0x1000095D8, symSize: 0x34 }
  - { offsetInCU: 0x1E333, offset: 0x1E333, size: 0x8, addend: 0x0, symName: __ZNSt3__16vectorIbNS_9allocatorIbEEE16__destroy_vectorclB8ue170006Ev, symObjAddr: 0x8874, symBinAddr: 0x10000960C, symSize: 0x7C }
  - { offsetInCU: 0x1E359, offset: 0x1E359, size: 0x8, addend: 0x0, symName: __ZNSt3__16vectorIbNS_9allocatorIbEEE16__destroy_vectorC2B8ue170006ERS3_, symObjAddr: 0x88F0, symBinAddr: 0x100009688, symSize: 0x20 }
  - { offsetInCU: 0x1E392, offset: 0x1E392, size: 0x8, addend: 0x0, symName: __ZNSt3__116allocator_traitsINS_9allocatorImEEE10deallocateB8ue170006ERS2_Pmm, symObjAddr: 0x8910, symBinAddr: 0x1000096A8, symSize: 0x34 }
  - { offsetInCU: 0x1E3D4, offset: 0x1E3D4, size: 0x8, addend: 0x0, symName: __ZNSt3__19allocatorImE10deallocateB8ue170006EPmm, symObjAddr: 0x8944, symBinAddr: 0x1000096DC, symSize: 0x40 }
  - { offsetInCU: 0x1E416, offset: 0x1E416, size: 0x8, addend: 0x0, symName: __ZNSt3__16vectorINS0_IbNS_9allocatorIbEEEENS1_IS3_EEEC2EmRKS3_, symObjAddr: 0x8984, symBinAddr: 0x10000971C, symSize: 0xDC }
  - { offsetInCU: 0x1E475, offset: 0x1E475, size: 0x8, addend: 0x0, symName: __ZNSt3__117__compressed_pairIPNS_6vectorIbNS_9allocatorIbEEEENS2_IS4_EEEC1B8ue170006IDnNS_18__default_init_tagEEEOT_OT0_, symObjAddr: 0x8A60, symBinAddr: 0x1000097F8, symSize: 0x3C }
  - { offsetInCU: 0x1E4CD, offset: 0x1E4CD, size: 0x8, addend: 0x0, symName: __ZNSt3__16vectorINS0_IbNS_9allocatorIbEEEENS1_IS3_EEE16__destroy_vectorC1B8ue170006ERS5_, symObjAddr: 0x8ADC, symBinAddr: 0x100009874, symSize: 0x34 }
  - { offsetInCU: 0x1E506, offset: 0x1E506, size: 0x8, addend: 0x0, symName: __ZNSt3__16vectorINS0_IbNS_9allocatorIbEEEENS1_IS3_EEE11__vallocateB8ue170006Em, symObjAddr: 0x8B10, symBinAddr: 0x1000098A8, symSize: 0xB4 }
  - { offsetInCU: 0x1E54A, offset: 0x1E54A, size: 0x8, addend: 0x0, symName: __ZNSt3__16vectorINS0_IbNS_9allocatorIbEEEENS1_IS3_EEE18__construct_at_endEmRKS3_, symObjAddr: 0x8BC4, symBinAddr: 0x10000995C, symSize: 0xD0 }
  - { offsetInCU: 0x1E5CB, offset: 0x1E5CB, size: 0x8, addend: 0x0, symName: __ZNSt3__128__exception_guard_exceptionsINS_6vectorINS1_IbNS_9allocatorIbEEEENS2_IS4_EEE16__destroy_vectorEE10__completeB8ue170006Ev, symObjAddr: 0x8C94, symBinAddr: 0x100009A2C, symSize: 0x1C }
  - { offsetInCU: 0x1E5F1, offset: 0x1E5F1, size: 0x8, addend: 0x0, symName: __ZNSt3__128__exception_guard_exceptionsINS_6vectorINS1_IbNS_9allocatorIbEEEENS2_IS4_EEE16__destroy_vectorEED1B8ue170006Ev, symObjAddr: 0x8CB0, symBinAddr: 0x100009A48, symSize: 0x2C }
  - { offsetInCU: 0x1E61B, offset: 0x1E61B, size: 0x8, addend: 0x0, symName: __ZNSt3__117__compressed_pairIPNS_6vectorIbNS_9allocatorIbEEEENS2_IS4_EEEC2B8ue170006IDnNS_18__default_init_tagEEEOT_OT0_, symObjAddr: 0x8CDC, symBinAddr: 0x100009A74, symSize: 0x40 }
  - { offsetInCU: 0x1E673, offset: 0x1E673, size: 0x8, addend: 0x0, symName: __ZNSt3__122__compressed_pair_elemIPNS_6vectorIbNS_9allocatorIbEEEELi0ELb0EEC2B8ue170006IDnvEEOT_, symObjAddr: 0x8D1C, symBinAddr: 0x100009AB4, symSize: 0x1C }
  - { offsetInCU: 0x1E6B5, offset: 0x1E6B5, size: 0x8, addend: 0x0, symName: __ZNSt3__122__compressed_pair_elemINS_9allocatorINS_6vectorIbNS1_IbEEEEEELi1ELb1EEC2B8ue170006ENS_18__default_init_tagE, symObjAddr: 0x8D38, symBinAddr: 0x100009AD0, symSize: 0x2C }
  - { offsetInCU: 0x1E6E9, offset: 0x1E6E9, size: 0x8, addend: 0x0, symName: __ZNSt3__19allocatorINS_6vectorIbNS0_IbEEEEEC2B8ue170006Ev, symObjAddr: 0x8D64, symBinAddr: 0x100009AFC, symSize: 0x2C }
  - { offsetInCU: 0x1E713, offset: 0x1E713, size: 0x8, addend: 0x0, symName: __ZNSt3__116__non_trivial_ifILb1ENS_9allocatorINS_6vectorIbNS1_IbEEEEEEEC2B8ue170006Ev, symObjAddr: 0x8D90, symBinAddr: 0x100009B28, symSize: 0x14 }
  - { offsetInCU: 0x1E73D, offset: 0x1E73D, size: 0x8, addend: 0x0, symName: __ZNSt3__128__exception_guard_exceptionsINS_6vectorINS1_IbNS_9allocatorIbEEEENS2_IS4_EEE16__destroy_vectorEEC1B8ue170006ES7_, symObjAddr: 0x8DA4, symBinAddr: 0x100009B3C, symSize: 0x34 }
  - { offsetInCU: 0x1E775, offset: 0x1E775, size: 0x8, addend: 0x0, symName: __ZNSt3__128__exception_guard_exceptionsINS_6vectorINS1_IbNS_9allocatorIbEEEENS2_IS4_EEE16__destroy_vectorEEC2B8ue170006ES7_, symObjAddr: 0x8DD8, symBinAddr: 0x100009B70, symSize: 0x24 }
  - { offsetInCU: 0x1E7AD, offset: 0x1E7AD, size: 0x8, addend: 0x0, symName: __ZNSt3__16vectorINS0_IbNS_9allocatorIbEEEENS1_IS3_EEE16__destroy_vectorC2B8ue170006ERS5_, symObjAddr: 0x8DFC, symBinAddr: 0x100009B94, symSize: 0x20 }
  - { offsetInCU: 0x1E7E6, offset: 0x1E7E6, size: 0x8, addend: 0x0, symName: __ZNKSt3__16vectorINS0_IbNS_9allocatorIbEEEENS1_IS3_EEE8max_sizeEv, symObjAddr: 0x8E1C, symBinAddr: 0x100009BB4, symSize: 0x60 }
  - { offsetInCU: 0x1E80E, offset: 0x1E80E, size: 0x8, addend: 0x0, symName: __ZNKSt3__16vectorINS0_IbNS_9allocatorIbEEEENS1_IS3_EEE20__throw_length_errorB8ue170006Ev, symObjAddr: 0x8E7C, symBinAddr: 0x100009C14, symSize: 0x1C }
  - { offsetInCU: 0x1E834, offset: 0x1E834, size: 0x8, addend: 0x0, symName: __ZNSt3__16vectorINS0_IbNS_9allocatorIbEEEENS1_IS3_EEE7__allocB8ue170006Ev, symObjAddr: 0x8ED8, symBinAddr: 0x100009C70, symSize: 0x28 }
  - { offsetInCU: 0x1E85A, offset: 0x1E85A, size: 0x8, addend: 0x0, symName: __ZNSt3__16vectorINS0_IbNS_9allocatorIbEEEENS1_IS3_EEE9__end_capB8ue170006Ev, symObjAddr: 0x8F00, symBinAddr: 0x100009C98, symSize: 0x28 }
  - { offsetInCU: 0x1E880, offset: 0x1E880, size: 0x8, addend: 0x0, symName: __ZNKSt3__16vectorINS0_IbNS_9allocatorIbEEEENS1_IS3_EEE14__annotate_newB8ue170006Em, symObjAddr: 0x8F28, symBinAddr: 0x100009CC0, symSize: 0xC8 }
  - { offsetInCU: 0x1E8C0, offset: 0x1E8C0, size: 0x8, addend: 0x0, symName: __ZNSt3__116allocator_traitsINS_9allocatorINS_6vectorIbNS1_IbEEEEEEE8max_sizeB8ue170006IS5_vEEmRKS5_, symObjAddr: 0x8FF0, symBinAddr: 0x100009D88, symSize: 0x24 }
  - { offsetInCU: 0x1E8EE, offset: 0x1E8EE, size: 0x8, addend: 0x0, symName: __ZNKSt3__16vectorINS0_IbNS_9allocatorIbEEEENS1_IS3_EEE7__allocB8ue170006Ev, symObjAddr: 0x9014, symBinAddr: 0x100009DAC, symSize: 0x28 }
  - { offsetInCU: 0x1E914, offset: 0x1E914, size: 0x8, addend: 0x0, symName: __ZNKSt3__19allocatorINS_6vectorIbNS0_IbEEEEE8max_sizeB8ue170006Ev, symObjAddr: 0x903C, symBinAddr: 0x100009DD4, symSize: 0x18 }
  - { offsetInCU: 0x1E93A, offset: 0x1E93A, size: 0x8, addend: 0x0, symName: __ZNKSt3__117__compressed_pairIPNS_6vectorIbNS_9allocatorIbEEEENS2_IS4_EEE6secondB8ue170006Ev, symObjAddr: 0x9054, symBinAddr: 0x100009DEC, symSize: 0x24 }
  - { offsetInCU: 0x1E960, offset: 0x1E960, size: 0x8, addend: 0x0, symName: __ZNKSt3__122__compressed_pair_elemINS_9allocatorINS_6vectorIbNS1_IbEEEEEELi1ELb1EE5__getB8ue170006Ev, symObjAddr: 0x9078, symBinAddr: 0x100009E10, symSize: 0x14 }
  - { offsetInCU: 0x1E986, offset: 0x1E986, size: 0x8, addend: 0x0, symName: __ZNSt3__19allocatorINS_6vectorIbNS0_IbEEEEE8allocateB8ue170006Em, symObjAddr: 0x908C, symBinAddr: 0x100009E24, symSize: 0x5C }
  - { offsetInCU: 0x1E9BA, offset: 0x1E9BA, size: 0x8, addend: 0x0, symName: __ZNSt3__117__compressed_pairIPNS_6vectorIbNS_9allocatorIbEEEENS2_IS4_EEE6secondB8ue170006Ev, symObjAddr: 0x90E8, symBinAddr: 0x100009E80, symSize: 0x24 }
  - { offsetInCU: 0x1E9E0, offset: 0x1E9E0, size: 0x8, addend: 0x0, symName: __ZNSt3__122__compressed_pair_elemINS_9allocatorINS_6vectorIbNS1_IbEEEEEELi1ELb1EE5__getB8ue170006Ev, symObjAddr: 0x910C, symBinAddr: 0x100009EA4, symSize: 0x14 }
  - { offsetInCU: 0x1EA06, offset: 0x1EA06, size: 0x8, addend: 0x0, symName: __ZNSt3__117__compressed_pairIPNS_6vectorIbNS_9allocatorIbEEEENS2_IS4_EEE5firstB8ue170006Ev, symObjAddr: 0x9120, symBinAddr: 0x100009EB8, symSize: 0x24 }
  - { offsetInCU: 0x1EA2C, offset: 0x1EA2C, size: 0x8, addend: 0x0, symName: __ZNSt3__122__compressed_pair_elemIPNS_6vectorIbNS_9allocatorIbEEEELi0ELb0EE5__getB8ue170006Ev, symObjAddr: 0x9144, symBinAddr: 0x100009EDC, symSize: 0x14 }
  - { offsetInCU: 0x1EA52, offset: 0x1EA52, size: 0x8, addend: 0x0, symName: __ZNKSt3__16vectorINS0_IbNS_9allocatorIbEEEENS1_IS3_EEE31__annotate_contiguous_containerB8ue170006EPKvS7_S7_S7_, symObjAddr: 0x9158, symBinAddr: 0x100009EF0, symSize: 0x20 }
  - { offsetInCU: 0x1EAA8, offset: 0x1EAA8, size: 0x8, addend: 0x0, symName: __ZNKSt3__16vectorINS0_IbNS_9allocatorIbEEEENS1_IS3_EEE4dataB8ue170006Ev, symObjAddr: 0x9178, symBinAddr: 0x100009F10, symSize: 0x28 }
  - { offsetInCU: 0x1EACE, offset: 0x1EACE, size: 0x8, addend: 0x0, symName: __ZNKSt3__16vectorINS0_IbNS_9allocatorIbEEEENS1_IS3_EEE8capacityB8ue170006Ev, symObjAddr: 0x91A0, symBinAddr: 0x100009F38, symSize: 0x40 }
  - { offsetInCU: 0x1EAF4, offset: 0x1EAF4, size: 0x8, addend: 0x0, symName: __ZNKSt3__16vectorINS0_IbNS_9allocatorIbEEEENS1_IS3_EEE9__end_capB8ue170006Ev, symObjAddr: 0x91F4, symBinAddr: 0x100009F8C, symSize: 0x28 }
  - { offsetInCU: 0x1EB1A, offset: 0x1EB1A, size: 0x8, addend: 0x0, symName: __ZNKSt3__117__compressed_pairIPNS_6vectorIbNS_9allocatorIbEEEENS2_IS4_EEE5firstB8ue170006Ev, symObjAddr: 0x921C, symBinAddr: 0x100009FB4, symSize: 0x24 }
  - { offsetInCU: 0x1EB40, offset: 0x1EB40, size: 0x8, addend: 0x0, symName: __ZNKSt3__122__compressed_pair_elemIPNS_6vectorIbNS_9allocatorIbEEEELi0ELb0EE5__getB8ue170006Ev, symObjAddr: 0x9240, symBinAddr: 0x100009FD8, symSize: 0x14 }
  - { offsetInCU: 0x1EB82, offset: 0x1EB82, size: 0x8, addend: 0x0, symName: __ZNSt3__16vectorINS0_IbNS_9allocatorIbEEEENS1_IS3_EEE21_ConstructTransactionC1B8ue170006ERS5_m, symObjAddr: 0x9254, symBinAddr: 0x100009FEC, symSize: 0x3C }
  - { offsetInCU: 0x1EBCA, offset: 0x1EBCA, size: 0x8, addend: 0x0, symName: __ZNSt3__116allocator_traitsINS_9allocatorINS_6vectorIbNS1_IbEEEEEEE9constructB8ue170006IS4_JRKS4_EvEEvRS5_PT_DpOT0_, symObjAddr: 0x9290, symBinAddr: 0x10000A028, symSize: 0x34 }
  - { offsetInCU: 0x1EC21, offset: 0x1EC21, size: 0x8, addend: 0x0, symName: __ZNSt3__16vectorINS0_IbNS_9allocatorIbEEEENS1_IS3_EEE21_ConstructTransactionD1B8ue170006Ev, symObjAddr: 0x92C4, symBinAddr: 0x10000A05C, symSize: 0x2C }
  - { offsetInCU: 0x1EC4B, offset: 0x1EC4B, size: 0x8, addend: 0x0, symName: __ZNSt3__16vectorINS0_IbNS_9allocatorIbEEEENS1_IS3_EEE21_ConstructTransactionC2B8ue170006ERS5_m, symObjAddr: 0x92F0, symBinAddr: 0x10000A088, symSize: 0x4C }
  - { offsetInCU: 0x1EC93, offset: 0x1EC93, size: 0x8, addend: 0x0, symName: __ZNSt3__19allocatorINS_6vectorIbNS0_IbEEEEE9constructB8ue170006IS3_JRKS3_EEEvPT_DpOT0_, symObjAddr: 0x933C, symBinAddr: 0x10000A0D4, symSize: 0x30 }
  - { offsetInCU: 0x1ECE9, offset: 0x1ECE9, size: 0x8, addend: 0x0, symName: __ZNSt3__16vectorIbNS_9allocatorIbEEEC1ERKS3_, symObjAddr: 0x936C, symBinAddr: 0x10000A104, symSize: 0x34 }
  - { offsetInCU: 0x1ED24, offset: 0x1ED24, size: 0x8, addend: 0x0, symName: __ZNSt3__16vectorIbNS_9allocatorIbEEEC2ERKS3_, symObjAddr: 0x93A0, symBinAddr: 0x10000A138, symSize: 0xDC }
  - { offsetInCU: 0x1ED5F, offset: 0x1ED5F, size: 0x8, addend: 0x0, symName: __ZNSt3__116allocator_traitsINS_9allocatorImEEE37select_on_container_copy_constructionB8ue170006IS2_vvEES2_RKS2_, symObjAddr: 0x947C, symBinAddr: 0x10000A214, symSize: 0x10 }
  - { offsetInCU: 0x1ED94, offset: 0x1ED94, size: 0x8, addend: 0x0, symName: __ZNSt3__117__compressed_pairImNS_9allocatorImEEEC1B8ue170006IiS2_EEOT_OT0_, symObjAddr: 0x948C, symBinAddr: 0x10000A224, symSize: 0x3C }
  - { offsetInCU: 0x1EDEC, offset: 0x1EDEC, size: 0x8, addend: 0x0, symName: __ZNKSt3__16vectorIbNS_9allocatorIbEEE4sizeB8ue170006Ev, symObjAddr: 0x94C8, symBinAddr: 0x10000A260, symSize: 0x18 }
  - { offsetInCU: 0x1EE12, offset: 0x1EE12, size: 0x8, addend: 0x0, symName: __ZNSt3__16vectorIbNS_9allocatorIbEEE18__construct_at_endINS_14__bit_iteratorIS3_Lb1ELm0EEES6_EEvT_T0_m, symObjAddr: 0x94E0, symBinAddr: 0x10000A278, symSize: 0x124 }
  - { offsetInCU: 0x1EE88, offset: 0x1EE88, size: 0x8, addend: 0x0, symName: __ZNKSt3__16vectorIbNS_9allocatorIbEEE5beginB8ue170006Ev, symObjAddr: 0x9604, symBinAddr: 0x10000A39C, symSize: 0x38 }
  - { offsetInCU: 0x1EEAE, offset: 0x1EEAE, size: 0x8, addend: 0x0, symName: __ZNKSt3__16vectorIbNS_9allocatorIbEEE3endB8ue170006Ev, symObjAddr: 0x963C, symBinAddr: 0x10000A3D4, symSize: 0x38 }
  - { offsetInCU: 0x1EED4, offset: 0x1EED4, size: 0x8, addend: 0x0, symName: __ZNSt3__117__compressed_pairImNS_9allocatorImEEEC2B8ue170006IiS2_EEOT_OT0_, symObjAddr: 0x9674, symBinAddr: 0x10000A40C, symSize: 0x44 }
  - { offsetInCU: 0x1EF2C, offset: 0x1EF2C, size: 0x8, addend: 0x0, symName: __ZNSt3__122__compressed_pair_elemINS_9allocatorImEELi1ELb1EEC2B8ue170006IS2_vEEOT_, symObjAddr: 0x96B8, symBinAddr: 0x10000A450, symSize: 0x18 }
  - { offsetInCU: 0x1EF8B, offset: 0x1EF8B, size: 0x8, addend: 0x0, symName: __ZNKSt3__111__copy_loopINS_17_ClassicAlgPolicyEEclB8ue170006INS_14__bit_iteratorINS_6vectorIbNS_9allocatorIbEEEELb1ELm0EEES9_NS4_IS8_Lb0ELm0EEEEENS_4pairIT_T1_EESC_T0_SD_, symObjAddr: 0x999C, symBinAddr: 0x10000A734, symSize: 0xC4 }
  - { offsetInCU: 0x1F01A, offset: 0x1F01A, size: 0x8, addend: 0x0, symName: __ZNSt3__14pairINS_14__bit_iteratorINS_6vectorIbNS_9allocatorIbEEEELb1ELm0EEES6_EC1B8ue170006IS6_S6_LPv0EEEOT_OT0_, symObjAddr: 0x9C30, symBinAddr: 0x10000A9C8, symSize: 0x3C }
  - { offsetInCU: 0x1F078, offset: 0x1F078, size: 0x8, addend: 0x0, symName: __ZNSt3__14pairINS_14__bit_iteratorINS_6vectorIbNS_9allocatorIbEEEELb1ELm0EEES6_EC2B8ue170006IS6_S6_LPv0EEEOT_OT0_, symObjAddr: 0x9C6C, symBinAddr: 0x10000AA04, symSize: 0x34 }
  - { offsetInCU: 0x1F0D6, offset: 0x1F0D6, size: 0x8, addend: 0x0, symName: __ZNSt3__118__unwrap_iter_implINS_14__bit_iteratorINS_6vectorIbNS_9allocatorIbEEEELb1ELm0EEELb0EE8__unwrapB8ue170006ES6_, symObjAddr: 0x9CA0, symBinAddr: 0x10000AA38, symSize: 0x24 }
  - { offsetInCU: 0x1F0F9, offset: 0x1F0F9, size: 0x8, addend: 0x0, symName: __ZNKSt3__114__bit_iteratorINS_6vectorIbNS_9allocatorIbEEEELb1ELm0EEdeB8ue170006Ev, symObjAddr: 0x9CF8, symBinAddr: 0x10000AA90, symSize: 0x44 }
  - { offsetInCU: 0x1F11F, offset: 0x1F11F, size: 0x8, addend: 0x0, symName: __ZNKSt3__121__bit_const_referenceINS_6vectorIbNS_9allocatorIbEEEEEcvbB8ue170006Ev, symObjAddr: 0x9D3C, symBinAddr: 0x10000AAD4, symSize: 0x2C }
  - { offsetInCU: 0x1F145, offset: 0x1F145, size: 0x8, addend: 0x0, symName: __ZNKSt3__114__bit_iteratorINS_6vectorIbNS_9allocatorIbEEEELb0ELm0EEdeB8ue170006Ev, symObjAddr: 0x9D68, symBinAddr: 0x10000AB00, symSize: 0x44 }
  - { offsetInCU: 0x1F16B, offset: 0x1F16B, size: 0x8, addend: 0x0, symName: __ZNSt3__114__bit_iteratorINS_6vectorIbNS_9allocatorIbEEEELb1ELm0EEppB8ue170006Ev, symObjAddr: 0x9DAC, symBinAddr: 0x10000AB44, symSize: 0x5C }
  - { offsetInCU: 0x1F191, offset: 0x1F191, size: 0x8, addend: 0x0, symName: __ZNSt3__114__bit_iteratorINS_6vectorIbNS_9allocatorIbEEEELb0ELm0EEppB8ue170006Ev, symObjAddr: 0x9E08, symBinAddr: 0x10000ABA0, symSize: 0x5C }
  - { offsetInCU: 0x1F1B7, offset: 0x1F1B7, size: 0x8, addend: 0x0, symName: __ZNSt3__121__bit_const_referenceINS_6vectorIbNS_9allocatorIbEEEEEC1B8ue170006EPKmm, symObjAddr: 0x9EC8, symBinAddr: 0x10000AC60, symSize: 0x3C }
  - { offsetInCU: 0x1F1FD, offset: 0x1F1FD, size: 0x8, addend: 0x0, symName: __ZNSt3__121__bit_const_referenceINS_6vectorIbNS_9allocatorIbEEEEEC2B8ue170006EPKmm, symObjAddr: 0x9F04, symBinAddr: 0x10000AC9C, symSize: 0x2C }
  - { offsetInCU: 0x1F243, offset: 0x1F243, size: 0x8, addend: 0x0, symName: __ZNSt3__115__bit_referenceINS_6vectorIbNS_9allocatorIbEEEELb1EEC1B8ue170006EPmm, symObjAddr: 0x9F30, symBinAddr: 0x10000ACC8, symSize: 0x3C }
  - { offsetInCU: 0x1F289, offset: 0x1F289, size: 0x8, addend: 0x0, symName: __ZNSt3__115__bit_referenceINS_6vectorIbNS_9allocatorIbEEEELb1EEC2B8ue170006EPmm, symObjAddr: 0x9F6C, symBinAddr: 0x10000AD04, symSize: 0x2C }
  - { offsetInCU: 0x1F2CF, offset: 0x1F2CF, size: 0x8, addend: 0x0, symName: __ZNSt3__118__unwrap_iter_implINS_14__bit_iteratorINS_6vectorIbNS_9allocatorIbEEEELb0ELm0EEELb0EE8__unwrapB8ue170006ES6_, symObjAddr: 0x9F98, symBinAddr: 0x10000AD30, symSize: 0x38 }
  - { offsetInCU: 0x1F2F9, offset: 0x1F2F9, size: 0x8, addend: 0x0, symName: __ZNSt3__14pairINS_14__bit_iteratorINS_6vectorIbNS_9allocatorIbEEEELb1ELm0EEENS1_IS5_Lb0ELm0EEEEC1B8ue170006IS6_S7_LPv0EEEOT_OT0_, symObjAddr: 0x9FD0, symBinAddr: 0x10000AD68, symSize: 0x3C }
  - { offsetInCU: 0x1F357, offset: 0x1F357, size: 0x8, addend: 0x0, symName: __ZNSt3__14pairINS_14__bit_iteratorINS_6vectorIbNS_9allocatorIbEEEELb1ELm0EEENS1_IS5_Lb0ELm0EEEEC2B8ue170006IS6_S7_LPv0EEEOT_OT0_, symObjAddr: 0xA00C, symBinAddr: 0x10000ADA4, symSize: 0x48 }
  - { offsetInCU: 0x1F3B5, offset: 0x1F3B5, size: 0x8, addend: 0x0, symName: __ZNSt3__118__unwrap_iter_implINS_14__bit_iteratorINS_6vectorIbNS_9allocatorIbEEEELb1ELm0EEELb0EE8__rewrapB8ue170006ES6_S6_, symObjAddr: 0xA0C8, symBinAddr: 0x10000AE60, symSize: 0x2C }
  - { offsetInCU: 0x1F3E2, offset: 0x1F3E2, size: 0x8, addend: 0x0, symName: __ZNSt3__118__unwrap_iter_implINS_14__bit_iteratorINS_6vectorIbNS_9allocatorIbEEEELb0ELm0EEELb0EE8__rewrapB8ue170006ES6_S6_, symObjAddr: 0xA0F4, symBinAddr: 0x10000AE8C, symSize: 0x3C }
  - { offsetInCU: 0x1F411, offset: 0x1F411, size: 0x8, addend: 0x0, symName: __ZNKSt3__16vectorIbNS_9allocatorIbEEE11__make_iterB8ue170006Em, symObjAddr: 0xA130, symBinAddr: 0x10000AEC8, symSize: 0x5C }
  - { offsetInCU: 0x1F446, offset: 0x1F446, size: 0x8, addend: 0x0, symName: __ZNSt3__114__bit_iteratorINS_6vectorIbNS_9allocatorIbEEEELb1ELm0EEC1B8ue170006EPKmj, symObjAddr: 0xA18C, symBinAddr: 0x10000AF24, symSize: 0x3C }
  - { offsetInCU: 0x1F48E, offset: 0x1F48E, size: 0x8, addend: 0x0, symName: __ZNSt3__114__bit_iteratorINS_6vectorIbNS_9allocatorIbEEEELb1ELm0EEC2B8ue170006EPKmj, symObjAddr: 0xA1C8, symBinAddr: 0x10000AF60, symSize: 0x2C }
  - { offsetInCU: 0x1F4D6, offset: 0x1F4D6, size: 0x8, addend: 0x0, symName: __ZNSt3__16vectorINS0_IbNS_9allocatorIbEEEENS1_IS3_EEE21_ConstructTransactionD2B8ue170006Ev, symObjAddr: 0xA1F4, symBinAddr: 0x10000AF8C, symSize: 0x20 }
  - { offsetInCU: 0x1F500, offset: 0x1F500, size: 0x8, addend: 0x0, symName: __ZNSt3__128__exception_guard_exceptionsINS_6vectorINS1_IbNS_9allocatorIbEEEENS2_IS4_EEE16__destroy_vectorEED2B8ue170006Ev, symObjAddr: 0xA214, symBinAddr: 0x10000AFAC, symSize: 0x50 }
  - { offsetInCU: 0x1F52A, offset: 0x1F52A, size: 0x8, addend: 0x0, symName: __ZNSt3__16vectorINS0_IbNS_9allocatorIbEEEENS1_IS3_EEE16__destroy_vectorclB8ue170006Ev, symObjAddr: 0xA264, symBinAddr: 0x10000AFFC, symSize: 0x90 }
  - { offsetInCU: 0x1F550, offset: 0x1F550, size: 0x8, addend: 0x0, symName: __ZNSt3__16vectorINS0_IbNS_9allocatorIbEEEENS1_IS3_EEE7__clearB8ue170006Ev, symObjAddr: 0xA2F4, symBinAddr: 0x10000B08C, symSize: 0x28 }
  - { offsetInCU: 0x1F576, offset: 0x1F576, size: 0x8, addend: 0x0, symName: __ZNKSt3__16vectorINS0_IbNS_9allocatorIbEEEENS1_IS3_EEE17__annotate_deleteB8ue170006Ev, symObjAddr: 0xA31C, symBinAddr: 0x10000B0B4, symSize: 0xD4 }
  - { offsetInCU: 0x1F59C, offset: 0x1F59C, size: 0x8, addend: 0x0, symName: __ZNSt3__116allocator_traitsINS_9allocatorINS_6vectorIbNS1_IbEEEEEEE10deallocateB8ue170006ERS5_PS4_m, symObjAddr: 0xA3F0, symBinAddr: 0x10000B188, symSize: 0x34 }
  - { offsetInCU: 0x1F5DE, offset: 0x1F5DE, size: 0x8, addend: 0x0, symName: __ZNSt3__16vectorINS0_IbNS_9allocatorIbEEEENS1_IS3_EEE22__base_destruct_at_endB8ue170006EPS3_, symObjAddr: 0xA424, symBinAddr: 0x10000B1BC, symSize: 0x8C }
  - { offsetInCU: 0x1F622, offset: 0x1F622, size: 0x8, addend: 0x0, symName: __ZNSt3__116allocator_traitsINS_9allocatorINS_6vectorIbNS1_IbEEEEEEE7destroyB8ue170006IS4_vEEvRS5_PT_, symObjAddr: 0xA4B0, symBinAddr: 0x10000B248, symSize: 0x2C }
  - { offsetInCU: 0x1F65F, offset: 0x1F65F, size: 0x8, addend: 0x0, symName: __ZNSt3__19allocatorINS_6vectorIbNS0_IbEEEEE7destroyB8ue170006EPS3_, symObjAddr: 0xA4DC, symBinAddr: 0x10000B274, symSize: 0x28 }
  - { offsetInCU: 0x1F693, offset: 0x1F693, size: 0x8, addend: 0x0, symName: __ZNKSt3__16vectorINS0_IbNS_9allocatorIbEEEENS1_IS3_EEE4sizeB8ue170006Ev, symObjAddr: 0xA504, symBinAddr: 0x10000B29C, symSize: 0x28 }
  - { offsetInCU: 0x1F6B9, offset: 0x1F6B9, size: 0x8, addend: 0x0, symName: __ZNSt3__19allocatorINS_6vectorIbNS0_IbEEEEE10deallocateB8ue170006EPS3_m, symObjAddr: 0xA52C, symBinAddr: 0x10000B2C4, symSize: 0x44 }
  - { offsetInCU: 0x1F6FB, offset: 0x1F6FB, size: 0x8, addend: 0x0, symName: __ZNSt3__16vectorINS0_IbNS_9allocatorIbEEEENS1_IS3_EEED2B8ue170006Ev, symObjAddr: 0xA570, symBinAddr: 0x10000B308, symSize: 0x40 }
  - { offsetInCU: 0x1F725, offset: 0x1F725, size: 0x8, addend: 0x0, symName: __ZNKSt3__16vectorINS_5tupleIJiiiEEENS_9allocatorIS2_EEE11__make_iterB8ue170006EPKS2_, symObjAddr: 0xA5B0, symBinAddr: 0x10000B348, symSize: 0x30 }
  - { offsetInCU: 0x1F75A, offset: 0x1F75A, size: 0x8, addend: 0x0, symName: __ZNSt3__111__wrap_iterIPKNS_5tupleIJiiiEEEEC1B8ue170006ES4_, symObjAddr: 0xA5E0, symBinAddr: 0x10000B378, symSize: 0x34 }
  - { offsetInCU: 0x1F792, offset: 0x1F792, size: 0x8, addend: 0x0, symName: __ZNSt3__111__wrap_iterIPKNS_5tupleIJiiiEEEEC2B8ue170006ES4_, symObjAddr: 0xA614, symBinAddr: 0x10000B3AC, symSize: 0x20 }
  - { offsetInCU: 0x1F7CA, offset: 0x1F7CA, size: 0x8, addend: 0x0, symName: __ZNSt3__15tupleIJRiS1_S1_EEC1B8ue170006INS_4_AndELi0EEES1_S1_S1_, symObjAddr: 0xA634, symBinAddr: 0x10000B3CC, symSize: 0x44 }
  - { offsetInCU: 0x1F830, offset: 0x1F830, size: 0x8, addend: 0x0, symName: __ZNSt3__15tupleIJRiS1_S1_EEC2B8ue170006INS_4_AndELi0EEES1_S1_S1_, symObjAddr: 0xA678, symBinAddr: 0x10000B410, symSize: 0x44 }
  - { offsetInCU: 0x1F896, offset: 0x1F896, size: 0x8, addend: 0x0, symName: __ZNSt3__112__tuple_implINS_15__tuple_indicesIJLm0ELm1ELm2EEEEJRiS3_S3_EEC1B8ue170006IJLm0ELm1ELm2EEJS3_S3_S3_EJEJEJS3_S3_S3_EEENS1_IJXspT_EEEENS_13__tuple_typesIJDpT0_EEENS1_IJXspT1_EEEENS7_IJDpT2_EEEDpOT3_, symObjAddr: 0xA6BC, symBinAddr: 0x10000B454, symSize: 0x44 }
  - { offsetInCU: 0x1F969, offset: 0x1F969, size: 0x8, addend: 0x0, symName: __ZNSt3__112__tuple_implINS_15__tuple_indicesIJLm0ELm1ELm2EEEEJRiS3_S3_EEC2B8ue170006IJLm0ELm1ELm2EEJS3_S3_S3_EJEJEJS3_S3_S3_EEENS1_IJXspT_EEEENS_13__tuple_typesIJDpT0_EEENS1_IJXspT1_EEEENS7_IJDpT2_EEEDpOT3_, symObjAddr: 0xA700, symBinAddr: 0x10000B498, symSize: 0x5C }
  - { offsetInCU: 0x1FA3C, offset: 0x1FA3C, size: 0x8, addend: 0x0, symName: __ZNSt3__112__tuple_leafILm0ERiLb0EEC2B8ue170006IS1_vEEOT_, symObjAddr: 0xA75C, symBinAddr: 0x10000B4F4, symSize: 0x20 }
  - { offsetInCU: 0x1FA7F, offset: 0x1FA7F, size: 0x8, addend: 0x0, symName: __ZNSt3__112__tuple_leafILm1ERiLb0EEC2B8ue170006IS1_vEEOT_, symObjAddr: 0xA77C, symBinAddr: 0x10000B514, symSize: 0x20 }
  - { offsetInCU: 0x1FAC2, offset: 0x1FAC2, size: 0x8, addend: 0x0, symName: __ZNSt3__112__tuple_leafILm2ERiLb0EEC2B8ue170006IS1_vEEOT_, symObjAddr: 0xA79C, symBinAddr: 0x10000B534, symSize: 0x20 }
  - { offsetInCU: 0x1FB05, offset: 0x1FB05, size: 0x8, addend: 0x0, symName: __ZNSt3__112__tuple_leafILm0ERiLb0EE3getB8ue170006Ev, symObjAddr: 0xA8E0, symBinAddr: 0x10000B678, symSize: 0x18 }
  - { offsetInCU: 0x1FB2B, offset: 0x1FB2B, size: 0x8, addend: 0x0, symName: __ZNSt3__112__tuple_leafILm1ERiLb0EE3getB8ue170006Ev, symObjAddr: 0xA8F8, symBinAddr: 0x10000B690, symSize: 0x18 }
  - { offsetInCU: 0x1FB51, offset: 0x1FB51, size: 0x8, addend: 0x0, symName: __ZNSt3__112__tuple_leafILm2ERiLb0EE3getB8ue170006Ev, symObjAddr: 0xA910, symBinAddr: 0x10000B6A8, symSize: 0x18 }
  - { offsetInCU: 0x1FB77, offset: 0x1FB77, size: 0x8, addend: 0x0, symName: __ZNKSt3__16__lessIvvEclB8ue170006IiiEEbRKT_RKT0_, symObjAddr: 0xA97C, symBinAddr: 0x10000B714, symSize: 0x34 }
  - { offsetInCU: 0x1FBCB, offset: 0x1FBCB, size: 0x8, addend: 0x0, symName: __ZNSt3__16vectorIbNS_9allocatorIbEEE10__make_refB8ue170006Em, symObjAddr: 0xAA04, symBinAddr: 0x10000B79C, symSize: 0x60 }
  - { offsetInCU: 0x1FC00, offset: 0x1FC00, size: 0x8, addend: 0x0, symName: __ZNSt3__16vectorI6EstadoNS_9allocatorIS1_EEEC2B8ue170006Ev, symObjAddr: 0xAA64, symBinAddr: 0x10000B7FC, symSize: 0x4C }
  - { offsetInCU: 0x1FC2A, offset: 0x1FC2A, size: 0x8, addend: 0x0, symName: __ZNSt3__117__compressed_pairIP6EstadoNS_9allocatorIS1_EEEC1B8ue170006IDnNS_18__default_init_tagEEEOT_OT0_, symObjAddr: 0xAAB0, symBinAddr: 0x10000B848, symSize: 0x3C }
  - { offsetInCU: 0x1FC82, offset: 0x1FC82, size: 0x8, addend: 0x0, symName: __ZNSt3__117__compressed_pairIP6EstadoNS_9allocatorIS1_EEEC2B8ue170006IDnNS_18__default_init_tagEEEOT_OT0_, symObjAddr: 0xAAEC, symBinAddr: 0x10000B884, symSize: 0x40 }
  - { offsetInCU: 0x1FCDA, offset: 0x1FCDA, size: 0x8, addend: 0x0, symName: __ZNSt3__122__compressed_pair_elemIP6EstadoLi0ELb0EEC2B8ue170006IDnvEEOT_, symObjAddr: 0xAB2C, symBinAddr: 0x10000B8C4, symSize: 0x1C }
  - { offsetInCU: 0x1FD1C, offset: 0x1FD1C, size: 0x8, addend: 0x0, symName: __ZNSt3__122__compressed_pair_elemINS_9allocatorI6EstadoEELi1ELb1EEC2B8ue170006ENS_18__default_init_tagE, symObjAddr: 0xAB48, symBinAddr: 0x10000B8E0, symSize: 0x2C }
  - { offsetInCU: 0x1FD50, offset: 0x1FD50, size: 0x8, addend: 0x0, symName: __ZNSt3__19allocatorI6EstadoEC2B8ue170006Ev, symObjAddr: 0xAB74, symBinAddr: 0x10000B90C, symSize: 0x2C }
  - { offsetInCU: 0x1FD7A, offset: 0x1FD7A, size: 0x8, addend: 0x0, symName: __ZNSt3__116__non_trivial_ifILb1ENS_9allocatorI6EstadoEEEC2B8ue170006Ev, symObjAddr: 0xABA0, symBinAddr: 0x10000B938, symSize: 0x14 }
  - { offsetInCU: 0x1FDA4, offset: 0x1FDA4, size: 0x8, addend: 0x0, symName: __ZNSt3__16vectorI6EstadoNS_9allocatorIS1_EEED2B8ue170006Ev, symObjAddr: 0xABB4, symBinAddr: 0x10000B94C, symSize: 0x44 }
  - { offsetInCU: 0x1FDCE, offset: 0x1FDCE, size: 0x8, addend: 0x0, symName: __ZNSt3__16vectorI6EstadoNS_9allocatorIS1_EEE16__destroy_vectorC1B8ue170006ERS4_, symObjAddr: 0xABF8, symBinAddr: 0x10000B990, symSize: 0x34 }
  - { offsetInCU: 0x1FE07, offset: 0x1FE07, size: 0x8, addend: 0x0, symName: __ZNSt3__16vectorI6EstadoNS_9allocatorIS1_EEE16__destroy_vectorclB8ue170006Ev, symObjAddr: 0xAC2C, symBinAddr: 0x10000B9C4, symSize: 0x90 }
  - { offsetInCU: 0x1FE2D, offset: 0x1FE2D, size: 0x8, addend: 0x0, symName: __ZNSt3__16vectorI6EstadoNS_9allocatorIS1_EEE16__destroy_vectorC2B8ue170006ERS4_, symObjAddr: 0xACBC, symBinAddr: 0x10000BA54, symSize: 0x20 }
  - { offsetInCU: 0x1FE66, offset: 0x1FE66, size: 0x8, addend: 0x0, symName: __ZNSt3__16vectorI6EstadoNS_9allocatorIS1_EEE7__clearB8ue170006Ev, symObjAddr: 0xACDC, symBinAddr: 0x10000BA74, symSize: 0x28 }
  - { offsetInCU: 0x1FE8C, offset: 0x1FE8C, size: 0x8, addend: 0x0, symName: __ZNKSt3__16vectorI6EstadoNS_9allocatorIS1_EEE17__annotate_deleteB8ue170006Ev, symObjAddr: 0xAD04, symBinAddr: 0x10000BA9C, symSize: 0xB8 }
  - { offsetInCU: 0x1FEB2, offset: 0x1FEB2, size: 0x8, addend: 0x0, symName: __ZNSt3__116allocator_traitsINS_9allocatorI6EstadoEEE10deallocateB8ue170006ERS3_PS2_m, symObjAddr: 0xADBC, symBinAddr: 0x10000BB54, symSize: 0x34 }
  - { offsetInCU: 0x1FEF4, offset: 0x1FEF4, size: 0x8, addend: 0x0, symName: __ZNSt3__16vectorI6EstadoNS_9allocatorIS1_EEE7__allocB8ue170006Ev, symObjAddr: 0xADF0, symBinAddr: 0x10000BB88, symSize: 0x28 }
  - { offsetInCU: 0x1FF1A, offset: 0x1FF1A, size: 0x8, addend: 0x0, symName: __ZNKSt3__16vectorI6EstadoNS_9allocatorIS1_EEE8capacityB8ue170006Ev, symObjAddr: 0xAE18, symBinAddr: 0x10000BBB0, symSize: 0x40 }
  - { offsetInCU: 0x1FF40, offset: 0x1FF40, size: 0x8, addend: 0x0, symName: __ZNSt3__16vectorI6EstadoNS_9allocatorIS1_EEE22__base_destruct_at_endB8ue170006EPS1_, symObjAddr: 0xAE58, symBinAddr: 0x10000BBF0, symSize: 0x8C }
  - { offsetInCU: 0x1FF84, offset: 0x1FF84, size: 0x8, addend: 0x0, symName: __ZNSt3__116allocator_traitsINS_9allocatorI6EstadoEEE7destroyB8ue170006IS2_vEEvRS3_PT_, symObjAddr: 0xAEE4, symBinAddr: 0x10000BC7C, symSize: 0x2C }
  - { offsetInCU: 0x1FFC1, offset: 0x1FFC1, size: 0x8, addend: 0x0, symName: __ZNSt3__19allocatorI6EstadoE7destroyB8ue170006EPS1_, symObjAddr: 0xAF24, symBinAddr: 0x10000BCBC, symSize: 0x28 }
  - { offsetInCU: 0x1FFF5, offset: 0x1FFF5, size: 0x8, addend: 0x0, symName: __ZNKSt3__16vectorI6EstadoNS_9allocatorIS1_EEE31__annotate_contiguous_containerB8ue170006EPKvS6_S6_S6_, symObjAddr: 0xAF4C, symBinAddr: 0x10000BCE4, symSize: 0x20 }
  - { offsetInCU: 0x2004B, offset: 0x2004B, size: 0x8, addend: 0x0, symName: __ZNKSt3__16vectorI6EstadoNS_9allocatorIS1_EEE4dataB8ue170006Ev, symObjAddr: 0xAF6C, symBinAddr: 0x10000BD04, symSize: 0x28 }
  - { offsetInCU: 0x20071, offset: 0x20071, size: 0x8, addend: 0x0, symName: __ZNSt3__19allocatorI6EstadoE10deallocateB8ue170006EPS1_m, symObjAddr: 0xAF94, symBinAddr: 0x10000BD2C, symSize: 0x40 }
  - { offsetInCU: 0x200B3, offset: 0x200B3, size: 0x8, addend: 0x0, symName: __ZNSt3__117__compressed_pairIP6EstadoNS_9allocatorIS1_EEE6secondB8ue170006Ev, symObjAddr: 0xAFD4, symBinAddr: 0x10000BD6C, symSize: 0x24 }
  - { offsetInCU: 0x200D9, offset: 0x200D9, size: 0x8, addend: 0x0, symName: __ZNSt3__122__compressed_pair_elemINS_9allocatorI6EstadoEELi1ELb1EE5__getB8ue170006Ev, symObjAddr: 0xAFF8, symBinAddr: 0x10000BD90, symSize: 0x14 }
  - { offsetInCU: 0x200FF, offset: 0x200FF, size: 0x8, addend: 0x0, symName: __ZNKSt3__16vectorI6EstadoNS_9allocatorIS1_EEE9__end_capB8ue170006Ev, symObjAddr: 0xB00C, symBinAddr: 0x10000BDA4, symSize: 0x28 }
  - { offsetInCU: 0x20125, offset: 0x20125, size: 0x8, addend: 0x0, symName: __ZNKSt3__117__compressed_pairIP6EstadoNS_9allocatorIS1_EEE5firstB8ue170006Ev, symObjAddr: 0xB034, symBinAddr: 0x10000BDCC, symSize: 0x24 }
  - { offsetInCU: 0x2014B, offset: 0x2014B, size: 0x8, addend: 0x0, symName: __ZNKSt3__122__compressed_pair_elemIP6EstadoLi0ELb0EE5__getB8ue170006Ev, symObjAddr: 0xB058, symBinAddr: 0x10000BDF0, symSize: 0x14 }
  - { offsetInCU: 0x20171, offset: 0x20171, size: 0x8, addend: 0x0, symName: __ZNSt3__16vectorIiNS_9allocatorIiEEEC2B8ue170006ESt16initializer_listIiE, symObjAddr: 0xB06C, symBinAddr: 0x10000BE04, symSize: 0x120 }
  - { offsetInCU: 0x201C1, offset: 0x201C1, size: 0x8, addend: 0x0, symName: __ZNSt3__117__compressed_pairIPiNS_9allocatorIiEEEC1B8ue170006IDnNS_18__default_init_tagEEEOT_OT0_, symObjAddr: 0xB18C, symBinAddr: 0x10000BF24, symSize: 0x3C }
  - { offsetInCU: 0x20219, offset: 0x20219, size: 0x8, addend: 0x0, symName: __ZNSt3__16vectorIiNS_9allocatorIiEEE16__destroy_vectorC1B8ue170006ERS3_, symObjAddr: 0xB208, symBinAddr: 0x10000BFA0, symSize: 0x34 }
  - { offsetInCU: 0x20252, offset: 0x20252, size: 0x8, addend: 0x0, symName: __ZNKSt16initializer_listIiE4sizeB8ue170006Ev, symObjAddr: 0xB23C, symBinAddr: 0x10000BFD4, symSize: 0x18 }
  - { offsetInCU: 0x20278, offset: 0x20278, size: 0x8, addend: 0x0, symName: __ZNSt3__16vectorIiNS_9allocatorIiEEE11__vallocateB8ue170006Em, symObjAddr: 0xB254, symBinAddr: 0x10000BFEC, symSize: 0xAC }
  - { offsetInCU: 0x202BC, offset: 0x202BC, size: 0x8, addend: 0x0, symName: __ZNSt3__16vectorIiNS_9allocatorIiEEE18__construct_at_endIPKiS6_EEvT_T0_m, symObjAddr: 0xB300, symBinAddr: 0x10000C098, symSize: 0x8C }
  - { offsetInCU: 0x20332, offset: 0x20332, size: 0x8, addend: 0x0, symName: __ZNSt3__128__exception_guard_exceptionsINS_6vectorIiNS_9allocatorIiEEE16__destroy_vectorEE10__completeB8ue170006Ev, symObjAddr: 0xB38C, symBinAddr: 0x10000C124, symSize: 0x1C }
  - { offsetInCU: 0x20358, offset: 0x20358, size: 0x8, addend: 0x0, symName: __ZNSt3__128__exception_guard_exceptionsINS_6vectorIiNS_9allocatorIiEEE16__destroy_vectorEED1B8ue170006Ev, symObjAddr: 0xB3A8, symBinAddr: 0x10000C140, symSize: 0x2C }
  - { offsetInCU: 0x20382, offset: 0x20382, size: 0x8, addend: 0x0, symName: __ZNSt3__117__compressed_pairIPiNS_9allocatorIiEEEC2B8ue170006IDnNS_18__default_init_tagEEEOT_OT0_, symObjAddr: 0xB3D4, symBinAddr: 0x10000C16C, symSize: 0x40 }
  - { offsetInCU: 0x203DA, offset: 0x203DA, size: 0x8, addend: 0x0, symName: __ZNSt3__122__compressed_pair_elemIPiLi0ELb0EEC2B8ue170006IDnvEEOT_, symObjAddr: 0xB414, symBinAddr: 0x10000C1AC, symSize: 0x1C }
  - { offsetInCU: 0x2041C, offset: 0x2041C, size: 0x8, addend: 0x0, symName: __ZNSt3__122__compressed_pair_elemINS_9allocatorIiEELi1ELb1EEC2B8ue170006ENS_18__default_init_tagE, symObjAddr: 0xB430, symBinAddr: 0x10000C1C8, symSize: 0x2C }
  - { offsetInCU: 0x20450, offset: 0x20450, size: 0x8, addend: 0x0, symName: __ZNSt3__19allocatorIiEC2B8ue170006Ev, symObjAddr: 0xB45C, symBinAddr: 0x10000C1F4, symSize: 0x2C }
  - { offsetInCU: 0x2047A, offset: 0x2047A, size: 0x8, addend: 0x0, symName: __ZNSt3__116__non_trivial_ifILb1ENS_9allocatorIiEEEC2B8ue170006Ev, symObjAddr: 0xB488, symBinAddr: 0x10000C220, symSize: 0x14 }
  - { offsetInCU: 0x204A4, offset: 0x204A4, size: 0x8, addend: 0x0, symName: __ZNSt3__128__exception_guard_exceptionsINS_6vectorIiNS_9allocatorIiEEE16__destroy_vectorEEC1B8ue170006ES5_, symObjAddr: 0xB49C, symBinAddr: 0x10000C234, symSize: 0x34 }
  - { offsetInCU: 0x204DC, offset: 0x204DC, size: 0x8, addend: 0x0, symName: __ZNSt3__128__exception_guard_exceptionsINS_6vectorIiNS_9allocatorIiEEE16__destroy_vectorEEC2B8ue170006ES5_, symObjAddr: 0xB4D0, symBinAddr: 0x10000C268, symSize: 0x24 }
  - { offsetInCU: 0x20514, offset: 0x20514, size: 0x8, addend: 0x0, symName: __ZNSt3__16vectorIiNS_9allocatorIiEEE16__destroy_vectorC2B8ue170006ERS3_, symObjAddr: 0xB4F4, symBinAddr: 0x10000C28C, symSize: 0x20 }
  - { offsetInCU: 0x2054D, offset: 0x2054D, size: 0x8, addend: 0x0, symName: __ZNKSt3__16vectorIiNS_9allocatorIiEEE8max_sizeEv, symObjAddr: 0xB514, symBinAddr: 0x10000C2AC, symSize: 0x60 }
  - { offsetInCU: 0x20575, offset: 0x20575, size: 0x8, addend: 0x0, symName: __ZNKSt3__16vectorIiNS_9allocatorIiEEE20__throw_length_errorB8ue170006Ev, symObjAddr: 0xB574, symBinAddr: 0x10000C30C, symSize: 0x1C }
  - { offsetInCU: 0x2059B, offset: 0x2059B, size: 0x8, addend: 0x0, symName: __ZNSt3__16vectorIiNS_9allocatorIiEEE7__allocB8ue170006Ev, symObjAddr: 0xB5D0, symBinAddr: 0x10000C368, symSize: 0x28 }
  - { offsetInCU: 0x205C1, offset: 0x205C1, size: 0x8, addend: 0x0, symName: __ZNSt3__16vectorIiNS_9allocatorIiEEE9__end_capB8ue170006Ev, symObjAddr: 0xB5F8, symBinAddr: 0x10000C390, symSize: 0x28 }
  - { offsetInCU: 0x205E7, offset: 0x205E7, size: 0x8, addend: 0x0, symName: __ZNKSt3__16vectorIiNS_9allocatorIiEEE14__annotate_newB8ue170006Em, symObjAddr: 0xB620, symBinAddr: 0x10000C3B8, symSize: 0xAC }
  - { offsetInCU: 0x20627, offset: 0x20627, size: 0x8, addend: 0x0, symName: __ZNSt3__116allocator_traitsINS_9allocatorIiEEE8max_sizeB8ue170006IS2_vEEmRKS2_, symObjAddr: 0xB6CC, symBinAddr: 0x10000C464, symSize: 0x24 }
  - { offsetInCU: 0x20655, offset: 0x20655, size: 0x8, addend: 0x0, symName: __ZNKSt3__16vectorIiNS_9allocatorIiEEE7__allocB8ue170006Ev, symObjAddr: 0xB6F0, symBinAddr: 0x10000C488, symSize: 0x28 }
  - { offsetInCU: 0x2067B, offset: 0x2067B, size: 0x8, addend: 0x0, symName: __ZNKSt3__19allocatorIiE8max_sizeB8ue170006Ev, symObjAddr: 0xB718, symBinAddr: 0x10000C4B0, symSize: 0x14 }
  - { offsetInCU: 0x206A1, offset: 0x206A1, size: 0x8, addend: 0x0, symName: __ZNKSt3__117__compressed_pairIPiNS_9allocatorIiEEE6secondB8ue170006Ev, symObjAddr: 0xB72C, symBinAddr: 0x10000C4C4, symSize: 0x24 }
  - { offsetInCU: 0x206C7, offset: 0x206C7, size: 0x8, addend: 0x0, symName: __ZNKSt3__122__compressed_pair_elemINS_9allocatorIiEELi1ELb1EE5__getB8ue170006Ev, symObjAddr: 0xB750, symBinAddr: 0x10000C4E8, symSize: 0x14 }
  - { offsetInCU: 0x206ED, offset: 0x206ED, size: 0x8, addend: 0x0, symName: __ZNSt3__19allocatorIiE8allocateB8ue170006Em, symObjAddr: 0xB764, symBinAddr: 0x10000C4FC, symSize: 0x58 }
  - { offsetInCU: 0x20721, offset: 0x20721, size: 0x8, addend: 0x0, symName: __ZNSt3__117__compressed_pairIPiNS_9allocatorIiEEE6secondB8ue170006Ev, symObjAddr: 0xB7BC, symBinAddr: 0x10000C554, symSize: 0x24 }
  - { offsetInCU: 0x20747, offset: 0x20747, size: 0x8, addend: 0x0, symName: __ZNSt3__122__compressed_pair_elemINS_9allocatorIiEELi1ELb1EE5__getB8ue170006Ev, symObjAddr: 0xB7E0, symBinAddr: 0x10000C578, symSize: 0x14 }
  - { offsetInCU: 0x2076D, offset: 0x2076D, size: 0x8, addend: 0x0, symName: __ZNSt3__117__compressed_pairIPiNS_9allocatorIiEEE5firstB8ue170006Ev, symObjAddr: 0xB7F4, symBinAddr: 0x10000C58C, symSize: 0x24 }
  - { offsetInCU: 0x20793, offset: 0x20793, size: 0x8, addend: 0x0, symName: __ZNSt3__122__compressed_pair_elemIPiLi0ELb0EE5__getB8ue170006Ev, symObjAddr: 0xB818, symBinAddr: 0x10000C5B0, symSize: 0x14 }
  - { offsetInCU: 0x207B9, offset: 0x207B9, size: 0x8, addend: 0x0, symName: __ZNKSt3__16vectorIiNS_9allocatorIiEEE31__annotate_contiguous_containerB8ue170006EPKvS5_S5_S5_, symObjAddr: 0xB82C, symBinAddr: 0x10000C5C4, symSize: 0x20 }
  - { offsetInCU: 0x2080F, offset: 0x2080F, size: 0x8, addend: 0x0, symName: __ZNKSt3__16vectorIiNS_9allocatorIiEEE4dataB8ue170006Ev, symObjAddr: 0xB84C, symBinAddr: 0x10000C5E4, symSize: 0x28 }
  - { offsetInCU: 0x20835, offset: 0x20835, size: 0x8, addend: 0x0, symName: __ZNKSt3__16vectorIiNS_9allocatorIiEEE8capacityB8ue170006Ev, symObjAddr: 0xB874, symBinAddr: 0x10000C60C, symSize: 0x40 }
  - { offsetInCU: 0x2085B, offset: 0x2085B, size: 0x8, addend: 0x0, symName: __ZNKSt3__16vectorIiNS_9allocatorIiEEE9__end_capB8ue170006Ev, symObjAddr: 0xB8C8, symBinAddr: 0x10000C660, symSize: 0x28 }
  - { offsetInCU: 0x20881, offset: 0x20881, size: 0x8, addend: 0x0, symName: __ZNKSt3__117__compressed_pairIPiNS_9allocatorIiEEE5firstB8ue170006Ev, symObjAddr: 0xB8F0, symBinAddr: 0x10000C688, symSize: 0x24 }
  - { offsetInCU: 0x208A7, offset: 0x208A7, size: 0x8, addend: 0x0, symName: __ZNKSt3__122__compressed_pair_elemIPiLi0ELb0EE5__getB8ue170006Ev, symObjAddr: 0xB914, symBinAddr: 0x10000C6AC, symSize: 0x14 }
  - { offsetInCU: 0x208E9, offset: 0x208E9, size: 0x8, addend: 0x0, symName: __ZNSt3__16vectorIiNS_9allocatorIiEEE21_ConstructTransactionC1B8ue170006ERS3_m, symObjAddr: 0xB928, symBinAddr: 0x10000C6C0, symSize: 0x3C }
  - { offsetInCU: 0x20931, offset: 0x20931, size: 0x8, addend: 0x0, symName: __ZNSt3__16vectorIiNS_9allocatorIiEEE21_ConstructTransactionD1B8ue170006Ev, symObjAddr: 0xB9E4, symBinAddr: 0x10000C77C, symSize: 0x2C }
  - { offsetInCU: 0x2095B, offset: 0x2095B, size: 0x8, addend: 0x0, symName: __ZNSt3__16vectorIiNS_9allocatorIiEEE21_ConstructTransactionC2B8ue170006ERS3_m, symObjAddr: 0xBA10, symBinAddr: 0x10000C7A8, symSize: 0x44 }
  - { offsetInCU: 0x209C6, offset: 0x209C6, size: 0x8, addend: 0x0, symName: __ZNSt3__14pairIPKiS2_EC1B8ue170006IS2_S2_LPv0EEEOT_OT0_, symObjAddr: 0xBBA8, symBinAddr: 0x10000C940, symSize: 0x3C }
  - { offsetInCU: 0x20A24, offset: 0x20A24, size: 0x8, addend: 0x0, symName: __ZNSt3__14pairIPKiS2_EC2B8ue170006IS2_S2_LPv0EEEOT_OT0_, symObjAddr: 0xBBE4, symBinAddr: 0x10000C97C, symSize: 0x34 }
  - { offsetInCU: 0x20A82, offset: 0x20A82, size: 0x8, addend: 0x0, symName: __ZNSt3__118__unwrap_iter_implIPKiLb1EE8__unwrapB8ue170006ES2_, symObjAddr: 0xBC18, symBinAddr: 0x10000C9B0, symSize: 0x24 }
  - { offsetInCU: 0x20ACD, offset: 0x20ACD, size: 0x8, addend: 0x0, symName: __ZNKSt3__114__copy_trivialclB8ue170006IKiiLi0EEENS_4pairIPT_PT0_EES5_S5_S7_, symObjAddr: 0xBDCC, symBinAddr: 0x10000CB64, symSize: 0x48 }
  - { offsetInCU: 0x20B41, offset: 0x20B41, size: 0x8, addend: 0x0, symName: __ZNSt3__14pairIPKiPiEC1B8ue170006IRS2_S3_LPv0EEEOT_OT0_, symObjAddr: 0xBF94, symBinAddr: 0x10000CD2C, symSize: 0x3C }
  - { offsetInCU: 0x20B9F, offset: 0x20B9F, size: 0x8, addend: 0x0, symName: __ZNSt3__14pairIPKiPiEC2B8ue170006IRS2_S3_LPv0EEEOT_OT0_, symObjAddr: 0xBFD0, symBinAddr: 0x10000CD68, symSize: 0x34 }
  - { offsetInCU: 0x20BFD, offset: 0x20BFD, size: 0x8, addend: 0x0, symName: __ZNSt3__14pairIPKiPiEC1B8ue170006IS2_S3_LPv0EEEOT_OT0_, symObjAddr: 0xC004, symBinAddr: 0x10000CD9C, symSize: 0x3C }
  - { offsetInCU: 0x20C5B, offset: 0x20C5B, size: 0x8, addend: 0x0, symName: __ZNSt3__14pairIPKiPiEC2B8ue170006IS2_S3_LPv0EEEOT_OT0_, symObjAddr: 0xC040, symBinAddr: 0x10000CDD8, symSize: 0x34 }
  - { offsetInCU: 0x20CB9, offset: 0x20CB9, size: 0x8, addend: 0x0, symName: __ZNSt3__118__unwrap_iter_implIPKiLb1EE8__rewrapB8ue170006ES2_S2_, symObjAddr: 0xC0B0, symBinAddr: 0x10000CE48, symSize: 0x50 }
  - { offsetInCU: 0x20CEA, offset: 0x20CEA, size: 0x8, addend: 0x0, symName: __ZNSt3__118__unwrap_iter_implIPiLb1EE8__unwrapB8ue170006ES1_, symObjAddr: 0xC100, symBinAddr: 0x10000CE98, symSize: 0x24 }
  - { offsetInCU: 0x20D0D, offset: 0x20D0D, size: 0x8, addend: 0x0, symName: __ZNSt3__118__unwrap_iter_implIPiLb1EE8__rewrapB8ue170006ES1_S1_, symObjAddr: 0xC124, symBinAddr: 0x10000CEBC, symSize: 0x50 }
  - { offsetInCU: 0x20D3E, offset: 0x20D3E, size: 0x8, addend: 0x0, symName: __ZNSt3__16vectorIiNS_9allocatorIiEEE21_ConstructTransactionD2B8ue170006Ev, symObjAddr: 0xC174, symBinAddr: 0x10000CF0C, symSize: 0x20 }
  - { offsetInCU: 0x20D68, offset: 0x20D68, size: 0x8, addend: 0x0, symName: __ZNSt3__128__exception_guard_exceptionsINS_6vectorIiNS_9allocatorIiEEE16__destroy_vectorEED2B8ue170006Ev, symObjAddr: 0xC194, symBinAddr: 0x10000CF2C, symSize: 0x50 }
  - { offsetInCU: 0x20D92, offset: 0x20D92, size: 0x8, addend: 0x0, symName: __ZNSt3__16vectorIiNS_9allocatorIiEEE16__destroy_vectorclB8ue170006Ev, symObjAddr: 0xC1E4, symBinAddr: 0x10000CF7C, symSize: 0x90 }
  - { offsetInCU: 0x20DB8, offset: 0x20DB8, size: 0x8, addend: 0x0, symName: __ZNSt3__16vectorIiNS_9allocatorIiEEE7__clearB8ue170006Ev, symObjAddr: 0xC274, symBinAddr: 0x10000D00C, symSize: 0x28 }
  - { offsetInCU: 0x20DDE, offset: 0x20DDE, size: 0x8, addend: 0x0, symName: __ZNKSt3__16vectorIiNS_9allocatorIiEEE17__annotate_deleteB8ue170006Ev, symObjAddr: 0xC29C, symBinAddr: 0x10000D034, symSize: 0xB8 }
  - { offsetInCU: 0x20E04, offset: 0x20E04, size: 0x8, addend: 0x0, symName: __ZNSt3__116allocator_traitsINS_9allocatorIiEEE10deallocateB8ue170006ERS2_Pim, symObjAddr: 0xC354, symBinAddr: 0x10000D0EC, symSize: 0x34 }
  - { offsetInCU: 0x20E46, offset: 0x20E46, size: 0x8, addend: 0x0, symName: __ZNSt3__16vectorIiNS_9allocatorIiEEE22__base_destruct_at_endB8ue170006EPi, symObjAddr: 0xC388, symBinAddr: 0x10000D120, symSize: 0x8C }
  - { offsetInCU: 0x20E8A, offset: 0x20E8A, size: 0x8, addend: 0x0, symName: __ZNSt3__116allocator_traitsINS_9allocatorIiEEE7destroyB8ue170006IivEEvRS2_PT_, symObjAddr: 0xC414, symBinAddr: 0x10000D1AC, symSize: 0x2C }
  - { offsetInCU: 0x20EC7, offset: 0x20EC7, size: 0x8, addend: 0x0, symName: __ZNSt3__19allocatorIiE7destroyB8ue170006EPi, symObjAddr: 0xC440, symBinAddr: 0x10000D1D8, symSize: 0x14 }
  - { offsetInCU: 0x20EFB, offset: 0x20EFB, size: 0x8, addend: 0x0, symName: __ZNSt3__19allocatorIiE10deallocateB8ue170006EPim, symObjAddr: 0xC454, symBinAddr: 0x10000D1EC, symSize: 0x40 }
  - { offsetInCU: 0x20F3D, offset: 0x20F3D, size: 0x8, addend: 0x0, symName: __ZNSt3__16vectorIiNS_9allocatorIiEEED2B8ue170006Ev, symObjAddr: 0xC494, symBinAddr: 0x10000D22C, symSize: 0x40 }
  - { offsetInCU: 0x20F67, offset: 0x20F67, size: 0x8, addend: 0x0, symName: __ZNSt3__16vectorIiNS_9allocatorIiEEE11__make_iterB8ue170006EPi, symObjAddr: 0xC4D4, symBinAddr: 0x10000D26C, symSize: 0x30 }
  - { offsetInCU: 0x20F9C, offset: 0x20F9C, size: 0x8, addend: 0x0, symName: __ZNSt3__111__wrap_iterIPiEC1B8ue170006ES1_, symObjAddr: 0xC504, symBinAddr: 0x10000D29C, symSize: 0x34 }
  - { offsetInCU: 0x20FD4, offset: 0x20FD4, size: 0x8, addend: 0x0, symName: __ZNSt3__111__wrap_iterIPiEC2B8ue170006ES1_, symObjAddr: 0xC538, symBinAddr: 0x10000D2D0, symSize: 0x20 }
  - { offsetInCU: 0x2100C, offset: 0x2100C, size: 0x8, addend: 0x0, symName: __ZNSt3__16vectorINS_5tupleIJiiiEEENS_9allocatorIS2_EEE22__construct_one_at_endB8ue170006IJRmS7_RiEEEvDpOT_, symObjAddr: 0xC558, symBinAddr: 0x10000D2F0, symSize: 0xA0 }
  - { offsetInCU: 0x21083, offset: 0x21083, size: 0x8, addend: 0x0, symName: __ZNSt3__16vectorINS_5tupleIJiiiEEENS_9allocatorIS2_EEE24__emplace_back_slow_pathIJRmS7_RiEEEvDpOT_, symObjAddr: 0xC5F8, symBinAddr: 0x10000D390, symSize: 0xE8 }
  - { offsetInCU: 0x2110B, offset: 0x2110B, size: 0x8, addend: 0x0, symName: __ZNSt3__116allocator_traitsINS_9allocatorINS_5tupleIJiiiEEEEEE9constructB8ue170006IS3_JRmS7_RiEvEEvRS4_PT_DpOT0_, symObjAddr: 0xC6E0, symBinAddr: 0x10000D478, symSize: 0x44 }
  - { offsetInCU: 0x2118A, offset: 0x2118A, size: 0x8, addend: 0x0, symName: __ZNSt3__19allocatorINS_5tupleIJiiiEEEE9constructB8ue170006IS2_JRmS5_RiEEEvPT_DpOT0_, symObjAddr: 0xC724, symBinAddr: 0x10000D4BC, symSize: 0x40 }
  - { offsetInCU: 0x21206, offset: 0x21206, size: 0x8, addend: 0x0, symName: __ZNSt3__15tupleIJiiiEEC1B8ue170006IJRmS3_RiELi0EEEDpOT_, symObjAddr: 0xC764, symBinAddr: 0x10000D4FC, symSize: 0x44 }
  - { offsetInCU: 0x21278, offset: 0x21278, size: 0x8, addend: 0x0, symName: __ZNSt3__15tupleIJiiiEEC2B8ue170006IJRmS3_RiELi0EEEDpOT_, symObjAddr: 0xC7A8, symBinAddr: 0x10000D540, symSize: 0x44 }
  - { offsetInCU: 0x212EA, offset: 0x212EA, size: 0x8, addend: 0x0, symName: __ZNSt3__112__tuple_implINS_15__tuple_indicesIJLm0ELm1ELm2EEEEJiiiEEC1B8ue170006IJLm0ELm1ELm2EEJiiiEJEJEJRmS5_RiEEENS1_IJXspT_EEEENS_13__tuple_typesIJDpT0_EEENS1_IJXspT1_EEEENS8_IJDpT2_EEEDpOT3_, symObjAddr: 0xC7EC, symBinAddr: 0x10000D584, symSize: 0x44 }
  - { offsetInCU: 0x213BD, offset: 0x213BD, size: 0x8, addend: 0x0, symName: __ZNSt3__112__tuple_implINS_15__tuple_indicesIJLm0ELm1ELm2EEEEJiiiEEC2B8ue170006IJLm0ELm1ELm2EEJiiiEJEJEJRmS5_RiEEENS1_IJXspT_EEEENS_13__tuple_typesIJDpT0_EEENS1_IJXspT1_EEEENS8_IJDpT2_EEEDpOT3_, symObjAddr: 0xC830, symBinAddr: 0x10000D5C8, symSize: 0x5C }
  - { offsetInCU: 0x21490, offset: 0x21490, size: 0x8, addend: 0x0, symName: __ZNSt3__112__tuple_leafILm0EiLb0EEC2B8ue170006IRmvEEOT_, symObjAddr: 0xC88C, symBinAddr: 0x10000D624, symSize: 0x24 }
  - { offsetInCU: 0x214D3, offset: 0x214D3, size: 0x8, addend: 0x0, symName: __ZNSt3__112__tuple_leafILm1EiLb0EEC2B8ue170006IRmvEEOT_, symObjAddr: 0xC8B0, symBinAddr: 0x10000D648, symSize: 0x24 }
  - { offsetInCU: 0x21516, offset: 0x21516, size: 0x8, addend: 0x0, symName: __ZNSt3__112__tuple_leafILm2EiLb0EEC2B8ue170006IRivEEOT_, symObjAddr: 0xC8D4, symBinAddr: 0x10000D66C, symSize: 0x24 }
  - { offsetInCU: 0x21559, offset: 0x21559, size: 0x8, addend: 0x0, symName: __ZNSt3__114__split_bufferINS_5tupleIJiiiEEERNS_9allocatorIS2_EEEC1EmmS5_, symObjAddr: 0xC8F8, symBinAddr: 0x10000D690, symSize: 0x44 }
  - { offsetInCU: 0x215AF, offset: 0x215AF, size: 0x8, addend: 0x0, symName: __ZNSt3__114__split_bufferINS_5tupleIJiiiEEERNS_9allocatorIS2_EEED1Ev, symObjAddr: 0xCA4C, symBinAddr: 0x10000D7E4, symSize: 0x2C }
  - { offsetInCU: 0x215DB, offset: 0x215DB, size: 0x8, addend: 0x0, symName: __ZNSt3__114__split_bufferINS_5tupleIJiiiEEERNS_9allocatorIS2_EEEC2EmmS5_, symObjAddr: 0xCA78, symBinAddr: 0x10000D810, symSize: 0xE0 }
  - { offsetInCU: 0x2164E, offset: 0x2164E, size: 0x8, addend: 0x0, symName: __ZNSt3__117__compressed_pairIPNS_5tupleIJiiiEEERNS_9allocatorIS2_EEEC1B8ue170006IDnS6_EEOT_OT0_, symObjAddr: 0xCB58, symBinAddr: 0x10000D8F0, symSize: 0x3C }
  - { offsetInCU: 0x216A6, offset: 0x216A6, size: 0x8, addend: 0x0, symName: __ZNSt3__114__split_bufferINS_5tupleIJiiiEEERNS_9allocatorIS2_EEE7__allocB8ue170006Ev, symObjAddr: 0xCB94, symBinAddr: 0x10000D92C, symSize: 0x28 }
  - { offsetInCU: 0x216CC, offset: 0x216CC, size: 0x8, addend: 0x0, symName: __ZNSt3__114__split_bufferINS_5tupleIJiiiEEERNS_9allocatorIS2_EEE9__end_capB8ue170006Ev, symObjAddr: 0xCBBC, symBinAddr: 0x10000D954, symSize: 0x28 }
  - { offsetInCU: 0x216F2, offset: 0x216F2, size: 0x8, addend: 0x0, symName: __ZNSt3__117__compressed_pairIPNS_5tupleIJiiiEEERNS_9allocatorIS2_EEEC2B8ue170006IDnS6_EEOT_OT0_, symObjAddr: 0xCBE4, symBinAddr: 0x10000D97C, symSize: 0x48 }
  - { offsetInCU: 0x2174A, offset: 0x2174A, size: 0x8, addend: 0x0, symName: __ZNSt3__122__compressed_pair_elemIRNS_9allocatorINS_5tupleIJiiiEEEEELi1ELb0EEC2B8ue170006IS5_vEEOT_, symObjAddr: 0xCC2C, symBinAddr: 0x10000D9C4, symSize: 0x20 }
  - { offsetInCU: 0x2178C, offset: 0x2178C, size: 0x8, addend: 0x0, symName: __ZNSt3__117__compressed_pairIPNS_5tupleIJiiiEEERNS_9allocatorIS2_EEE6secondB8ue170006Ev, symObjAddr: 0xCC4C, symBinAddr: 0x10000D9E4, symSize: 0x28 }
  - { offsetInCU: 0x217B2, offset: 0x217B2, size: 0x8, addend: 0x0, symName: __ZNSt3__122__compressed_pair_elemIRNS_9allocatorINS_5tupleIJiiiEEEEELi1ELb0EE5__getB8ue170006Ev, symObjAddr: 0xCC74, symBinAddr: 0x10000DA0C, symSize: 0x18 }
  - { offsetInCU: 0x217D8, offset: 0x217D8, size: 0x8, addend: 0x0, symName: __ZNSt3__117__compressed_pairIPNS_5tupleIJiiiEEERNS_9allocatorIS2_EEE5firstB8ue170006Ev, symObjAddr: 0xCC8C, symBinAddr: 0x10000DA24, symSize: 0x24 }
  - { offsetInCU: 0x217FE, offset: 0x217FE, size: 0x8, addend: 0x0, symName: __ZNSt3__129_AllocatorDestroyRangeReverseINS_9allocatorINS_5tupleIJiiiEEEEENS_16reverse_iteratorIPS3_EEEC1B8ue170006ERS4_RS7_SA_, symObjAddr: 0xCE54, symBinAddr: 0x10000DBEC, symSize: 0x44 }
  - { offsetInCU: 0x21855, offset: 0x21855, size: 0x8, addend: 0x0, symName: __ZNSt3__116allocator_traitsINS_9allocatorINS_5tupleIJiiiEEEEEE9constructB8ue170006IS3_JS3_EvEEvRS4_PT_DpOT0_, symObjAddr: 0xCE98, symBinAddr: 0x10000DC30, symSize: 0x34 }
  - { offsetInCU: 0x218AC, offset: 0x218AC, size: 0x8, addend: 0x0, symName: __ZNSt3__128__exception_guard_exceptionsINS_29_AllocatorDestroyRangeReverseINS_9allocatorINS_5tupleIJiiiEEEEENS_16reverse_iteratorIPS4_EEEEE10__completeB8ue170006Ev, symObjAddr: 0xCECC, symBinAddr: 0x10000DC64, symSize: 0x1C }
  - { offsetInCU: 0x218D2, offset: 0x218D2, size: 0x8, addend: 0x0, symName: __ZNSt3__128__exception_guard_exceptionsINS_29_AllocatorDestroyRangeReverseINS_9allocatorINS_5tupleIJiiiEEEEENS_16reverse_iteratorIPS4_EEEEED1B8ue170006Ev, symObjAddr: 0xCEE8, symBinAddr: 0x10000DC80, symSize: 0x2C }
  - { offsetInCU: 0x218FC, offset: 0x218FC, size: 0x8, addend: 0x0, symName: __ZNSt3__128__exception_guard_exceptionsINS_29_AllocatorDestroyRangeReverseINS_9allocatorINS_5tupleIJiiiEEEEENS_16reverse_iteratorIPS4_EEEEEC1B8ue170006ES9_, symObjAddr: 0xCF14, symBinAddr: 0x10000DCAC, symSize: 0x34 }
  - { offsetInCU: 0x21935, offset: 0x21935, size: 0x8, addend: 0x0, symName: __ZNSt3__128__exception_guard_exceptionsINS_29_AllocatorDestroyRangeReverseINS_9allocatorINS_5tupleIJiiiEEEEENS_16reverse_iteratorIPS4_EEEEEC2B8ue170006ES9_, symObjAddr: 0xCF48, symBinAddr: 0x10000DCE0, symSize: 0x30 }
  - { offsetInCU: 0x2196E, offset: 0x2196E, size: 0x8, addend: 0x0, symName: __ZNSt3__129_AllocatorDestroyRangeReverseINS_9allocatorINS_5tupleIJiiiEEEEENS_16reverse_iteratorIPS3_EEEC2B8ue170006ERS4_RS7_SA_, symObjAddr: 0xCF78, symBinAddr: 0x10000DD10, symSize: 0x38 }
  - { offsetInCU: 0x219C5, offset: 0x219C5, size: 0x8, addend: 0x0, symName: __ZNSt3__19allocatorINS_5tupleIJiiiEEEE9constructB8ue170006IS2_JS2_EEEvPT_DpOT0_, symObjAddr: 0xCFB0, symBinAddr: 0x10000DD48, symSize: 0x30 }
  - { offsetInCU: 0x21A1B, offset: 0x21A1B, size: 0x8, addend: 0x0, symName: __ZNSt3__128__exception_guard_exceptionsINS_29_AllocatorDestroyRangeReverseINS_9allocatorINS_5tupleIJiiiEEEEENS_16reverse_iteratorIPS4_EEEEED2B8ue170006Ev, symObjAddr: 0xCFE0, symBinAddr: 0x10000DD78, symSize: 0x50 }
  - { offsetInCU: 0x21A45, offset: 0x21A45, size: 0x8, addend: 0x0, symName: __ZNKSt3__129_AllocatorDestroyRangeReverseINS_9allocatorINS_5tupleIJiiiEEEEENS_16reverse_iteratorIPS3_EEEclB8ue170006Ev, symObjAddr: 0xD030, symBinAddr: 0x10000DDC8, symSize: 0xB4 }
  - { offsetInCU: 0x21A6C, offset: 0x21A6C, size: 0x8, addend: 0x0, symName: __ZNSt3__116reverse_iteratorINS0_IPNS_5tupleIJiiiEEEEEEC1B8ue170006ES4_, symObjAddr: 0xD154, symBinAddr: 0x10000DEEC, symSize: 0x3C }
  - { offsetInCU: 0x21AA4, offset: 0x21AA4, size: 0x8, addend: 0x0, symName: __ZNSt3__116reverse_iteratorINS0_IPNS_5tupleIJiiiEEEEEEppB8ue170006Ev, symObjAddr: 0xD214, symBinAddr: 0x10000DFAC, symSize: 0x30 }
  - { offsetInCU: 0x21ACA, offset: 0x21ACA, size: 0x8, addend: 0x0, symName: __ZNKSt3__116reverse_iteratorINS0_IPNS_5tupleIJiiiEEEEEE4baseB8ue170006Ev, symObjAddr: 0xD244, symBinAddr: 0x10000DFDC, symSize: 0x24 }
  - { offsetInCU: 0x21AF6, offset: 0x21AF6, size: 0x8, addend: 0x0, symName: __ZNSt3__119__to_address_helperINS_16reverse_iteratorINS1_IPNS_5tupleIJiiiEEEEEEEvE6__callB8ue170006ERKS6_, symObjAddr: 0xD268, symBinAddr: 0x10000E000, symSize: 0x38 }
  - { offsetInCU: 0x21B19, offset: 0x21B19, size: 0x8, addend: 0x0, symName: __ZNKSt3__116reverse_iteratorINS0_IPNS_5tupleIJiiiEEEEEEptB8ue170006Ev, symObjAddr: 0xD2A0, symBinAddr: 0x10000E038, symSize: 0x24 }
  - { offsetInCU: 0x21B3F, offset: 0x21B3F, size: 0x8, addend: 0x0, symName: __ZNKSt3__116reverse_iteratorINS0_IPNS_5tupleIJiiiEEEEEEdeB8ue170006Ev, symObjAddr: 0xD2C4, symBinAddr: 0x10000E05C, symSize: 0x34 }
  - { offsetInCU: 0x21B73, offset: 0x21B73, size: 0x8, addend: 0x0, symName: __ZNSt3__116reverse_iteratorIPNS_5tupleIJiiiEEEEmmB8ue170006Ev, symObjAddr: 0xD2F8, symBinAddr: 0x10000E090, symSize: 0x20 }
  - { offsetInCU: 0x21B99, offset: 0x21B99, size: 0x8, addend: 0x0, symName: __ZNSt3__116reverse_iteratorINS0_IPNS_5tupleIJiiiEEEEEEC2B8ue170006ES4_, symObjAddr: 0xD318, symBinAddr: 0x10000E0B0, symSize: 0x2C }
  - { offsetInCU: 0x21BD1, offset: 0x21BD1, size: 0x8, addend: 0x0, symName: __ZNSt3__114__split_bufferINS_5tupleIJiiiEEERNS_9allocatorIS2_EEED2Ev, symObjAddr: 0xD344, symBinAddr: 0x10000E0DC, symSize: 0x8C }
  - { offsetInCU: 0x21BFD, offset: 0x21BFD, size: 0x8, addend: 0x0, symName: __ZNSt3__114__split_bufferINS_5tupleIJiiiEEERNS_9allocatorIS2_EEE5clearB8ue170006Ev, symObjAddr: 0xD3D0, symBinAddr: 0x10000E168, symSize: 0x28 }
  - { offsetInCU: 0x21C23, offset: 0x21C23, size: 0x8, addend: 0x0, symName: __ZNKSt3__114__split_bufferINS_5tupleIJiiiEEERNS_9allocatorIS2_EEE8capacityB8ue170006Ev, symObjAddr: 0xD3F8, symBinAddr: 0x10000E190, symSize: 0x40 }
  - { offsetInCU: 0x21C49, offset: 0x21C49, size: 0x8, addend: 0x0, symName: __ZNSt3__114__split_bufferINS_5tupleIJiiiEEERNS_9allocatorIS2_EEE17__destruct_at_endB8ue170006EPS2_, symObjAddr: 0xD438, symBinAddr: 0x10000E1D0, symSize: 0x2C }
  - { offsetInCU: 0x21C7D, offset: 0x21C7D, size: 0x8, addend: 0x0, symName: __ZNSt3__114__split_bufferINS_5tupleIJiiiEEERNS_9allocatorIS2_EEE17__destruct_at_endB8ue170006EPS2_NS_17integral_constantIbLb0EEE, symObjAddr: 0xD464, symBinAddr: 0x10000E1FC, symSize: 0x80 }
  - { offsetInCU: 0x21CBD, offset: 0x21CBD, size: 0x8, addend: 0x0, symName: __ZNKSt3__114__split_bufferINS_5tupleIJiiiEEERNS_9allocatorIS2_EEE9__end_capB8ue170006Ev, symObjAddr: 0xD4E4, symBinAddr: 0x10000E27C, symSize: 0x28 }
  - { offsetInCU: 0x21CE3, offset: 0x21CE3, size: 0x8, addend: 0x0, symName: __ZNKSt3__117__compressed_pairIPNS_5tupleIJiiiEEERNS_9allocatorIS2_EEE5firstB8ue170006Ev, symObjAddr: 0xD50C, symBinAddr: 0x10000E2A4, symSize: 0x24 }
  - { offsetInCU: 0x21D09, offset: 0x21D09, size: 0x8, addend: 0x0, symName: __ZNSt3__16vectorI6EstadoNS_9allocatorIS1_EEE9__end_capB8ue170006Ev, symObjAddr: 0xD530, symBinAddr: 0x10000E2C8, symSize: 0x28 }
  - { offsetInCU: 0x21D2F, offset: 0x21D2F, size: 0x8, addend: 0x0, symName: __ZNSt3__16vectorI6EstadoNS_9allocatorIS1_EEE22__construct_one_at_endB8ue170006IJRKS1_EEEvDpOT_, symObjAddr: 0xD558, symBinAddr: 0x10000E2F0, symSize: 0x90 }
  - { offsetInCU: 0x21D7E, offset: 0x21D7E, size: 0x8, addend: 0x0, symName: __ZNSt3__16vectorI6EstadoNS_9allocatorIS1_EEE21__push_back_slow_pathIRKS1_EEvOT_, symObjAddr: 0xD5E8, symBinAddr: 0x10000E380, symSize: 0xD8 }
  - { offsetInCU: 0x21DDC, offset: 0x21DDC, size: 0x8, addend: 0x0, symName: __ZNSt3__117__compressed_pairIP6EstadoNS_9allocatorIS1_EEE5firstB8ue170006Ev, symObjAddr: 0xD6C0, symBinAddr: 0x10000E458, symSize: 0x24 }
  - { offsetInCU: 0x21E02, offset: 0x21E02, size: 0x8, addend: 0x0, symName: __ZNSt3__122__compressed_pair_elemIP6EstadoLi0ELb0EE5__getB8ue170006Ev, symObjAddr: 0xD6E4, symBinAddr: 0x10000E47C, symSize: 0x14 }
  - { offsetInCU: 0x21E44, offset: 0x21E44, size: 0x8, addend: 0x0, symName: __ZNSt3__16vectorI6EstadoNS_9allocatorIS1_EEE21_ConstructTransactionC1B8ue170006ERS4_m, symObjAddr: 0xD6F8, symBinAddr: 0x10000E490, symSize: 0x3C }
  - { offsetInCU: 0x21E8C, offset: 0x21E8C, size: 0x8, addend: 0x0, symName: __ZNSt3__116allocator_traitsINS_9allocatorI6EstadoEEE9constructB8ue170006IS2_JRKS2_EvEEvRS3_PT_DpOT0_, symObjAddr: 0xD734, symBinAddr: 0x10000E4CC, symSize: 0x34 }
  - { offsetInCU: 0x21EE3, offset: 0x21EE3, size: 0x8, addend: 0x0, symName: __ZNSt3__16vectorI6EstadoNS_9allocatorIS1_EEE21_ConstructTransactionD1B8ue170006Ev, symObjAddr: 0xD768, symBinAddr: 0x10000E500, symSize: 0x2C }
  - { offsetInCU: 0x21F0D, offset: 0x21F0D, size: 0x8, addend: 0x0, symName: __ZNSt3__16vectorI6EstadoNS_9allocatorIS1_EEE21_ConstructTransactionC2B8ue170006ERS4_m, symObjAddr: 0xD794, symBinAddr: 0x10000E52C, symSize: 0x44 }
  - { offsetInCU: 0x21F55, offset: 0x21F55, size: 0x8, addend: 0x0, symName: __ZNSt3__19allocatorI6EstadoE9constructB8ue170006IS1_JRKS1_EEEvPT_DpOT0_, symObjAddr: 0xD7D8, symBinAddr: 0x10000E570, symSize: 0x30 }
  - { offsetInCU: 0x21FAB, offset: 0x21FAB, size: 0x8, addend: 0x0, symName: __ZNSt3__16vectorI6EstadoNS_9allocatorIS1_EEE21_ConstructTransactionD2B8ue170006Ev, symObjAddr: 0xD808, symBinAddr: 0x10000E5A0, symSize: 0x20 }
  - { offsetInCU: 0x21FD5, offset: 0x21FD5, size: 0x8, addend: 0x0, symName: __ZNKSt3__16vectorI6EstadoNS_9allocatorIS1_EEE11__recommendB8ue170006Em, symObjAddr: 0xD828, symBinAddr: 0x10000E5C0, symSize: 0xB4 }
  - { offsetInCU: 0x2202A, offset: 0x2202A, size: 0x8, addend: 0x0, symName: __ZNSt3__114__split_bufferI6EstadoRNS_9allocatorIS1_EEEC1EmmS4_, symObjAddr: 0xD8DC, symBinAddr: 0x10000E674, symSize: 0x44 }
  - { offsetInCU: 0x22080, offset: 0x22080, size: 0x8, addend: 0x0, symName: __ZNSt3__114__split_bufferI6EstadoRNS_9allocatorIS1_EEED1Ev, symObjAddr: 0xDA30, symBinAddr: 0x10000E7C8, symSize: 0x2C }
  - { offsetInCU: 0x220AC, offset: 0x220AC, size: 0x8, addend: 0x0, symName: __ZNKSt3__16vectorI6EstadoNS_9allocatorIS1_EEE8max_sizeEv, symObjAddr: 0xDA5C, symBinAddr: 0x10000E7F4, symSize: 0x60 }
  - { offsetInCU: 0x220D4, offset: 0x220D4, size: 0x8, addend: 0x0, symName: __ZNKSt3__16vectorI6EstadoNS_9allocatorIS1_EEE20__throw_length_errorB8ue170006Ev, symObjAddr: 0xDABC, symBinAddr: 0x10000E854, symSize: 0x1C }
  - { offsetInCU: 0x22105, offset: 0x22105, size: 0x8, addend: 0x0, symName: __ZNSt3__116allocator_traitsINS_9allocatorI6EstadoEEE8max_sizeB8ue170006IS3_vEEmRKS3_, symObjAddr: 0xDAD8, symBinAddr: 0x10000E870, symSize: 0x24 }
  - { offsetInCU: 0x22133, offset: 0x22133, size: 0x8, addend: 0x0, symName: __ZNKSt3__16vectorI6EstadoNS_9allocatorIS1_EEE7__allocB8ue170006Ev, symObjAddr: 0xDAFC, symBinAddr: 0x10000E894, symSize: 0x28 }
  - { offsetInCU: 0x22159, offset: 0x22159, size: 0x8, addend: 0x0, symName: __ZNKSt3__19allocatorI6EstadoE8max_sizeB8ue170006Ev, symObjAddr: 0xDB24, symBinAddr: 0x10000E8BC, symSize: 0x14 }
  - { offsetInCU: 0x2217F, offset: 0x2217F, size: 0x8, addend: 0x0, symName: __ZNKSt3__117__compressed_pairIP6EstadoNS_9allocatorIS1_EEE6secondB8ue170006Ev, symObjAddr: 0xDB38, symBinAddr: 0x10000E8D0, symSize: 0x24 }
  - { offsetInCU: 0x221A5, offset: 0x221A5, size: 0x8, addend: 0x0, symName: __ZNKSt3__122__compressed_pair_elemINS_9allocatorI6EstadoEELi1ELb1EE5__getB8ue170006Ev, symObjAddr: 0xDB5C, symBinAddr: 0x10000E8F4, symSize: 0x14 }
  - { offsetInCU: 0x221CB, offset: 0x221CB, size: 0x8, addend: 0x0, symName: __ZNSt3__114__split_bufferI6EstadoRNS_9allocatorIS1_EEEC2EmmS4_, symObjAddr: 0xDB70, symBinAddr: 0x10000E908, symSize: 0xD4 }
  - { offsetInCU: 0x2223E, offset: 0x2223E, size: 0x8, addend: 0x0, symName: __ZNSt3__117__compressed_pairIP6EstadoRNS_9allocatorIS1_EEEC1B8ue170006IDnS5_EEOT_OT0_, symObjAddr: 0xDC44, symBinAddr: 0x10000E9DC, symSize: 0x3C }
  - { offsetInCU: 0x22296, offset: 0x22296, size: 0x8, addend: 0x0, symName: __ZNSt3__114__split_bufferI6EstadoRNS_9allocatorIS1_EEE7__allocB8ue170006Ev, symObjAddr: 0xDCC0, symBinAddr: 0x10000EA58, symSize: 0x28 }
  - { offsetInCU: 0x222BC, offset: 0x222BC, size: 0x8, addend: 0x0, symName: __ZNSt3__114__split_bufferI6EstadoRNS_9allocatorIS1_EEE9__end_capB8ue170006Ev, symObjAddr: 0xDCE8, symBinAddr: 0x10000EA80, symSize: 0x28 }
  - { offsetInCU: 0x222E2, offset: 0x222E2, size: 0x8, addend: 0x0, symName: __ZNSt3__117__compressed_pairIP6EstadoRNS_9allocatorIS1_EEEC2B8ue170006IDnS5_EEOT_OT0_, symObjAddr: 0xDD10, symBinAddr: 0x10000EAA8, symSize: 0x48 }
  - { offsetInCU: 0x2233A, offset: 0x2233A, size: 0x8, addend: 0x0, symName: __ZNSt3__122__compressed_pair_elemIRNS_9allocatorI6EstadoEELi1ELb0EEC2B8ue170006IS4_vEEOT_, symObjAddr: 0xDD58, symBinAddr: 0x10000EAF0, symSize: 0x20 }
  - { offsetInCU: 0x2237C, offset: 0x2237C, size: 0x8, addend: 0x0, symName: __ZNSt3__19allocatorI6EstadoE8allocateB8ue170006Em, symObjAddr: 0xDD78, symBinAddr: 0x10000EB10, symSize: 0x58 }
  - { offsetInCU: 0x223B0, offset: 0x223B0, size: 0x8, addend: 0x0, symName: __ZNSt3__117__compressed_pairIP6EstadoRNS_9allocatorIS1_EEE6secondB8ue170006Ev, symObjAddr: 0xDDD0, symBinAddr: 0x10000EB68, symSize: 0x28 }
  - { offsetInCU: 0x223D6, offset: 0x223D6, size: 0x8, addend: 0x0, symName: __ZNSt3__122__compressed_pair_elemIRNS_9allocatorI6EstadoEELi1ELb0EE5__getB8ue170006Ev, symObjAddr: 0xDDF8, symBinAddr: 0x10000EB90, symSize: 0x18 }
  - { offsetInCU: 0x223FC, offset: 0x223FC, size: 0x8, addend: 0x0, symName: __ZNSt3__117__compressed_pairIP6EstadoRNS_9allocatorIS1_EEE5firstB8ue170006Ev, symObjAddr: 0xDE10, symBinAddr: 0x10000EBA8, symSize: 0x24 }
  - { offsetInCU: 0x22422, offset: 0x22422, size: 0x8, addend: 0x0, symName: __ZNSt3__116reverse_iteratorIP6EstadoEC1B8ue170006ES2_, symObjAddr: 0xDF60, symBinAddr: 0x10000ECF8, symSize: 0x34 }
  - { offsetInCU: 0x2245A, offset: 0x2245A, size: 0x8, addend: 0x0, symName: __ZNKSt3__116reverse_iteratorIP6EstadoE4baseB8ue170006Ev, symObjAddr: 0xDF94, symBinAddr: 0x10000ED2C, symSize: 0x18 }
  - { offsetInCU: 0x22480, offset: 0x22480, size: 0x8, addend: 0x0, symName: __ZNKSt3__16vectorI6EstadoNS_9allocatorIS1_EEE14__annotate_newB8ue170006Em, symObjAddr: 0xDFE8, symBinAddr: 0x10000ED80, symSize: 0xAC }
  - { offsetInCU: 0x224B5, offset: 0x224B5, size: 0x8, addend: 0x0, symName: __ZNSt3__129_AllocatorDestroyRangeReverseINS_9allocatorI6EstadoEENS_16reverse_iteratorIPS2_EEEC1B8ue170006ERS3_RS6_S9_, symObjAddr: 0xE0E0, symBinAddr: 0x10000EE78, symSize: 0x44 }
  - { offsetInCU: 0x22512, offset: 0x22512, size: 0x8, addend: 0x0, symName: __ZNSt3__116allocator_traitsINS_9allocatorI6EstadoEEE9constructB8ue170006IS2_JS2_EvEEvRS3_PT_DpOT0_, symObjAddr: 0xE16C, symBinAddr: 0x10000EF04, symSize: 0x34 }
  - { offsetInCU: 0x22569, offset: 0x22569, size: 0x8, addend: 0x0, symName: __ZNKSt3__116reverse_iteratorIP6EstadoEdeB8ue170006Ev, symObjAddr: 0xE1C4, symBinAddr: 0x10000EF5C, symSize: 0x28 }
  - { offsetInCU: 0x2259D, offset: 0x2259D, size: 0x8, addend: 0x0, symName: __ZNSt3__116reverse_iteratorIP6EstadoEppB8ue170006Ev, symObjAddr: 0xE1EC, symBinAddr: 0x10000EF84, symSize: 0x20 }
  - { offsetInCU: 0x225C3, offset: 0x225C3, size: 0x8, addend: 0x0, symName: __ZNSt3__128__exception_guard_exceptionsINS_29_AllocatorDestroyRangeReverseINS_9allocatorI6EstadoEENS_16reverse_iteratorIPS3_EEEEE10__completeB8ue170006Ev, symObjAddr: 0xE20C, symBinAddr: 0x10000EFA4, symSize: 0x1C }
  - { offsetInCU: 0x225E9, offset: 0x225E9, size: 0x8, addend: 0x0, symName: __ZNSt3__128__exception_guard_exceptionsINS_29_AllocatorDestroyRangeReverseINS_9allocatorI6EstadoEENS_16reverse_iteratorIPS3_EEEEED1B8ue170006Ev, symObjAddr: 0xE228, symBinAddr: 0x10000EFC0, symSize: 0x2C }
  - { offsetInCU: 0x22613, offset: 0x22613, size: 0x8, addend: 0x0, symName: __ZNSt3__128__exception_guard_exceptionsINS_29_AllocatorDestroyRangeReverseINS_9allocatorI6EstadoEENS_16reverse_iteratorIPS3_EEEEEC1B8ue170006ES8_, symObjAddr: 0xE254, symBinAddr: 0x10000EFEC, symSize: 0x34 }
  - { offsetInCU: 0x2264C, offset: 0x2264C, size: 0x8, addend: 0x0, symName: __ZNSt3__128__exception_guard_exceptionsINS_29_AllocatorDestroyRangeReverseINS_9allocatorI6EstadoEENS_16reverse_iteratorIPS3_EEEEEC2B8ue170006ES8_, symObjAddr: 0xE288, symBinAddr: 0x10000F020, symSize: 0x30 }
  - { offsetInCU: 0x22685, offset: 0x22685, size: 0x8, addend: 0x0, symName: __ZNSt3__129_AllocatorDestroyRangeReverseINS_9allocatorI6EstadoEENS_16reverse_iteratorIPS2_EEEC2B8ue170006ERS3_RS6_S9_, symObjAddr: 0xE2B8, symBinAddr: 0x10000F050, symSize: 0x38 }
  - { offsetInCU: 0x226DC, offset: 0x226DC, size: 0x8, addend: 0x0, symName: __ZNSt3__19allocatorI6EstadoE9constructB8ue170006IS1_JS1_EEEvPT_DpOT0_, symObjAddr: 0xE2F0, symBinAddr: 0x10000F088, symSize: 0x30 }
  - { offsetInCU: 0x22732, offset: 0x22732, size: 0x8, addend: 0x0, symName: __ZN6EstadoC1EOS_, symObjAddr: 0xE320, symBinAddr: 0x10000F0B8, symSize: 0x34 }
  - { offsetInCU: 0x22767, offset: 0x22767, size: 0x8, addend: 0x0, symName: __ZN6EstadoC2EOS_, symObjAddr: 0xE354, symBinAddr: 0x10000F0EC, symSize: 0x40 }
  - { offsetInCU: 0x2279C, offset: 0x2279C, size: 0x8, addend: 0x0, symName: __ZNSt3__16vectorINS_5tupleIJiiiEEENS_9allocatorIS2_EEEC1B8ue170006EOS5_, symObjAddr: 0xE394, symBinAddr: 0x10000F12C, symSize: 0x34 }
  - { offsetInCU: 0x227D7, offset: 0x227D7, size: 0x8, addend: 0x0, symName: __ZNSt3__16vectorINS_5tupleIJiiiEEENS_9allocatorIS2_EEEC2B8ue170006EOS5_, symObjAddr: 0xE3C8, symBinAddr: 0x10000F160, symSize: 0xC4 }
  - { offsetInCU: 0x22818, offset: 0x22818, size: 0x8, addend: 0x0, symName: __ZNSt3__119__to_address_helperINS_16reverse_iteratorIP6EstadoEEvE6__callB8ue170006ERKS4_, symObjAddr: 0xE48C, symBinAddr: 0x10000F224, symSize: 0x38 }
  - { offsetInCU: 0x2283B, offset: 0x2283B, size: 0x8, addend: 0x0, symName: __ZNKSt3__116reverse_iteratorIP6EstadoEptB8ue170006Ev, symObjAddr: 0xE4C4, symBinAddr: 0x10000F25C, symSize: 0x24 }
  - { offsetInCU: 0x22861, offset: 0x22861, size: 0x8, addend: 0x0, symName: __ZNSt3__128__exception_guard_exceptionsINS_29_AllocatorDestroyRangeReverseINS_9allocatorI6EstadoEENS_16reverse_iteratorIPS3_EEEEED2B8ue170006Ev, symObjAddr: 0xE4E8, symBinAddr: 0x10000F280, symSize: 0x50 }
  - { offsetInCU: 0x2288B, offset: 0x2288B, size: 0x8, addend: 0x0, symName: __ZNKSt3__129_AllocatorDestroyRangeReverseINS_9allocatorI6EstadoEENS_16reverse_iteratorIPS2_EEEclB8ue170006Ev, symObjAddr: 0xE538, symBinAddr: 0x10000F2D0, symSize: 0xB4 }
  - { offsetInCU: 0x228B2, offset: 0x228B2, size: 0x8, addend: 0x0, symName: __ZNSt3__116reverse_iteratorINS0_IP6EstadoEEEC1B8ue170006ES3_, symObjAddr: 0xE65C, symBinAddr: 0x10000F3F4, symSize: 0x3C }
  - { offsetInCU: 0x228EA, offset: 0x228EA, size: 0x8, addend: 0x0, symName: __ZNSt3__116reverse_iteratorINS0_IP6EstadoEEEppB8ue170006Ev, symObjAddr: 0xE71C, symBinAddr: 0x10000F4B4, symSize: 0x30 }
  - { offsetInCU: 0x22910, offset: 0x22910, size: 0x8, addend: 0x0, symName: __ZNKSt3__116reverse_iteratorINS0_IP6EstadoEEE4baseB8ue170006Ev, symObjAddr: 0xE74C, symBinAddr: 0x10000F4E4, symSize: 0x24 }
  - { offsetInCU: 0x2293C, offset: 0x2293C, size: 0x8, addend: 0x0, symName: __ZNSt3__119__to_address_helperINS_16reverse_iteratorINS1_IP6EstadoEEEEvE6__callB8ue170006ERKS5_, symObjAddr: 0xE770, symBinAddr: 0x10000F508, symSize: 0x38 }
  - { offsetInCU: 0x2295F, offset: 0x2295F, size: 0x8, addend: 0x0, symName: __ZNKSt3__116reverse_iteratorINS0_IP6EstadoEEEptB8ue170006Ev, symObjAddr: 0xE7A8, symBinAddr: 0x10000F540, symSize: 0x24 }
  - { offsetInCU: 0x22985, offset: 0x22985, size: 0x8, addend: 0x0, symName: __ZNKSt3__116reverse_iteratorINS0_IP6EstadoEEEdeB8ue170006Ev, symObjAddr: 0xE7CC, symBinAddr: 0x10000F564, symSize: 0x34 }
  - { offsetInCU: 0x229B9, offset: 0x229B9, size: 0x8, addend: 0x0, symName: __ZNSt3__116reverse_iteratorIP6EstadoEmmB8ue170006Ev, symObjAddr: 0xE800, symBinAddr: 0x10000F598, symSize: 0x20 }
  - { offsetInCU: 0x229DF, offset: 0x229DF, size: 0x8, addend: 0x0, symName: __ZNSt3__116reverse_iteratorINS0_IP6EstadoEEEC2B8ue170006ES3_, symObjAddr: 0xE820, symBinAddr: 0x10000F5B8, symSize: 0x2C }
  - { offsetInCU: 0x22A17, offset: 0x22A17, size: 0x8, addend: 0x0, symName: __ZNSt3__116reverse_iteratorIP6EstadoEC2B8ue170006ES2_, symObjAddr: 0xE84C, symBinAddr: 0x10000F5E4, symSize: 0x28 }
  - { offsetInCU: 0x22A4F, offset: 0x22A4F, size: 0x8, addend: 0x0, symName: __ZNSt3__114__split_bufferI6EstadoRNS_9allocatorIS1_EEED2Ev, symObjAddr: 0xE874, symBinAddr: 0x10000F60C, symSize: 0x8C }
  - { offsetInCU: 0x22A7B, offset: 0x22A7B, size: 0x8, addend: 0x0, symName: __ZNSt3__114__split_bufferI6EstadoRNS_9allocatorIS1_EEE5clearB8ue170006Ev, symObjAddr: 0xE900, symBinAddr: 0x10000F698, symSize: 0x28 }
  - { offsetInCU: 0x22AA1, offset: 0x22AA1, size: 0x8, addend: 0x0, symName: __ZNKSt3__114__split_bufferI6EstadoRNS_9allocatorIS1_EEE8capacityB8ue170006Ev, symObjAddr: 0xE928, symBinAddr: 0x10000F6C0, symSize: 0x40 }
  - { offsetInCU: 0x22AC7, offset: 0x22AC7, size: 0x8, addend: 0x0, symName: __ZNSt3__114__split_bufferI6EstadoRNS_9allocatorIS1_EEE17__destruct_at_endB8ue170006EPS1_, symObjAddr: 0xE968, symBinAddr: 0x10000F700, symSize: 0x2C }
  - { offsetInCU: 0x22AFB, offset: 0x22AFB, size: 0x8, addend: 0x0, symName: __ZNSt3__114__split_bufferI6EstadoRNS_9allocatorIS1_EEE17__destruct_at_endB8ue170006EPS1_NS_17integral_constantIbLb0EEE, symObjAddr: 0xE994, symBinAddr: 0x10000F72C, symSize: 0x80 }
  - { offsetInCU: 0x22B3B, offset: 0x22B3B, size: 0x8, addend: 0x0, symName: __ZNKSt3__114__split_bufferI6EstadoRNS_9allocatorIS1_EEE9__end_capB8ue170006Ev, symObjAddr: 0xEA14, symBinAddr: 0x10000F7AC, symSize: 0x28 }
  - { offsetInCU: 0x22B61, offset: 0x22B61, size: 0x8, addend: 0x0, symName: __ZNKSt3__117__compressed_pairIP6EstadoRNS_9allocatorIS1_EEE5firstB8ue170006Ev, symObjAddr: 0xEA3C, symBinAddr: 0x10000F7D4, symSize: 0x24 }
  - { offsetInCU: 0x22B87, offset: 0x22B87, size: 0x8, addend: 0x0, symName: __ZNSt3__111char_traitsIcE6lengthB8ue170006EPKc, symObjAddr: 0xEC4C, symBinAddr: 0x10000F9E4, symSize: 0x34 }
  - { offsetInCU: 0x22BCD, offset: 0x22BCD, size: 0x8, addend: 0x0, symName: __ZNKSt3__113basic_ostreamIcNS_11char_traitsIcEEE6sentrycvbB8ue170006Ev, symObjAddr: 0xEC80, symBinAddr: 0x10000FA18, symSize: 0x1C }
  - { offsetInCU: 0x22BF3, offset: 0x22BF3, size: 0x8, addend: 0x0, symName: __ZNSt3__119ostreambuf_iteratorIcNS_11char_traitsIcEEEC1B8ue170006ERNS_13basic_ostreamIcS2_EE, symObjAddr: 0xEEDC, symBinAddr: 0x10000FC74, symSize: 0x34 }
  - { offsetInCU: 0x22C2B, offset: 0x22C2B, size: 0x8, addend: 0x0, symName: __ZNKSt3__18ios_base5flagsB8ue170006Ev, symObjAddr: 0xEF10, symBinAddr: 0x10000FCA8, symSize: 0x18 }
  - { offsetInCU: 0x22C53, offset: 0x22C53, size: 0x8, addend: 0x0, symName: __ZNKSt3__19basic_iosIcNS_11char_traitsIcEEE4fillB8ue170006Ev, symObjAddr: 0xEF28, symBinAddr: 0x10000FCC0, symSize: 0x64 }
  - { offsetInCU: 0x22C7B, offset: 0x22C7B, size: 0x8, addend: 0x0, symName: __ZNKSt3__119ostreambuf_iteratorIcNS_11char_traitsIcEEE6failedB8ue170006Ev, symObjAddr: 0xEF8C, symBinAddr: 0x10000FD24, symSize: 0x24 }
  - { offsetInCU: 0x22CA1, offset: 0x22CA1, size: 0x8, addend: 0x0, symName: __ZNSt3__19basic_iosIcNS_11char_traitsIcEEE8setstateB8ue170006Ej, symObjAddr: 0xEFB0, symBinAddr: 0x10000FD48, symSize: 0x2C }
  - { offsetInCU: 0x22CD6, offset: 0x22CD6, size: 0x8, addend: 0x0, symName: __ZNKSt3__18ios_base5widthB8ue170006Ev, symObjAddr: 0xEFDC, symBinAddr: 0x10000FD74, symSize: 0x18 }
  - { offsetInCU: 0x22CFE, offset: 0x22CFE, size: 0x8, addend: 0x0, symName: __ZNSt3__115basic_streambufIcNS_11char_traitsIcEEE5sputnB8ue170006EPKcl, symObjAddr: 0xEFF4, symBinAddr: 0x10000FD8C, symSize: 0x3C }
  - { offsetInCU: 0x22D40, offset: 0x22D40, size: 0x8, addend: 0x0, symName: __ZNSt3__112basic_stringIcNS_11char_traitsIcEENS_9allocatorIcEEEC1B8ue170006Emc, symObjAddr: 0xF030, symBinAddr: 0x10000FDC8, symSize: 0x3C }
  - { offsetInCU: 0x22D88, offset: 0x22D88, size: 0x8, addend: 0x0, symName: __ZNKSt3__112basic_stringIcNS_11char_traitsIcEENS_9allocatorIcEEE4dataB8ue170006Ev, symObjAddr: 0xF06C, symBinAddr: 0x10000FE04, symSize: 0x28 }
  - { offsetInCU: 0x22DAE, offset: 0x22DAE, size: 0x8, addend: 0x0, symName: __ZNSt3__18ios_base5widthB8ue170006El, symObjAddr: 0xF094, symBinAddr: 0x10000FE2C, symSize: 0x2C }
  - { offsetInCU: 0x22DF4, offset: 0x22DF4, size: 0x8, addend: 0x0, symName: __ZNSt3__112basic_stringIcNS_11char_traitsIcEENS_9allocatorIcEEEC2B8ue170006Emc, symObjAddr: 0xF0C0, symBinAddr: 0x10000FE58, symSize: 0x4C }
  - { offsetInCU: 0x22E3C, offset: 0x22E3C, size: 0x8, addend: 0x0, symName: __ZNSt3__117__compressed_pairINS_12basic_stringIcNS_11char_traitsIcEENS_9allocatorIcEEE5__repES5_EC1B8ue170006INS_18__default_init_tagESA_EEOT_OT0_, symObjAddr: 0xF10C, symBinAddr: 0x10000FEA4, symSize: 0x3C }
  - { offsetInCU: 0x22E94, offset: 0x22E94, size: 0x8, addend: 0x0, symName: __ZNSt3__117__compressed_pairINS_12basic_stringIcNS_11char_traitsIcEENS_9allocatorIcEEE5__repES5_EC2B8ue170006INS_18__default_init_tagESA_EEOT_OT0_, symObjAddr: 0xF148, symBinAddr: 0x10000FEE0, symSize: 0x3C }
  - { offsetInCU: 0x22EEC, offset: 0x22EEC, size: 0x8, addend: 0x0, symName: __ZNSt3__122__compressed_pair_elemINS_12basic_stringIcNS_11char_traitsIcEENS_9allocatorIcEEE5__repELi0ELb0EEC2B8ue170006ENS_18__default_init_tagE, symObjAddr: 0xF184, symBinAddr: 0x10000FF1C, symSize: 0x14 }
  - { offsetInCU: 0x22F20, offset: 0x22F20, size: 0x8, addend: 0x0, symName: __ZNSt3__122__compressed_pair_elemINS_9allocatorIcEELi1ELb1EEC2B8ue170006ENS_18__default_init_tagE, symObjAddr: 0xF198, symBinAddr: 0x10000FF30, symSize: 0x2C }
  - { offsetInCU: 0x22F54, offset: 0x22F54, size: 0x8, addend: 0x0, symName: __ZNSt3__19allocatorIcEC2B8ue170006Ev, symObjAddr: 0xF1C4, symBinAddr: 0x10000FF5C, symSize: 0x2C }
  - { offsetInCU: 0x22F7E, offset: 0x22F7E, size: 0x8, addend: 0x0, symName: __ZNSt3__116__non_trivial_ifILb1ENS_9allocatorIcEEEC2B8ue170006Ev, symObjAddr: 0xF1F0, symBinAddr: 0x10000FF88, symSize: 0x14 }
  - { offsetInCU: 0x22FA8, offset: 0x22FA8, size: 0x8, addend: 0x0, symName: __ZNKSt3__112basic_stringIcNS_11char_traitsIcEENS_9allocatorIcEEE13__get_pointerB8ue170006Ev, symObjAddr: 0xF218, symBinAddr: 0x10000FFB0, symSize: 0x54 }
  - { offsetInCU: 0x22FCE, offset: 0x22FCE, size: 0x8, addend: 0x0, symName: __ZNKSt3__112basic_stringIcNS_11char_traitsIcEENS_9allocatorIcEEE9__is_longB8ue170006Ev, symObjAddr: 0xF26C, symBinAddr: 0x100010004, symSize: 0x38 }
  - { offsetInCU: 0x22FF4, offset: 0x22FF4, size: 0x8, addend: 0x0, symName: __ZNKSt3__112basic_stringIcNS_11char_traitsIcEENS_9allocatorIcEEE18__get_long_pointerB8ue170006Ev, symObjAddr: 0xF2A4, symBinAddr: 0x10001003C, symSize: 0x28 }
  - { offsetInCU: 0x2301A, offset: 0x2301A, size: 0x8, addend: 0x0, symName: __ZNKSt3__112basic_stringIcNS_11char_traitsIcEENS_9allocatorIcEEE19__get_short_pointerB8ue170006Ev, symObjAddr: 0xF2CC, symBinAddr: 0x100010064, symSize: 0x28 }
  - { offsetInCU: 0x23040, offset: 0x23040, size: 0x8, addend: 0x0, symName: __ZNKSt3__117__compressed_pairINS_12basic_stringIcNS_11char_traitsIcEENS_9allocatorIcEEE5__repES5_E5firstB8ue170006Ev, symObjAddr: 0xF2F4, symBinAddr: 0x10001008C, symSize: 0x24 }
  - { offsetInCU: 0x23066, offset: 0x23066, size: 0x8, addend: 0x0, symName: __ZNKSt3__122__compressed_pair_elemINS_12basic_stringIcNS_11char_traitsIcEENS_9allocatorIcEEE5__repELi0ELb0EE5__getB8ue170006Ev, symObjAddr: 0xF318, symBinAddr: 0x1000100B0, symSize: 0x14 }
  - { offsetInCU: 0x2308C, offset: 0x2308C, size: 0x8, addend: 0x0, symName: __ZNSt3__114pointer_traitsIPKcE10pointer_toB8ue170006ERS1_, symObjAddr: 0xF32C, symBinAddr: 0x1000100C4, symSize: 0x14 }
  - { offsetInCU: 0x230AF, offset: 0x230AF, size: 0x8, addend: 0x0, symName: __ZNSt3__119ostreambuf_iteratorIcNS_11char_traitsIcEEEC2B8ue170006ERNS_13basic_ostreamIcS2_EE, symObjAddr: 0xF340, symBinAddr: 0x1000100D8, symSize: 0x54 }
  - { offsetInCU: 0x230E7, offset: 0x230E7, size: 0x8, addend: 0x0, symName: __ZNKSt3__19basic_iosIcNS_11char_traitsIcEEE5rdbufB8ue170006Ev, symObjAddr: 0xF394, symBinAddr: 0x10001012C, symSize: 0x24 }
  - { offsetInCU: 0x2310F, offset: 0x2310F, size: 0x8, addend: 0x0, symName: __ZNKSt3__18ios_base5rdbufB8ue170006Ev, symObjAddr: 0xF3B8, symBinAddr: 0x100010150, symSize: 0x18 }
  - { offsetInCU: 0x23135, offset: 0x23135, size: 0x8, addend: 0x0, symName: __ZNSt3__111char_traitsIcE11eq_int_typeB8ue170006Eii, symObjAddr: 0xF3D0, symBinAddr: 0x100010168, symSize: 0x28 }
  - { offsetInCU: 0x23168, offset: 0x23168, size: 0x8, addend: 0x0, symName: __ZNSt3__111char_traitsIcE3eofB8ue170006Ev, symObjAddr: 0xF3F8, symBinAddr: 0x100010190, symSize: 0x8 }
  - { offsetInCU: 0x2317C, offset: 0x2317C, size: 0x8, addend: 0x0, symName: __ZNKSt3__19basic_iosIcNS_11char_traitsIcEEE5widenB8ue170006Ec, symObjAddr: 0xF400, symBinAddr: 0x100010198, symSize: 0x84 }
  - { offsetInCU: 0x231EC, offset: 0x231EC, size: 0x8, addend: 0x0, symName: __ZNKSt3__15ctypeIcE5widenB8ue170006Ec, symObjAddr: 0xF4B0, symBinAddr: 0x100010248, symSize: 0x38 }
  - { offsetInCU: 0x23221, offset: 0x23221, size: 0x8, addend: 0x0, symName: __ZNSt3__18ios_base8setstateB8ue170006Ej, symObjAddr: 0xF4E8, symBinAddr: 0x100010280, symSize: 0x34 }
  - { offsetInCU: 0x23263, offset: 0x23263, size: 0x8, addend: 0x0, symName: '__ZZ12imprime_mapaRKNSt3__16vectorINS0_IiNS_9allocatorIiEEEENS1_IS3_EEEERK6EstadoiENK3$_0clEiRKNS_5tupleIJiiiEEE', symObjAddr: 0xF540, symBinAddr: 0x1000102D8, symSize: 0x40 }
  - { offsetInCU: 0x232A9, offset: 0x232A9, size: 0x8, addend: 0x0, symName: __ZNSt3__16vectorINS_5tupleIJiiiEEENS_9allocatorIS2_EEEC2B8ue170006Ev, symObjAddr: 0xF580, symBinAddr: 0x100010318, symSize: 0x4C }
  - { offsetInCU: 0x232D3, offset: 0x232D3, size: 0x8, addend: 0x0, symName: __ZNSt3__117__compressed_pairIPNS_5tupleIJiiiEEENS_9allocatorIS2_EEEC1B8ue170006IDnNS_18__default_init_tagEEEOT_OT0_, symObjAddr: 0xF5CC, symBinAddr: 0x100010364, symSize: 0x3C }
  - { offsetInCU: 0x2332B, offset: 0x2332B, size: 0x8, addend: 0x0, symName: __ZNSt3__117__compressed_pairIPNS_5tupleIJiiiEEENS_9allocatorIS2_EEEC2B8ue170006IDnNS_18__default_init_tagEEEOT_OT0_, symObjAddr: 0xF608, symBinAddr: 0x1000103A0, symSize: 0x40 }
  - { offsetInCU: 0x23383, offset: 0x23383, size: 0x8, addend: 0x0, symName: __ZNSt3__122__compressed_pair_elemINS_9allocatorINS_5tupleIJiiiEEEEELi1ELb1EEC2B8ue170006ENS_18__default_init_tagE, symObjAddr: 0xF648, symBinAddr: 0x1000103E0, symSize: 0x2C }
  - { offsetInCU: 0x233B7, offset: 0x233B7, size: 0x8, addend: 0x0, symName: __ZNSt3__19allocatorINS_5tupleIJiiiEEEEC2B8ue170006Ev, symObjAddr: 0xF674, symBinAddr: 0x10001040C, symSize: 0x2C }
  - { offsetInCU: 0x233E1, offset: 0x233E1, size: 0x8, addend: 0x0, symName: __ZNSt3__116__non_trivial_ifILb1ENS_9allocatorINS_5tupleIJiiiEEEEEEC2B8ue170006Ev, symObjAddr: 0xF6A0, symBinAddr: 0x100010438, symSize: 0x14 }
  - { offsetInCU: 0x2340B, offset: 0x2340B, size: 0x8, addend: 0x0, symName: __ZNSt3__114priority_queueI6EstadoNS_6vectorIS1_NS_9allocatorIS1_EEEENS_7greaterIS1_EEEC2B8ue170006Ev, symObjAddr: 0xF6B4, symBinAddr: 0x10001044C, symSize: 0x2C }
  - { offsetInCU: 0x23435, offset: 0x23435, size: 0x8, addend: 0x0, symName: __ZNSt3__16vectorI6EstadoNS_9allocatorIS1_EEE9push_backB8ue170006EOS1_, symObjAddr: 0xF6E0, symBinAddr: 0x100010478, symSize: 0x6C }
  - { offsetInCU: 0x2346C, offset: 0x2346C, size: 0x8, addend: 0x0, symName: __ZNSt3__16vectorI6EstadoNS_9allocatorIS1_EEE22__construct_one_at_endB8ue170006IJS1_EEEvDpOT_, symObjAddr: 0xF78C, symBinAddr: 0x100010524, symSize: 0x90 }
  - { offsetInCU: 0x234BB, offset: 0x234BB, size: 0x8, addend: 0x0, symName: __ZNSt3__16vectorI6EstadoNS_9allocatorIS1_EEE21__push_back_slow_pathIS1_EEvOT_, symObjAddr: 0xF81C, symBinAddr: 0x1000105B4, symSize: 0xD8 }
  - { offsetInCU: 0x23519, offset: 0x23519, size: 0x8, addend: 0x0, symName: __ZNKSt3__111__wrap_iterIP6EstadoEplB8ue170006El, symObjAddr: 0xFB34, symBinAddr: 0x1000108CC, symSize: 0x3C }
  - { offsetInCU: 0x2355B, offset: 0x2355B, size: 0x8, addend: 0x0, symName: __ZNKSt3__17greaterI6EstadoEclB8ue170006ERKS1_S4_, symObjAddr: 0xFB70, symBinAddr: 0x100010908, symSize: 0x34 }
  - { offsetInCU: 0x2359F, offset: 0x2359F, size: 0x8, addend: 0x0, symName: __ZNSt3__111__wrap_iterIP6EstadoEmmB8ue170006Ev, symObjAddr: 0xFBA4, symBinAddr: 0x10001093C, symSize: 0x20 }
  - { offsetInCU: 0x235C5, offset: 0x235C5, size: 0x8, addend: 0x0, symName: __ZNSt3__18_IterOpsINS_17_ClassicAlgPolicyEE11__iter_moveB8ue170006IRNS_11__wrap_iterIP6EstadoEEEENS_9enable_ifIXsr12is_referenceIDTdeclsr3stdE7declvalIRT_EEEEE5valueEDTclsr3stdE4movedeclsr3stdE7declvalISB_EEEEE4typeEOSA_, symObjAddr: 0xFBC4, symBinAddr: 0x10001095C, symSize: 0x28 }
  - { offsetInCU: 0x235F1, offset: 0x235F1, size: 0x8, addend: 0x0, symName: __ZN6EstadoaSEOS_, symObjAddr: 0xFBEC, symBinAddr: 0x100010984, symSize: 0x40 }
  - { offsetInCU: 0x23622, offset: 0x23622, size: 0x8, addend: 0x0, symName: __ZNSt3__111__wrap_iterIP6EstadoEpLB8ue170006El, symObjAddr: 0xFC2C, symBinAddr: 0x1000109C4, symSize: 0x28 }
  - { offsetInCU: 0x23656, offset: 0x23656, size: 0x8, addend: 0x0, symName: __ZNK6EstadogtERKS_, symObjAddr: 0xFC54, symBinAddr: 0x1000109EC, symSize: 0x30 }
  - { offsetInCU: 0x2368A, offset: 0x2368A, size: 0x8, addend: 0x0, symName: __ZNSt3__18_IterOpsINS_17_ClassicAlgPolicyEE25__validate_iter_referenceB8ue170006IRNS_11__wrap_iterIP6EstadoEEEEvv, symObjAddr: 0xFC84, symBinAddr: 0x100010A1C, symSize: 0x4 }
  - { offsetInCU: 0x236A8, offset: 0x236A8, size: 0x8, addend: 0x0, symName: __ZNSt3__16vectorINS_5tupleIJiiiEEENS_9allocatorIS2_EEEaSB8ue170006EOS5_, symObjAddr: 0xFC88, symBinAddr: 0x100010A20, symSize: 0x34 }
  - { offsetInCU: 0x236DF, offset: 0x236DF, size: 0x8, addend: 0x0, symName: __ZNSt3__16vectorINS_5tupleIJiiiEEENS_9allocatorIS2_EEE13__move_assignERS5_NS_17integral_constantIbLb1EEE, symObjAddr: 0xFCBC, symBinAddr: 0x100010A54, symSize: 0x94 }
  - { offsetInCU: 0x23722, offset: 0x23722, size: 0x8, addend: 0x0, symName: __ZNSt3__16vectorINS_5tupleIJiiiEEENS_9allocatorIS2_EEE19__move_assign_allocB8ue170006ERS5_, symObjAddr: 0xFD50, symBinAddr: 0x100010AE8, symSize: 0x2C }
  - { offsetInCU: 0x23757, offset: 0x23757, size: 0x8, addend: 0x0, symName: __ZNSt3__16vectorINS_5tupleIJiiiEEENS_9allocatorIS2_EEE19__move_assign_allocB8ue170006ERS5_NS_17integral_constantIbLb1EEE, symObjAddr: 0xFD7C, symBinAddr: 0x100010B14, symSize: 0x38 }
  - { offsetInCU: 0x23798, offset: 0x23798, size: 0x8, addend: 0x0, symName: __ZNKSt3__16vectorI6EstadoNS_9allocatorIS1_EEE5emptyB8ue170006Ev, symObjAddr: 0xFDB4, symBinAddr: 0x100010B4C, symSize: 0x28 }
  - { offsetInCU: 0x237E0, offset: 0x237E0, size: 0x8, addend: 0x0, symName: __ZNKSt3__16chrono10time_pointINS0_12steady_clockENS0_8durationIxNS_5ratioILl1ELl1000000000EEEEEE16time_since_epochB8ue170006Ev, symObjAddr: 0xFE4C, symBinAddr: 0x100010BE4, symSize: 0x20 }
  - { offsetInCU: 0x23806, offset: 0x23806, size: 0x8, addend: 0x0, symName: __ZNSt3__16chrono8durationIxNS_5ratioILl1ELl1000000000EEEEC1B8ue170006IxEERKT_PNS_9enable_ifIXaasr14is_convertibleIS8_xEE5valueooL_ZNS_17integral_constantIbLb0EE5valueEEntsr23treat_as_floating_pointIS6_EE5valueEvE4typeE, symObjAddr: 0xFE6C, symBinAddr: 0x100010C04, symSize: 0x3C }
  - { offsetInCU: 0x23853, offset: 0x23853, size: 0x8, addend: 0x0, symName: __ZNSt3__16chrono8durationIxNS_5ratioILl1ELl1000000000EEEEC2B8ue170006IxEERKT_PNS_9enable_ifIXaasr14is_convertibleIS8_xEE5valueooL_ZNS_17integral_constantIbLb0EE5valueEEntsr23treat_as_floating_pointIS6_EE5valueEvE4typeE, symObjAddr: 0xFEA8, symBinAddr: 0x100010C40, symSize: 0x28 }
  - { offsetInCU: 0x238A0, offset: 0x238A0, size: 0x8, addend: 0x0, symName: __ZNKSt3__16vectorI6EstadoNS_9allocatorIS1_EEE5frontB8ue170006Ev, symObjAddr: 0xFED0, symBinAddr: 0x100010C68, symSize: 0x18 }
  - { offsetInCU: 0x238C6, offset: 0x238C6, size: 0x8, addend: 0x0, symName: __ZNSt3__16vectorI6EstadoNS_9allocatorIS1_EEE8pop_backEv, symObjAddr: 0xFF40, symBinAddr: 0x100010CD8, symSize: 0x2C }
  - { offsetInCU: 0x238EE, offset: 0x238EE, size: 0x8, addend: 0x0, symName: __ZNSt3__16vectorI6EstadoNS_9allocatorIS1_EEE17__destruct_at_endB8ue170006EPS1_, symObjAddr: 0x10218, symBinAddr: 0x100010FB0, symSize: 0x4C }
  - { offsetInCU: 0x23932, offset: 0x23932, size: 0x8, addend: 0x0, symName: __ZNKSt3__16vectorI6EstadoNS_9allocatorIS1_EEE17__annotate_shrinkB8ue170006Em, symObjAddr: 0x10264, symBinAddr: 0x100010FFC, symSize: 0xB4 }
  - { offsetInCU: 0x23967, offset: 0x23967, size: 0x8, addend: 0x0, symName: __ZNSt3__16vectorI6EstadoNS_9allocatorIS1_EEE11__make_iterB8ue170006EPS1_, symObjAddr: 0x10318, symBinAddr: 0x1000110B0, symSize: 0x30 }
  - { offsetInCU: 0x2399C, offset: 0x2399C, size: 0x8, addend: 0x0, symName: __ZNSt3__111__wrap_iterIP6EstadoEC1B8ue170006ES2_, symObjAddr: 0x10348, symBinAddr: 0x1000110E0, symSize: 0x34 }
  - { offsetInCU: 0x239D4, offset: 0x239D4, size: 0x8, addend: 0x0, symName: __ZNSt3__111__wrap_iterIP6EstadoEC2B8ue170006ES2_, symObjAddr: 0x1037C, symBinAddr: 0x100011114, symSize: 0x20 }
  - { offsetInCU: 0x23A0C, offset: 0x23A0C, size: 0x8, addend: 0x0, symName: __ZNSt3__16vectorINS0_IiNS_9allocatorIiEEEENS1_IS3_EEED2B8ue170006Ev, symObjAddr: 0x1039C, symBinAddr: 0x100011134, symSize: 0x44 }
  - { offsetInCU: 0x23A36, offset: 0x23A36, size: 0x8, addend: 0x0, symName: __ZNSt3__16vectorINS0_IiNS_9allocatorIiEEEENS1_IS3_EEE16__destroy_vectorC1B8ue170006ERS5_, symObjAddr: 0x103E0, symBinAddr: 0x100011178, symSize: 0x34 }
  - { offsetInCU: 0x23A6F, offset: 0x23A6F, size: 0x8, addend: 0x0, symName: __ZNSt3__16vectorINS0_IiNS_9allocatorIiEEEENS1_IS3_EEE16__destroy_vectorclB8ue170006Ev, symObjAddr: 0x10414, symBinAddr: 0x1000111AC, symSize: 0x90 }
  - { offsetInCU: 0x23A95, offset: 0x23A95, size: 0x8, addend: 0x0, symName: __ZNSt3__16vectorINS0_IiNS_9allocatorIiEEEENS1_IS3_EEE16__destroy_vectorC2B8ue170006ERS5_, symObjAddr: 0x104A4, symBinAddr: 0x10001123C, symSize: 0x20 }
  - { offsetInCU: 0x23ACE, offset: 0x23ACE, size: 0x8, addend: 0x0, symName: __ZNSt3__16vectorINS0_IiNS_9allocatorIiEEEENS1_IS3_EEE7__clearB8ue170006Ev, symObjAddr: 0x104C4, symBinAddr: 0x10001125C, symSize: 0x28 }
  - { offsetInCU: 0x23AF4, offset: 0x23AF4, size: 0x8, addend: 0x0, symName: __ZNKSt3__16vectorINS0_IiNS_9allocatorIiEEEENS1_IS3_EEE17__annotate_deleteB8ue170006Ev, symObjAddr: 0x104EC, symBinAddr: 0x100011284, symSize: 0xD4 }
  - { offsetInCU: 0x23B1A, offset: 0x23B1A, size: 0x8, addend: 0x0, symName: __ZNSt3__116allocator_traitsINS_9allocatorINS_6vectorIiNS1_IiEEEEEEE10deallocateB8ue170006ERS5_PS4_m, symObjAddr: 0x105C0, symBinAddr: 0x100011358, symSize: 0x34 }
  - { offsetInCU: 0x23B5C, offset: 0x23B5C, size: 0x8, addend: 0x0, symName: __ZNSt3__16vectorINS0_IiNS_9allocatorIiEEEENS1_IS3_EEE7__allocB8ue170006Ev, symObjAddr: 0x105F4, symBinAddr: 0x10001138C, symSize: 0x28 }
  - { offsetInCU: 0x23B82, offset: 0x23B82, size: 0x8, addend: 0x0, symName: __ZNKSt3__16vectorINS0_IiNS_9allocatorIiEEEENS1_IS3_EEE8capacityB8ue170006Ev, symObjAddr: 0x1061C, symBinAddr: 0x1000113B4, symSize: 0x40 }
  - { offsetInCU: 0x23BA8, offset: 0x23BA8, size: 0x8, addend: 0x0, symName: __ZNSt3__16vectorINS0_IiNS_9allocatorIiEEEENS1_IS3_EEE22__base_destruct_at_endB8ue170006EPS3_, symObjAddr: 0x1065C, symBinAddr: 0x1000113F4, symSize: 0x8C }
  - { offsetInCU: 0x23BEC, offset: 0x23BEC, size: 0x8, addend: 0x0, symName: __ZNSt3__116allocator_traitsINS_9allocatorINS_6vectorIiNS1_IiEEEEEEE7destroyB8ue170006IS4_vEEvRS5_PT_, symObjAddr: 0x106E8, symBinAddr: 0x100011480, symSize: 0x2C }
  - { offsetInCU: 0x23C29, offset: 0x23C29, size: 0x8, addend: 0x0, symName: __ZNSt3__19allocatorINS_6vectorIiNS0_IiEEEEE7destroyB8ue170006EPS3_, symObjAddr: 0x10728, symBinAddr: 0x1000114C0, symSize: 0x28 }
  - { offsetInCU: 0x23C5D, offset: 0x23C5D, size: 0x8, addend: 0x0, symName: __ZNKSt3__16vectorINS0_IiNS_9allocatorIiEEEENS1_IS3_EEE31__annotate_contiguous_containerB8ue170006EPKvS7_S7_S7_, symObjAddr: 0x10750, symBinAddr: 0x1000114E8, symSize: 0x20 }
  - { offsetInCU: 0x23CB3, offset: 0x23CB3, size: 0x8, addend: 0x0, symName: __ZNKSt3__16vectorINS0_IiNS_9allocatorIiEEEENS1_IS3_EEE4dataB8ue170006Ev, symObjAddr: 0x10770, symBinAddr: 0x100011508, symSize: 0x28 }
  - { offsetInCU: 0x23CD9, offset: 0x23CD9, size: 0x8, addend: 0x0, symName: __ZNSt3__19allocatorINS_6vectorIiNS0_IiEEEEE10deallocateB8ue170006EPS3_m, symObjAddr: 0x10798, symBinAddr: 0x100011530, symSize: 0x44 }
  - { offsetInCU: 0x23D1B, offset: 0x23D1B, size: 0x8, addend: 0x0, symName: __ZNSt3__117__compressed_pairIPNS_6vectorIiNS_9allocatorIiEEEENS2_IS4_EEE6secondB8ue170006Ev, symObjAddr: 0x107DC, symBinAddr: 0x100011574, symSize: 0x24 }
  - { offsetInCU: 0x23D41, offset: 0x23D41, size: 0x8, addend: 0x0, symName: __ZNSt3__122__compressed_pair_elemINS_9allocatorINS_6vectorIiNS1_IiEEEEEELi1ELb1EE5__getB8ue170006Ev, symObjAddr: 0x10800, symBinAddr: 0x100011598, symSize: 0x14 }
  - { offsetInCU: 0x23D67, offset: 0x23D67, size: 0x8, addend: 0x0, symName: __ZNKSt3__16vectorINS0_IiNS_9allocatorIiEEEENS1_IS3_EEE9__end_capB8ue170006Ev, symObjAddr: 0x10814, symBinAddr: 0x1000115AC, symSize: 0x28 }
  - { offsetInCU: 0x23D8D, offset: 0x23D8D, size: 0x8, addend: 0x0, symName: __ZNKSt3__117__compressed_pairIPNS_6vectorIiNS_9allocatorIiEEEENS2_IS4_EEE5firstB8ue170006Ev, symObjAddr: 0x1083C, symBinAddr: 0x1000115D4, symSize: 0x24 }
  - { offsetInCU: 0x23DB3, offset: 0x23DB3, size: 0x8, addend: 0x0, symName: __ZNKSt3__122__compressed_pair_elemIPNS_6vectorIiNS_9allocatorIiEEEELi0ELb0EE5__getB8ue170006Ev, symObjAddr: 0x10860, symBinAddr: 0x1000115F8, symSize: 0x14 }
  - { offsetInCU: 0x23DD9, offset: 0x23DD9, size: 0x8, addend: 0x0, symName: __ZNSt3__16vectorINS0_IiNS_9allocatorIiEEEENS1_IS3_EEEC2B8ue170006ESt16initializer_listIS3_E, symObjAddr: 0x10874, symBinAddr: 0x10001160C, symSize: 0x120 }
  - { offsetInCU: 0x23E29, offset: 0x23E29, size: 0x8, addend: 0x0, symName: __ZNSt3__117__compressed_pairIPNS_6vectorIiNS_9allocatorIiEEEENS2_IS4_EEEC1B8ue170006IDnNS_18__default_init_tagEEEOT_OT0_, symObjAddr: 0x10994, symBinAddr: 0x10001172C, symSize: 0x3C }
  - { offsetInCU: 0x23E81, offset: 0x23E81, size: 0x8, addend: 0x0, symName: __ZNKSt16initializer_listINSt3__16vectorIiNS0_9allocatorIiEEEEE4sizeB8ue170006Ev, symObjAddr: 0x10A10, symBinAddr: 0x1000117A8, symSize: 0x18 }
  - { offsetInCU: 0x23EA7, offset: 0x23EA7, size: 0x8, addend: 0x0, symName: __ZNSt3__16vectorINS0_IiNS_9allocatorIiEEEENS1_IS3_EEE11__vallocateB8ue170006Em, symObjAddr: 0x10A28, symBinAddr: 0x1000117C0, symSize: 0xB4 }
  - { offsetInCU: 0x23EEB, offset: 0x23EEB, size: 0x8, addend: 0x0, symName: __ZNSt3__16vectorINS0_IiNS_9allocatorIiEEEENS1_IS3_EEE18__construct_at_endIPKS3_S8_EEvT_T0_m, symObjAddr: 0x10ADC, symBinAddr: 0x100011874, symSize: 0x8C }
  - { offsetInCU: 0x23F61, offset: 0x23F61, size: 0x8, addend: 0x0, symName: __ZNKSt16initializer_listINSt3__16vectorIiNS0_9allocatorIiEEEEE5beginB8ue170006Ev, symObjAddr: 0x10B68, symBinAddr: 0x100011900, symSize: 0x18 }
  - { offsetInCU: 0x23F87, offset: 0x23F87, size: 0x8, addend: 0x0, symName: __ZNKSt16initializer_listINSt3__16vectorIiNS0_9allocatorIiEEEEE3endB8ue170006Ev, symObjAddr: 0x10B80, symBinAddr: 0x100011918, symSize: 0x28 }
  - { offsetInCU: 0x23FAD, offset: 0x23FAD, size: 0x8, addend: 0x0, symName: __ZNSt3__128__exception_guard_exceptionsINS_6vectorINS1_IiNS_9allocatorIiEEEENS2_IS4_EEE16__destroy_vectorEE10__completeB8ue170006Ev, symObjAddr: 0x10BA8, symBinAddr: 0x100011940, symSize: 0x1C }
  - { offsetInCU: 0x23FD3, offset: 0x23FD3, size: 0x8, addend: 0x0, symName: __ZNSt3__128__exception_guard_exceptionsINS_6vectorINS1_IiNS_9allocatorIiEEEENS2_IS4_EEE16__destroy_vectorEED1B8ue170006Ev, symObjAddr: 0x10BC4, symBinAddr: 0x10001195C, symSize: 0x2C }
  - { offsetInCU: 0x23FFD, offset: 0x23FFD, size: 0x8, addend: 0x0, symName: __ZNSt3__117__compressed_pairIPNS_6vectorIiNS_9allocatorIiEEEENS2_IS4_EEEC2B8ue170006IDnNS_18__default_init_tagEEEOT_OT0_, symObjAddr: 0x10BF0, symBinAddr: 0x100011988, symSize: 0x40 }
  - { offsetInCU: 0x24055, offset: 0x24055, size: 0x8, addend: 0x0, symName: __ZNSt3__122__compressed_pair_elemIPNS_6vectorIiNS_9allocatorIiEEEELi0ELb0EEC2B8ue170006IDnvEEOT_, symObjAddr: 0x10C30, symBinAddr: 0x1000119C8, symSize: 0x1C }
  - { offsetInCU: 0x24097, offset: 0x24097, size: 0x8, addend: 0x0, symName: __ZNSt3__122__compressed_pair_elemINS_9allocatorINS_6vectorIiNS1_IiEEEEEELi1ELb1EEC2B8ue170006ENS_18__default_init_tagE, symObjAddr: 0x10C4C, symBinAddr: 0x1000119E4, symSize: 0x2C }
  - { offsetInCU: 0x240CB, offset: 0x240CB, size: 0x8, addend: 0x0, symName: __ZNSt3__19allocatorINS_6vectorIiNS0_IiEEEEEC2B8ue170006Ev, symObjAddr: 0x10C78, symBinAddr: 0x100011A10, symSize: 0x2C }
  - { offsetInCU: 0x240F5, offset: 0x240F5, size: 0x8, addend: 0x0, symName: __ZNSt3__116__non_trivial_ifILb1ENS_9allocatorINS_6vectorIiNS1_IiEEEEEEEC2B8ue170006Ev, symObjAddr: 0x10CA4, symBinAddr: 0x100011A3C, symSize: 0x14 }
  - { offsetInCU: 0x2411F, offset: 0x2411F, size: 0x8, addend: 0x0, symName: __ZNSt3__128__exception_guard_exceptionsINS_6vectorINS1_IiNS_9allocatorIiEEEENS2_IS4_EEE16__destroy_vectorEEC1B8ue170006ES7_, symObjAddr: 0x10CB8, symBinAddr: 0x100011A50, symSize: 0x34 }
  - { offsetInCU: 0x24157, offset: 0x24157, size: 0x8, addend: 0x0, symName: __ZNSt3__128__exception_guard_exceptionsINS_6vectorINS1_IiNS_9allocatorIiEEEENS2_IS4_EEE16__destroy_vectorEEC2B8ue170006ES7_, symObjAddr: 0x10CEC, symBinAddr: 0x100011A84, symSize: 0x24 }
  - { offsetInCU: 0x2418F, offset: 0x2418F, size: 0x8, addend: 0x0, symName: __ZNKSt3__16vectorINS0_IiNS_9allocatorIiEEEENS1_IS3_EEE8max_sizeEv, symObjAddr: 0x10D10, symBinAddr: 0x100011AA8, symSize: 0x60 }
  - { offsetInCU: 0x241B7, offset: 0x241B7, size: 0x8, addend: 0x0, symName: __ZNKSt3__16vectorINS0_IiNS_9allocatorIiEEEENS1_IS3_EEE20__throw_length_errorB8ue170006Ev, symObjAddr: 0x10D70, symBinAddr: 0x100011B08, symSize: 0x1C }
  - { offsetInCU: 0x241DD, offset: 0x241DD, size: 0x8, addend: 0x0, symName: __ZNSt3__16vectorINS0_IiNS_9allocatorIiEEEENS1_IS3_EEE9__end_capB8ue170006Ev, symObjAddr: 0x10DCC, symBinAddr: 0x100011B64, symSize: 0x28 }
  - { offsetInCU: 0x24203, offset: 0x24203, size: 0x8, addend: 0x0, symName: __ZNKSt3__16vectorINS0_IiNS_9allocatorIiEEEENS1_IS3_EEE14__annotate_newB8ue170006Em, symObjAddr: 0x10DF4, symBinAddr: 0x100011B8C, symSize: 0xC8 }
  - { offsetInCU: 0x24243, offset: 0x24243, size: 0x8, addend: 0x0, symName: __ZNSt3__116allocator_traitsINS_9allocatorINS_6vectorIiNS1_IiEEEEEEE8max_sizeB8ue170006IS5_vEEmRKS5_, symObjAddr: 0x10EBC, symBinAddr: 0x100011C54, symSize: 0x24 }
  - { offsetInCU: 0x24271, offset: 0x24271, size: 0x8, addend: 0x0, symName: __ZNKSt3__16vectorINS0_IiNS_9allocatorIiEEEENS1_IS3_EEE7__allocB8ue170006Ev, symObjAddr: 0x10EE0, symBinAddr: 0x100011C78, symSize: 0x28 }
  - { offsetInCU: 0x24297, offset: 0x24297, size: 0x8, addend: 0x0, symName: __ZNKSt3__19allocatorINS_6vectorIiNS0_IiEEEEE8max_sizeB8ue170006Ev, symObjAddr: 0x10F08, symBinAddr: 0x100011CA0, symSize: 0x18 }
  - { offsetInCU: 0x242BD, offset: 0x242BD, size: 0x8, addend: 0x0, symName: __ZNKSt3__117__compressed_pairIPNS_6vectorIiNS_9allocatorIiEEEENS2_IS4_EEE6secondB8ue170006Ev, symObjAddr: 0x10F20, symBinAddr: 0x100011CB8, symSize: 0x24 }
  - { offsetInCU: 0x242E3, offset: 0x242E3, size: 0x8, addend: 0x0, symName: __ZNKSt3__122__compressed_pair_elemINS_9allocatorINS_6vectorIiNS1_IiEEEEEELi1ELb1EE5__getB8ue170006Ev, symObjAddr: 0x10F44, symBinAddr: 0x100011CDC, symSize: 0x14 }
  - { offsetInCU: 0x24309, offset: 0x24309, size: 0x8, addend: 0x0, symName: __ZNSt3__19allocatorINS_6vectorIiNS0_IiEEEEE8allocateB8ue170006Em, symObjAddr: 0x10F58, symBinAddr: 0x100011CF0, symSize: 0x5C }
  - { offsetInCU: 0x2433D, offset: 0x2433D, size: 0x8, addend: 0x0, symName: __ZNSt3__117__compressed_pairIPNS_6vectorIiNS_9allocatorIiEEEENS2_IS4_EEE5firstB8ue170006Ev, symObjAddr: 0x10FB4, symBinAddr: 0x100011D4C, symSize: 0x24 }
  - { offsetInCU: 0x24363, offset: 0x24363, size: 0x8, addend: 0x0, symName: __ZNSt3__122__compressed_pair_elemIPNS_6vectorIiNS_9allocatorIiEEEELi0ELb0EE5__getB8ue170006Ev, symObjAddr: 0x10FD8, symBinAddr: 0x100011D70, symSize: 0x14 }
  - { offsetInCU: 0x243A5, offset: 0x243A5, size: 0x8, addend: 0x0, symName: __ZNSt3__16vectorINS0_IiNS_9allocatorIiEEEENS1_IS3_EEE21_ConstructTransactionC1B8ue170006ERS5_m, symObjAddr: 0x10FEC, symBinAddr: 0x100011D84, symSize: 0x3C }
  - { offsetInCU: 0x243ED, offset: 0x243ED, size: 0x8, addend: 0x0, symName: __ZNSt3__16vectorINS0_IiNS_9allocatorIiEEEENS1_IS3_EEE21_ConstructTransactionD1B8ue170006Ev, symObjAddr: 0x110A8, symBinAddr: 0x100011E40, symSize: 0x2C }
  - { offsetInCU: 0x24417, offset: 0x24417, size: 0x8, addend: 0x0, symName: __ZNSt3__16vectorINS0_IiNS_9allocatorIiEEEENS1_IS3_EEE21_ConstructTransactionC2B8ue170006ERS5_m, symObjAddr: 0x110D4, symBinAddr: 0x100011E6C, symSize: 0x4C }
  - { offsetInCU: 0x24482, offset: 0x24482, size: 0x8, addend: 0x0, symName: __ZNSt3__14pairIPKNS_6vectorIiNS_9allocatorIiEEEES6_EC1B8ue170006IS6_S6_LPv0EEEOT_OT0_, symObjAddr: 0x11330, symBinAddr: 0x1000120C8, symSize: 0x3C }
  - { offsetInCU: 0x244E0, offset: 0x244E0, size: 0x8, addend: 0x0, symName: __ZNSt3__14pairIPKNS_6vectorIiNS_9allocatorIiEEEES6_EC2B8ue170006IS6_S6_LPv0EEEOT_OT0_, symObjAddr: 0x1136C, symBinAddr: 0x100012104, symSize: 0x34 }
  - { offsetInCU: 0x2453E, offset: 0x2453E, size: 0x8, addend: 0x0, symName: __ZNSt3__118__unwrap_iter_implIPKNS_6vectorIiNS_9allocatorIiEEEELb1EE8__unwrapB8ue170006ES6_, symObjAddr: 0x113A0, symBinAddr: 0x100012138, symSize: 0x24 }
  - { offsetInCU: 0x24561, offset: 0x24561, size: 0x8, addend: 0x0, symName: __ZNSt3__129_AllocatorDestroyRangeReverseINS_9allocatorINS_6vectorIiNS1_IiEEEEEEPS4_EC1B8ue170006ERS5_RS6_S9_, symObjAddr: 0x11424, symBinAddr: 0x1000121BC, symSize: 0x44 }
  - { offsetInCU: 0x245B8, offset: 0x245B8, size: 0x8, addend: 0x0, symName: __ZNSt3__116allocator_traitsINS_9allocatorINS_6vectorIiNS1_IiEEEEEEE9constructB8ue170006IS4_JRKS4_EvEEvRS5_PT_DpOT0_, symObjAddr: 0x11468, symBinAddr: 0x100012200, symSize: 0x34 }
  - { offsetInCU: 0x2460F, offset: 0x2460F, size: 0x8, addend: 0x0, symName: __ZNSt3__128__exception_guard_exceptionsINS_29_AllocatorDestroyRangeReverseINS_9allocatorINS_6vectorIiNS2_IiEEEEEEPS5_EEE10__completeB8ue170006Ev, symObjAddr: 0x1149C, symBinAddr: 0x100012234, symSize: 0x1C }
  - { offsetInCU: 0x24635, offset: 0x24635, size: 0x8, addend: 0x0, symName: __ZNSt3__128__exception_guard_exceptionsINS_29_AllocatorDestroyRangeReverseINS_9allocatorINS_6vectorIiNS2_IiEEEEEEPS5_EEED1B8ue170006Ev, symObjAddr: 0x114B8, symBinAddr: 0x100012250, symSize: 0x2C }
  - { offsetInCU: 0x2465F, offset: 0x2465F, size: 0x8, addend: 0x0, symName: __ZNSt3__128__exception_guard_exceptionsINS_29_AllocatorDestroyRangeReverseINS_9allocatorINS_6vectorIiNS2_IiEEEEEEPS5_EEEC1B8ue170006ES8_, symObjAddr: 0x114E4, symBinAddr: 0x10001227C, symSize: 0x34 }
  - { offsetInCU: 0x24698, offset: 0x24698, size: 0x8, addend: 0x0, symName: __ZNSt3__128__exception_guard_exceptionsINS_29_AllocatorDestroyRangeReverseINS_9allocatorINS_6vectorIiNS2_IiEEEEEEPS5_EEEC2B8ue170006ES8_, symObjAddr: 0x11518, symBinAddr: 0x1000122B0, symSize: 0x30 }
  - { offsetInCU: 0x246D1, offset: 0x246D1, size: 0x8, addend: 0x0, symName: __ZNSt3__129_AllocatorDestroyRangeReverseINS_9allocatorINS_6vectorIiNS1_IiEEEEEEPS4_EC2B8ue170006ERS5_RS6_S9_, symObjAddr: 0x11548, symBinAddr: 0x1000122E0, symSize: 0x38 }
  - { offsetInCU: 0x24728, offset: 0x24728, size: 0x8, addend: 0x0, symName: __ZNSt3__19allocatorINS_6vectorIiNS0_IiEEEEE9constructB8ue170006IS3_JRKS3_EEEvPT_DpOT0_, symObjAddr: 0x11580, symBinAddr: 0x100012318, symSize: 0x30 }
  - { offsetInCU: 0x2477E, offset: 0x2477E, size: 0x8, addend: 0x0, symName: __ZNSt3__16vectorIiNS_9allocatorIiEEEC1ERKS3_, symObjAddr: 0x115B0, symBinAddr: 0x100012348, symSize: 0x34 }
  - { offsetInCU: 0x247B9, offset: 0x247B9, size: 0x8, addend: 0x0, symName: __ZNSt3__16vectorIiNS_9allocatorIiEEEC2ERKS3_, symObjAddr: 0x115E4, symBinAddr: 0x10001237C, symSize: 0x94 }
  - { offsetInCU: 0x247F4, offset: 0x247F4, size: 0x8, addend: 0x0, symName: __ZNSt3__116allocator_traitsINS_9allocatorIiEEE37select_on_container_copy_constructionB8ue170006IS2_vvEES2_RKS2_, symObjAddr: 0x11678, symBinAddr: 0x100012410, symSize: 0x10 }
  - { offsetInCU: 0x24829, offset: 0x24829, size: 0x8, addend: 0x0, symName: __ZNSt3__117__compressed_pairIPiNS_9allocatorIiEEEC1B8ue170006IDnS3_EEOT_OT0_, symObjAddr: 0x11688, symBinAddr: 0x100012420, symSize: 0x3C }
  - { offsetInCU: 0x24881, offset: 0x24881, size: 0x8, addend: 0x0, symName: __ZNSt3__16vectorIiNS_9allocatorIiEEE16__init_with_sizeB8ue170006IPiS5_EEvT_T0_m, symObjAddr: 0x116C4, symBinAddr: 0x10001245C, symSize: 0xB8 }
  - { offsetInCU: 0x248F5, offset: 0x248F5, size: 0x8, addend: 0x0, symName: __ZNSt3__117__compressed_pairIPiNS_9allocatorIiEEEC2B8ue170006IDnS3_EEOT_OT0_, symObjAddr: 0x1177C, symBinAddr: 0x100012514, symSize: 0x44 }
  - { offsetInCU: 0x2494D, offset: 0x2494D, size: 0x8, addend: 0x0, symName: __ZNSt3__122__compressed_pair_elemINS_9allocatorIiEELi1ELb1EEC2B8ue170006IS2_vEEOT_, symObjAddr: 0x117C0, symBinAddr: 0x100012558, symSize: 0x18 }
  - { offsetInCU: 0x2498F, offset: 0x2498F, size: 0x8, addend: 0x0, symName: __ZNSt3__16vectorIiNS_9allocatorIiEEE18__construct_at_endIPiS5_EEvT_T0_m, symObjAddr: 0x117D8, symBinAddr: 0x100012570, symSize: 0x8C }
  - { offsetInCU: 0x24A22, offset: 0x24A22, size: 0x8, addend: 0x0, symName: __ZNSt3__14pairIPiS1_EC1B8ue170006IS1_S1_LPv0EEEOT_OT0_, symObjAddr: 0x119B4, symBinAddr: 0x10001274C, symSize: 0x3C }
  - { offsetInCU: 0x24A80, offset: 0x24A80, size: 0x8, addend: 0x0, symName: __ZNSt3__14pairIPiS1_EC2B8ue170006IS1_S1_LPv0EEEOT_OT0_, symObjAddr: 0x119F0, symBinAddr: 0x100012788, symSize: 0x34 }
  - { offsetInCU: 0x24ADE, offset: 0x24ADE, size: 0x8, addend: 0x0, symName: __ZNKSt3__114__copy_trivialclB8ue170006IiiLi0EEENS_4pairIPT_PT0_EES4_S4_S6_, symObjAddr: 0x11BA0, symBinAddr: 0x100012938, symSize: 0x48 }
  - { offsetInCU: 0x24B46, offset: 0x24B46, size: 0x8, addend: 0x0, symName: __ZNSt3__14pairIPiS1_EC1B8ue170006IRS1_S1_LPv0EEEOT_OT0_, symObjAddr: 0x11D30, symBinAddr: 0x100012AC8, symSize: 0x3C }
  - { offsetInCU: 0x24BA4, offset: 0x24BA4, size: 0x8, addend: 0x0, symName: __ZNSt3__14pairIPiS1_EC2B8ue170006IRS1_S1_LPv0EEEOT_OT0_, symObjAddr: 0x11D6C, symBinAddr: 0x100012B04, symSize: 0x34 }
  - { offsetInCU: 0x24C02, offset: 0x24C02, size: 0x8, addend: 0x0, symName: __ZNSt3__128__exception_guard_exceptionsINS_29_AllocatorDestroyRangeReverseINS_9allocatorINS_6vectorIiNS2_IiEEEEEEPS5_EEED2B8ue170006Ev, symObjAddr: 0x11DA0, symBinAddr: 0x100012B38, symSize: 0x50 }
  - { offsetInCU: 0x24C2C, offset: 0x24C2C, size: 0x8, addend: 0x0, symName: __ZNKSt3__129_AllocatorDestroyRangeReverseINS_9allocatorINS_6vectorIiNS1_IiEEEEEEPS4_EclB8ue170006Ev, symObjAddr: 0x11DF0, symBinAddr: 0x100012B88, symSize: 0x68 }
  - { offsetInCU: 0x24C52, offset: 0x24C52, size: 0x8, addend: 0x0, symName: __ZNSt3__116reverse_iteratorIPNS_6vectorIiNS_9allocatorIiEEEEEC1B8ue170006ES5_, symObjAddr: 0x11EC8, symBinAddr: 0x100012C60, symSize: 0x34 }
  - { offsetInCU: 0x24C8A, offset: 0x24C8A, size: 0x8, addend: 0x0, symName: __ZNSt3__116reverse_iteratorIPNS_6vectorIiNS_9allocatorIiEEEEEppB8ue170006Ev, symObjAddr: 0x11F68, symBinAddr: 0x100012D00, symSize: 0x20 }
  - { offsetInCU: 0x24CB0, offset: 0x24CB0, size: 0x8, addend: 0x0, symName: __ZNKSt3__116reverse_iteratorIPNS_6vectorIiNS_9allocatorIiEEEEE4baseB8ue170006Ev, symObjAddr: 0x11F88, symBinAddr: 0x100012D20, symSize: 0x18 }
  - { offsetInCU: 0x24CDC, offset: 0x24CDC, size: 0x8, addend: 0x0, symName: __ZNSt3__119__to_address_helperINS_16reverse_iteratorIPNS_6vectorIiNS_9allocatorIiEEEEEEvE6__callB8ue170006ERKS7_, symObjAddr: 0x11FA0, symBinAddr: 0x100012D38, symSize: 0x38 }
  - { offsetInCU: 0x24CFF, offset: 0x24CFF, size: 0x8, addend: 0x0, symName: __ZNKSt3__116reverse_iteratorIPNS_6vectorIiNS_9allocatorIiEEEEEptB8ue170006Ev, symObjAddr: 0x11FD8, symBinAddr: 0x100012D70, symSize: 0x24 }
  - { offsetInCU: 0x24D25, offset: 0x24D25, size: 0x8, addend: 0x0, symName: __ZNKSt3__116reverse_iteratorIPNS_6vectorIiNS_9allocatorIiEEEEEdeB8ue170006Ev, symObjAddr: 0x11FFC, symBinAddr: 0x100012D94, symSize: 0x28 }
  - { offsetInCU: 0x24D59, offset: 0x24D59, size: 0x8, addend: 0x0, symName: __ZNSt3__116reverse_iteratorIPNS_6vectorIiNS_9allocatorIiEEEEEC2B8ue170006ES5_, symObjAddr: 0x12024, symBinAddr: 0x100012DBC, symSize: 0x28 }
  - { offsetInCU: 0x24D91, offset: 0x24D91, size: 0x8, addend: 0x0, symName: __ZNSt3__118__unwrap_iter_implIPNS_6vectorIiNS_9allocatorIiEEEELb1EE8__unwrapB8ue170006ES5_, symObjAddr: 0x1204C, symBinAddr: 0x100012DE4, symSize: 0x24 }
  - { offsetInCU: 0x24DB4, offset: 0x24DB4, size: 0x8, addend: 0x0, symName: __ZNSt3__118__unwrap_iter_implIPNS_6vectorIiNS_9allocatorIiEEEELb1EE8__rewrapB8ue170006ES5_S5_, symObjAddr: 0x12070, symBinAddr: 0x100012E08, symSize: 0x58 }
  - { offsetInCU: 0x24DE5, offset: 0x24DE5, size: 0x8, addend: 0x0, symName: __ZNSt3__16vectorINS0_IiNS_9allocatorIiEEEENS1_IS3_EEE21_ConstructTransactionD2B8ue170006Ev, symObjAddr: 0x120C8, symBinAddr: 0x100012E60, symSize: 0x20 }
  - { offsetInCU: 0x24E0F, offset: 0x24E0F, size: 0x8, addend: 0x0, symName: __ZNSt3__128__exception_guard_exceptionsINS_6vectorINS1_IiNS_9allocatorIiEEEENS2_IS4_EEE16__destroy_vectorEED2B8ue170006Ev, symObjAddr: 0x120E8, symBinAddr: 0x100012E80, symSize: 0x48 }
  - { offsetInCU: 0x24E39, offset: 0x24E39, size: 0x8, addend: 0x0, symName: __ZNSt3__15tupleIJiNS_6vectorINS1_IiNS_9allocatorIiEEEENS2_IS4_EEEEiiiEEC2B8ue170006INS_4_AndELi0EEERKiRKS6_SB_SB_SB_, symObjAddr: 0x12130, symBinAddr: 0x100012EC8, symSize: 0x54 }
  - { offsetInCU: 0x24EBD, offset: 0x24EBD, size: 0x8, addend: 0x0, symName: __ZNSt3__112__tuple_implINS_15__tuple_indicesIJLm0ELm1ELm2ELm3ELm4EEEEJiNS_6vectorINS3_IiNS_9allocatorIiEEEENS4_IS6_EEEEiiiEEC1B8ue170006IJLm0ELm1ELm2ELm3ELm4EEJiS8_iiiEJEJEJRKiRKS8_SC_SC_SC_EEENS1_IJXspT_EEEENS_13__tuple_typesIJDpT0_EEENS1_IJXspT1_EEEENSG_IJDpT2_EEEDpOT3_, symObjAddr: 0x12184, symBinAddr: 0x100012F1C, symSize: 0x54 }
  - { offsetInCU: 0x24FCE, offset: 0x24FCE, size: 0x8, addend: 0x0, symName: __ZNSt3__112__tuple_implINS_15__tuple_indicesIJLm0ELm1ELm2ELm3ELm4EEEEJiNS_6vectorINS3_IiNS_9allocatorIiEEEENS4_IS6_EEEEiiiEEC2B8ue170006IJLm0ELm1ELm2ELm3ELm4EEJiS8_iiiEJEJEJRKiRKS8_SC_SC_SC_EEENS1_IJXspT_EEEENS_13__tuple_typesIJDpT0_EEENS1_IJXspT1_EEEENSG_IJDpT2_EEEDpOT3_, symObjAddr: 0x121D8, symBinAddr: 0x100012F70, symSize: 0x84 }
  - { offsetInCU: 0x250DF, offset: 0x250DF, size: 0x8, addend: 0x0, symName: __ZNSt3__112__tuple_leafILm0EiLb0EEC2B8ue170006IRKivEEOT_, symObjAddr: 0x1225C, symBinAddr: 0x100012FF4, symSize: 0x24 }
  - { offsetInCU: 0x25122, offset: 0x25122, size: 0x8, addend: 0x0, symName: __ZNSt3__112__tuple_leafILm1ENS_6vectorINS1_IiNS_9allocatorIiEEEENS2_IS4_EEEELb0EEC2B8ue170006IRKS6_vEEOT_, symObjAddr: 0x12280, symBinAddr: 0x100013018, symSize: 0x34 }
  - { offsetInCU: 0x25165, offset: 0x25165, size: 0x8, addend: 0x0, symName: __ZNSt3__112__tuple_leafILm2EiLb0EEC2B8ue170006IRKivEEOT_, symObjAddr: 0x122B4, symBinAddr: 0x10001304C, symSize: 0x24 }
  - { offsetInCU: 0x251A8, offset: 0x251A8, size: 0x8, addend: 0x0, symName: __ZNSt3__112__tuple_leafILm3EiLb0EEC2B8ue170006IRKivEEOT_, symObjAddr: 0x122D8, symBinAddr: 0x100013070, symSize: 0x24 }
  - { offsetInCU: 0x251EB, offset: 0x251EB, size: 0x8, addend: 0x0, symName: __ZNSt3__112__tuple_leafILm4EiLb0EEC2B8ue170006IRKivEEOT_, symObjAddr: 0x122FC, symBinAddr: 0x100013094, symSize: 0x24 }
  - { offsetInCU: 0x2522E, offset: 0x2522E, size: 0x8, addend: 0x0, symName: __ZNSt3__16vectorINS0_IiNS_9allocatorIiEEEENS1_IS3_EEEC1ERKS5_, symObjAddr: 0x12320, symBinAddr: 0x1000130B8, symSize: 0x34 }
  - { offsetInCU: 0x25269, offset: 0x25269, size: 0x8, addend: 0x0, symName: __ZNSt3__16vectorINS0_IiNS_9allocatorIiEEEENS1_IS3_EEEC2ERKS5_, symObjAddr: 0x12354, symBinAddr: 0x1000130EC, symSize: 0x94 }
  - { offsetInCU: 0x252A4, offset: 0x252A4, size: 0x8, addend: 0x0, symName: __ZNSt3__116allocator_traitsINS_9allocatorINS_6vectorIiNS1_IiEEEEEEE37select_on_container_copy_constructionB8ue170006IS5_vvEES5_RKS5_, symObjAddr: 0x123E8, symBinAddr: 0x100013180, symSize: 0x10 }
  - { offsetInCU: 0x252D9, offset: 0x252D9, size: 0x8, addend: 0x0, symName: __ZNSt3__117__compressed_pairIPNS_6vectorIiNS_9allocatorIiEEEENS2_IS4_EEEC1B8ue170006IDnS6_EEOT_OT0_, symObjAddr: 0x123F8, symBinAddr: 0x100013190, symSize: 0x3C }
  - { offsetInCU: 0x25331, offset: 0x25331, size: 0x8, addend: 0x0, symName: __ZNSt3__16vectorINS0_IiNS_9allocatorIiEEEENS1_IS3_EEE16__init_with_sizeB8ue170006IPS3_S7_EEvT_T0_m, symObjAddr: 0x12434, symBinAddr: 0x1000131CC, symSize: 0xB8 }
  - { offsetInCU: 0x253A5, offset: 0x253A5, size: 0x8, addend: 0x0, symName: __ZNSt3__117__compressed_pairIPNS_6vectorIiNS_9allocatorIiEEEENS2_IS4_EEEC2B8ue170006IDnS6_EEOT_OT0_, symObjAddr: 0x124EC, symBinAddr: 0x100013284, symSize: 0x44 }
  - { offsetInCU: 0x253FD, offset: 0x253FD, size: 0x8, addend: 0x0, symName: __ZNSt3__122__compressed_pair_elemINS_9allocatorINS_6vectorIiNS1_IiEEEEEELi1ELb1EEC2B8ue170006IS5_vEEOT_, symObjAddr: 0x12530, symBinAddr: 0x1000132C8, symSize: 0x18 }
  - { offsetInCU: 0x2543F, offset: 0x2543F, size: 0x8, addend: 0x0, symName: __ZNSt3__16vectorINS0_IiNS_9allocatorIiEEEENS1_IS3_EEE18__construct_at_endIPS3_S7_EEvT_T0_m, symObjAddr: 0x12548, symBinAddr: 0x1000132E0, symSize: 0x8C }
  - { offsetInCU: 0x254D8, offset: 0x254D8, size: 0x8, addend: 0x0, symName: __ZNSt3__14pairIPNS_6vectorIiNS_9allocatorIiEEEES5_EC1B8ue170006IS5_S5_LPv0EEEOT_OT0_, symObjAddr: 0x127E0, symBinAddr: 0x100013578, symSize: 0x3C }
  - { offsetInCU: 0x25536, offset: 0x25536, size: 0x8, addend: 0x0, symName: __ZNSt3__14pairIPNS_6vectorIiNS_9allocatorIiEEEES5_EC2B8ue170006IS5_S5_LPv0EEEOT_OT0_, symObjAddr: 0x1281C, symBinAddr: 0x1000135B4, symSize: 0x34 }
  - { offsetInCU: 0x25594, offset: 0x25594, size: 0x8, addend: 0x0, symName: __ZNSt3__116allocator_traitsINS_9allocatorINS_6vectorIiNS1_IiEEEEEEE9constructB8ue170006IS4_JRS4_EvEEvRS5_PT_DpOT0_, symObjAddr: 0x12850, symBinAddr: 0x1000135E8, symSize: 0x34 }
  - { offsetInCU: 0x255EB, offset: 0x255EB, size: 0x8, addend: 0x0, symName: __ZNSt3__19allocatorINS_6vectorIiNS0_IiEEEEE9constructB8ue170006IS3_JRS3_EEEvPT_DpOT0_, symObjAddr: 0x12884, symBinAddr: 0x10001361C, symSize: 0x30 }
  - { offsetInCU: 0x25641, offset: 0x25641, size: 0x8, addend: 0x0, symName: __ZNSt3__16vectorINS_5tupleIJiNS0_INS0_IiNS_9allocatorIiEEEENS2_IS4_EEEEiiiEEENS2_IS7_EEEC2B8ue170006ESt16initializer_listIS7_E, symObjAddr: 0x128B4, symBinAddr: 0x10001364C, symSize: 0x120 }
  - { offsetInCU: 0x25691, offset: 0x25691, size: 0x8, addend: 0x0, symName: __ZNSt3__117__compressed_pairIPNS_5tupleIJiNS_6vectorINS2_IiNS_9allocatorIiEEEENS3_IS5_EEEEiiiEEENS3_IS8_EEEC1B8ue170006IDnNS_18__default_init_tagEEEOT_OT0_, symObjAddr: 0x129D4, symBinAddr: 0x10001376C, symSize: 0x3C }
  - { offsetInCU: 0x256E9, offset: 0x256E9, size: 0x8, addend: 0x0, symName: __ZNSt3__16vectorINS_5tupleIJiNS0_INS0_IiNS_9allocatorIiEEEENS2_IS4_EEEEiiiEEENS2_IS7_EEE16__destroy_vectorC1B8ue170006ERS9_, symObjAddr: 0x12A50, symBinAddr: 0x1000137E8, symSize: 0x34 }
  - { offsetInCU: 0x25722, offset: 0x25722, size: 0x8, addend: 0x0, symName: __ZNKSt16initializer_listINSt3__15tupleIJiNS0_6vectorINS2_IiNS0_9allocatorIiEEEENS3_IS5_EEEEiiiEEEE4sizeB8ue170006Ev, symObjAddr: 0x12A84, symBinAddr: 0x10001381C, symSize: 0x18 }
  - { offsetInCU: 0x25748, offset: 0x25748, size: 0x8, addend: 0x0, symName: __ZNSt3__16vectorINS_5tupleIJiNS0_INS0_IiNS_9allocatorIiEEEENS2_IS4_EEEEiiiEEENS2_IS7_EEE11__vallocateB8ue170006Em, symObjAddr: 0x12A9C, symBinAddr: 0x100013834, symSize: 0xB4 }
  - { offsetInCU: 0x2578C, offset: 0x2578C, size: 0x8, addend: 0x0, symName: __ZNSt3__16vectorINS_5tupleIJiNS0_INS0_IiNS_9allocatorIiEEEENS2_IS4_EEEEiiiEEENS2_IS7_EEE18__construct_at_endIPKS7_SC_EEvT_T0_m, symObjAddr: 0x12B50, symBinAddr: 0x1000138E8, symSize: 0x8C }
  - { offsetInCU: 0x25802, offset: 0x25802, size: 0x8, addend: 0x0, symName: __ZNKSt16initializer_listINSt3__15tupleIJiNS0_6vectorINS2_IiNS0_9allocatorIiEEEENS3_IS5_EEEEiiiEEEE5beginB8ue170006Ev, symObjAddr: 0x12BDC, symBinAddr: 0x100013974, symSize: 0x18 }
  - { offsetInCU: 0x25828, offset: 0x25828, size: 0x8, addend: 0x0, symName: __ZNKSt16initializer_listINSt3__15tupleIJiNS0_6vectorINS2_IiNS0_9allocatorIiEEEENS3_IS5_EEEEiiiEEEE3endB8ue170006Ev, symObjAddr: 0x12BF4, symBinAddr: 0x10001398C, symSize: 0x28 }
  - { offsetInCU: 0x2584E, offset: 0x2584E, size: 0x8, addend: 0x0, symName: __ZNSt3__128__exception_guard_exceptionsINS_6vectorINS_5tupleIJiNS1_INS1_IiNS_9allocatorIiEEEENS3_IS5_EEEEiiiEEENS3_IS8_EEE16__destroy_vectorEE10__completeB8ue170006Ev, symObjAddr: 0x12C1C, symBinAddr: 0x1000139B4, symSize: 0x1C }
  - { offsetInCU: 0x25874, offset: 0x25874, size: 0x8, addend: 0x0, symName: __ZNSt3__128__exception_guard_exceptionsINS_6vectorINS_5tupleIJiNS1_INS1_IiNS_9allocatorIiEEEENS3_IS5_EEEEiiiEEENS3_IS8_EEE16__destroy_vectorEED1B8ue170006Ev, symObjAddr: 0x12C38, symBinAddr: 0x1000139D0, symSize: 0x2C }
  - { offsetInCU: 0x2589E, offset: 0x2589E, size: 0x8, addend: 0x0, symName: __ZNSt3__117__compressed_pairIPNS_5tupleIJiNS_6vectorINS2_IiNS_9allocatorIiEEEENS3_IS5_EEEEiiiEEENS3_IS8_EEEC2B8ue170006IDnNS_18__default_init_tagEEEOT_OT0_, symObjAddr: 0x12C64, symBinAddr: 0x1000139FC, symSize: 0x40 }
  - { offsetInCU: 0x258F6, offset: 0x258F6, size: 0x8, addend: 0x0, symName: __ZNSt3__122__compressed_pair_elemIPNS_5tupleIJiNS_6vectorINS2_IiNS_9allocatorIiEEEENS3_IS5_EEEEiiiEEELi0ELb0EEC2B8ue170006IDnvEEOT_, symObjAddr: 0x12CA4, symBinAddr: 0x100013A3C, symSize: 0x1C }
  - { offsetInCU: 0x25938, offset: 0x25938, size: 0x8, addend: 0x0, symName: __ZNSt3__122__compressed_pair_elemINS_9allocatorINS_5tupleIJiNS_6vectorINS3_IiNS1_IiEEEENS1_IS5_EEEEiiiEEEEELi1ELb1EEC2B8ue170006ENS_18__default_init_tagE, symObjAddr: 0x12CC0, symBinAddr: 0x100013A58, symSize: 0x2C }
  - { offsetInCU: 0x2596C, offset: 0x2596C, size: 0x8, addend: 0x0, symName: __ZNSt3__19allocatorINS_5tupleIJiNS_6vectorINS2_IiNS0_IiEEEENS0_IS4_EEEEiiiEEEEC2B8ue170006Ev, symObjAddr: 0x12CEC, symBinAddr: 0x100013A84, symSize: 0x2C }
  - { offsetInCU: 0x25996, offset: 0x25996, size: 0x8, addend: 0x0, symName: __ZNSt3__116__non_trivial_ifILb1ENS_9allocatorINS_5tupleIJiNS_6vectorINS3_IiNS1_IiEEEENS1_IS5_EEEEiiiEEEEEEC2B8ue170006Ev, symObjAddr: 0x12D18, symBinAddr: 0x100013AB0, symSize: 0x14 }
  - { offsetInCU: 0x259C0, offset: 0x259C0, size: 0x8, addend: 0x0, symName: __ZNSt3__128__exception_guard_exceptionsINS_6vectorINS_5tupleIJiNS1_INS1_IiNS_9allocatorIiEEEENS3_IS5_EEEEiiiEEENS3_IS8_EEE16__destroy_vectorEEC1B8ue170006ESB_, symObjAddr: 0x12D2C, symBinAddr: 0x100013AC4, symSize: 0x34 }
  - { offsetInCU: 0x259F8, offset: 0x259F8, size: 0x8, addend: 0x0, symName: __ZNSt3__128__exception_guard_exceptionsINS_6vectorINS_5tupleIJiNS1_INS1_IiNS_9allocatorIiEEEENS3_IS5_EEEEiiiEEENS3_IS8_EEE16__destroy_vectorEEC2B8ue170006ESB_, symObjAddr: 0x12D60, symBinAddr: 0x100013AF8, symSize: 0x24 }
  - { offsetInCU: 0x25A30, offset: 0x25A30, size: 0x8, addend: 0x0, symName: __ZNSt3__16vectorINS_5tupleIJiNS0_INS0_IiNS_9allocatorIiEEEENS2_IS4_EEEEiiiEEENS2_IS7_EEE16__destroy_vectorC2B8ue170006ERS9_, symObjAddr: 0x12D84, symBinAddr: 0x100013B1C, symSize: 0x20 }
  - { offsetInCU: 0x25A69, offset: 0x25A69, size: 0x8, addend: 0x0, symName: __ZNKSt3__16vectorINS_5tupleIJiNS0_INS0_IiNS_9allocatorIiEEEENS2_IS4_EEEEiiiEEENS2_IS7_EEE8max_sizeEv, symObjAddr: 0x12DA4, symBinAddr: 0x100013B3C, symSize: 0x60 }
  - { offsetInCU: 0x25A91, offset: 0x25A91, size: 0x8, addend: 0x0, symName: __ZNKSt3__16vectorINS_5tupleIJiNS0_INS0_IiNS_9allocatorIiEEEENS2_IS4_EEEEiiiEEENS2_IS7_EEE20__throw_length_errorB8ue170006Ev, symObjAddr: 0x12E04, symBinAddr: 0x100013B9C, symSize: 0x1C }
  - { offsetInCU: 0x25AB7, offset: 0x25AB7, size: 0x8, addend: 0x0, symName: __ZNSt3__16vectorINS_5tupleIJiNS0_INS0_IiNS_9allocatorIiEEEENS2_IS4_EEEEiiiEEENS2_IS7_EEE7__allocB8ue170006Ev, symObjAddr: 0x12E60, symBinAddr: 0x100013BF8, symSize: 0x28 }
  - { offsetInCU: 0x25ADD, offset: 0x25ADD, size: 0x8, addend: 0x0, symName: __ZNSt3__16vectorINS_5tupleIJiNS0_INS0_IiNS_9allocatorIiEEEENS2_IS4_EEEEiiiEEENS2_IS7_EEE9__end_capB8ue170006Ev, symObjAddr: 0x12E88, symBinAddr: 0x100013C20, symSize: 0x28 }
  - { offsetInCU: 0x25B03, offset: 0x25B03, size: 0x8, addend: 0x0, symName: __ZNKSt3__16vectorINS_5tupleIJiNS0_INS0_IiNS_9allocatorIiEEEENS2_IS4_EEEEiiiEEENS2_IS7_EEE14__annotate_newB8ue170006Em, symObjAddr: 0x12EB0, symBinAddr: 0x100013C48, symSize: 0xC8 }
  - { offsetInCU: 0x25B43, offset: 0x25B43, size: 0x8, addend: 0x0, symName: __ZNSt3__116allocator_traitsINS_9allocatorINS_5tupleIJiNS_6vectorINS3_IiNS1_IiEEEENS1_IS5_EEEEiiiEEEEEE8max_sizeB8ue170006IS9_vEEmRKS9_, symObjAddr: 0x12F78, symBinAddr: 0x100013D10, symSize: 0x24 }
  - { offsetInCU: 0x25B71, offset: 0x25B71, size: 0x8, addend: 0x0, symName: __ZNKSt3__16vectorINS_5tupleIJiNS0_INS0_IiNS_9allocatorIiEEEENS2_IS4_EEEEiiiEEENS2_IS7_EEE7__allocB8ue170006Ev, symObjAddr: 0x12F9C, symBinAddr: 0x100013D34, symSize: 0x28 }
  - { offsetInCU: 0x25B97, offset: 0x25B97, size: 0x8, addend: 0x0, symName: __ZNKSt3__19allocatorINS_5tupleIJiNS_6vectorINS2_IiNS0_IiEEEENS0_IS4_EEEEiiiEEEE8max_sizeB8ue170006Ev, symObjAddr: 0x12FC4, symBinAddr: 0x100013D5C, symSize: 0x18 }
  - { offsetInCU: 0x25BBD, offset: 0x25BBD, size: 0x8, addend: 0x0, symName: __ZNKSt3__117__compressed_pairIPNS_5tupleIJiNS_6vectorINS2_IiNS_9allocatorIiEEEENS3_IS5_EEEEiiiEEENS3_IS8_EEE6secondB8ue170006Ev, symObjAddr: 0x12FDC, symBinAddr: 0x100013D74, symSize: 0x24 }
  - { offsetInCU: 0x25BE3, offset: 0x25BE3, size: 0x8, addend: 0x0, symName: __ZNKSt3__122__compressed_pair_elemINS_9allocatorINS_5tupleIJiNS_6vectorINS3_IiNS1_IiEEEENS1_IS5_EEEEiiiEEEEELi1ELb1EE5__getB8ue170006Ev, symObjAddr: 0x13000, symBinAddr: 0x100013D98, symSize: 0x14 }
  - { offsetInCU: 0x25C09, offset: 0x25C09, size: 0x8, addend: 0x0, symName: __ZNSt3__19allocatorINS_5tupleIJiNS_6vectorINS2_IiNS0_IiEEEENS0_IS4_EEEEiiiEEEE8allocateB8ue170006Em, symObjAddr: 0x13014, symBinAddr: 0x100013DAC, symSize: 0x5C }
  - { offsetInCU: 0x25C3D, offset: 0x25C3D, size: 0x8, addend: 0x0, symName: __ZNSt3__117__compressed_pairIPNS_5tupleIJiNS_6vectorINS2_IiNS_9allocatorIiEEEENS3_IS5_EEEEiiiEEENS3_IS8_EEE6secondB8ue170006Ev, symObjAddr: 0x13070, symBinAddr: 0x100013E08, symSize: 0x24 }
  - { offsetInCU: 0x25C63, offset: 0x25C63, size: 0x8, addend: 0x0, symName: __ZNSt3__122__compressed_pair_elemINS_9allocatorINS_5tupleIJiNS_6vectorINS3_IiNS1_IiEEEENS1_IS5_EEEEiiiEEEEELi1ELb1EE5__getB8ue170006Ev, symObjAddr: 0x13094, symBinAddr: 0x100013E2C, symSize: 0x14 }
  - { offsetInCU: 0x25C89, offset: 0x25C89, size: 0x8, addend: 0x0, symName: __ZNSt3__117__compressed_pairIPNS_5tupleIJiNS_6vectorINS2_IiNS_9allocatorIiEEEENS3_IS5_EEEEiiiEEENS3_IS8_EEE5firstB8ue170006Ev, symObjAddr: 0x130A8, symBinAddr: 0x100013E40, symSize: 0x24 }
  - { offsetInCU: 0x25CAF, offset: 0x25CAF, size: 0x8, addend: 0x0, symName: __ZNSt3__122__compressed_pair_elemIPNS_5tupleIJiNS_6vectorINS2_IiNS_9allocatorIiEEEENS3_IS5_EEEEiiiEEELi0ELb0EE5__getB8ue170006Ev, symObjAddr: 0x130CC, symBinAddr: 0x100013E64, symSize: 0x14 }
  - { offsetInCU: 0x25CD5, offset: 0x25CD5, size: 0x8, addend: 0x0, symName: __ZNKSt3__16vectorINS_5tupleIJiNS0_INS0_IiNS_9allocatorIiEEEENS2_IS4_EEEEiiiEEENS2_IS7_EEE31__annotate_contiguous_containerB8ue170006EPKvSB_SB_SB_, symObjAddr: 0x130E0, symBinAddr: 0x100013E78, symSize: 0x20 }
  - { offsetInCU: 0x25D2B, offset: 0x25D2B, size: 0x8, addend: 0x0, symName: __ZNKSt3__16vectorINS_5tupleIJiNS0_INS0_IiNS_9allocatorIiEEEENS2_IS4_EEEEiiiEEENS2_IS7_EEE4dataB8ue170006Ev, symObjAddr: 0x13100, symBinAddr: 0x100013E98, symSize: 0x28 }
  - { offsetInCU: 0x25D51, offset: 0x25D51, size: 0x8, addend: 0x0, symName: __ZNKSt3__16vectorINS_5tupleIJiNS0_INS0_IiNS_9allocatorIiEEEENS2_IS4_EEEEiiiEEENS2_IS7_EEE8capacityB8ue170006Ev, symObjAddr: 0x13128, symBinAddr: 0x100013EC0, symSize: 0x40 }
  - { offsetInCU: 0x25D77, offset: 0x25D77, size: 0x8, addend: 0x0, symName: __ZNKSt3__16vectorINS_5tupleIJiNS0_INS0_IiNS_9allocatorIiEEEENS2_IS4_EEEEiiiEEENS2_IS7_EEE9__end_capB8ue170006Ev, symObjAddr: 0x1317C, symBinAddr: 0x100013F14, symSize: 0x28 }
  - { offsetInCU: 0x25D9D, offset: 0x25D9D, size: 0x8, addend: 0x0, symName: __ZNKSt3__117__compressed_pairIPNS_5tupleIJiNS_6vectorINS2_IiNS_9allocatorIiEEEENS3_IS5_EEEEiiiEEENS3_IS8_EEE5firstB8ue170006Ev, symObjAddr: 0x131A4, symBinAddr: 0x100013F3C, symSize: 0x24 }
  - { offsetInCU: 0x25DC3, offset: 0x25DC3, size: 0x8, addend: 0x0, symName: __ZNKSt3__122__compressed_pair_elemIPNS_5tupleIJiNS_6vectorINS2_IiNS_9allocatorIiEEEENS3_IS5_EEEEiiiEEELi0ELb0EE5__getB8ue170006Ev, symObjAddr: 0x131C8, symBinAddr: 0x100013F60, symSize: 0x14 }
  - { offsetInCU: 0x25E05, offset: 0x25E05, size: 0x8, addend: 0x0, symName: __ZNSt3__16vectorINS_5tupleIJiNS0_INS0_IiNS_9allocatorIiEEEENS2_IS4_EEEEiiiEEENS2_IS7_EEE21_ConstructTransactionC1B8ue170006ERS9_m, symObjAddr: 0x131DC, symBinAddr: 0x100013F74, symSize: 0x3C }
  - { offsetInCU: 0x25E4D, offset: 0x25E4D, size: 0x8, addend: 0x0, symName: __ZNSt3__16vectorINS_5tupleIJiNS0_INS0_IiNS_9allocatorIiEEEENS2_IS4_EEEEiiiEEENS2_IS7_EEE21_ConstructTransactionD1B8ue170006Ev, symObjAddr: 0x13298, symBinAddr: 0x100014030, symSize: 0x2C }
  - { offsetInCU: 0x25E77, offset: 0x25E77, size: 0x8, addend: 0x0, symName: __ZNSt3__16vectorINS_5tupleIJiNS0_INS0_IiNS_9allocatorIiEEEENS2_IS4_EEEEiiiEEENS2_IS7_EEE21_ConstructTransactionC2B8ue170006ERS9_m, symObjAddr: 0x132C4, symBinAddr: 0x10001405C, symSize: 0x4C }
  - { offsetInCU: 0x25EE2, offset: 0x25EE2, size: 0x8, addend: 0x0, symName: __ZNSt3__14pairIPKNS_5tupleIJiNS_6vectorINS2_IiNS_9allocatorIiEEEENS3_IS5_EEEEiiiEEESA_EC1B8ue170006ISA_SA_LPv0EEEOT_OT0_, symObjAddr: 0x13520, symBinAddr: 0x1000142B8, symSize: 0x3C }
  - { offsetInCU: 0x25F40, offset: 0x25F40, size: 0x8, addend: 0x0, symName: __ZNSt3__14pairIPKNS_5tupleIJiNS_6vectorINS2_IiNS_9allocatorIiEEEENS3_IS5_EEEEiiiEEESA_EC2B8ue170006ISA_SA_LPv0EEEOT_OT0_, symObjAddr: 0x1355C, symBinAddr: 0x1000142F4, symSize: 0x34 }
  - { offsetInCU: 0x25F9E, offset: 0x25F9E, size: 0x8, addend: 0x0, symName: __ZNSt3__118__unwrap_iter_implIPKNS_5tupleIJiNS_6vectorINS2_IiNS_9allocatorIiEEEENS3_IS5_EEEEiiiEEELb1EE8__unwrapB8ue170006ESA_, symObjAddr: 0x13590, symBinAddr: 0x100014328, symSize: 0x24 }
  - { offsetInCU: 0x25FC1, offset: 0x25FC1, size: 0x8, addend: 0x0, symName: __ZNSt3__129_AllocatorDestroyRangeReverseINS_9allocatorINS_5tupleIJiNS_6vectorINS3_IiNS1_IiEEEENS1_IS5_EEEEiiiEEEEEPS8_EC1B8ue170006ERS9_RSA_SD_, symObjAddr: 0x13614, symBinAddr: 0x1000143AC, symSize: 0x44 }
  - { offsetInCU: 0x26018, offset: 0x26018, size: 0x8, addend: 0x0, symName: __ZNSt3__116allocator_traitsINS_9allocatorINS_5tupleIJiNS_6vectorINS3_IiNS1_IiEEEENS1_IS5_EEEEiiiEEEEEE9constructB8ue170006IS8_JRKS8_EvEEvRS9_PT_DpOT0_, symObjAddr: 0x13658, symBinAddr: 0x1000143F0, symSize: 0x34 }
  - { offsetInCU: 0x2606F, offset: 0x2606F, size: 0x8, addend: 0x0, symName: __ZNSt3__128__exception_guard_exceptionsINS_29_AllocatorDestroyRangeReverseINS_9allocatorINS_5tupleIJiNS_6vectorINS4_IiNS2_IiEEEENS2_IS6_EEEEiiiEEEEEPS9_EEE10__completeB8ue170006Ev, symObjAddr: 0x1368C, symBinAddr: 0x100014424, symSize: 0x1C }
  - { offsetInCU: 0x26095, offset: 0x26095, size: 0x8, addend: 0x0, symName: __ZNSt3__128__exception_guard_exceptionsINS_29_AllocatorDestroyRangeReverseINS_9allocatorINS_5tupleIJiNS_6vectorINS4_IiNS2_IiEEEENS2_IS6_EEEEiiiEEEEEPS9_EEED1B8ue170006Ev, symObjAddr: 0x136A8, symBinAddr: 0x100014440, symSize: 0x2C }
  - { offsetInCU: 0x260BF, offset: 0x260BF, size: 0x8, addend: 0x0, symName: __ZNSt3__128__exception_guard_exceptionsINS_29_AllocatorDestroyRangeReverseINS_9allocatorINS_5tupleIJiNS_6vectorINS4_IiNS2_IiEEEENS2_IS6_EEEEiiiEEEEEPS9_EEEC1B8ue170006ESC_, symObjAddr: 0x136D4, symBinAddr: 0x10001446C, symSize: 0x34 }
  - { offsetInCU: 0x260F8, offset: 0x260F8, size: 0x8, addend: 0x0, symName: __ZNSt3__128__exception_guard_exceptionsINS_29_AllocatorDestroyRangeReverseINS_9allocatorINS_5tupleIJiNS_6vectorINS4_IiNS2_IiEEEENS2_IS6_EEEEiiiEEEEEPS9_EEEC2B8ue170006ESC_, symObjAddr: 0x13708, symBinAddr: 0x1000144A0, symSize: 0x30 }
  - { offsetInCU: 0x26131, offset: 0x26131, size: 0x8, addend: 0x0, symName: __ZNSt3__129_AllocatorDestroyRangeReverseINS_9allocatorINS_5tupleIJiNS_6vectorINS3_IiNS1_IiEEEENS1_IS5_EEEEiiiEEEEEPS8_EC2B8ue170006ERS9_RSA_SD_, symObjAddr: 0x13738, symBinAddr: 0x1000144D0, symSize: 0x38 }
  - { offsetInCU: 0x26188, offset: 0x26188, size: 0x8, addend: 0x0, symName: __ZNSt3__19allocatorINS_5tupleIJiNS_6vectorINS2_IiNS0_IiEEEENS0_IS4_EEEEiiiEEEE9constructB8ue170006IS7_JRKS7_EEEvPT_DpOT0_, symObjAddr: 0x13770, symBinAddr: 0x100014508, symSize: 0x30 }
  - { offsetInCU: 0x261DE, offset: 0x261DE, size: 0x8, addend: 0x0, symName: __ZNSt3__15tupleIJiNS_6vectorINS1_IiNS_9allocatorIiEEEENS2_IS4_EEEEiiiEEC1ERKS7_, symObjAddr: 0x137A0, symBinAddr: 0x100014538, symSize: 0x34 }
  - { offsetInCU: 0x26214, offset: 0x26214, size: 0x8, addend: 0x0, symName: __ZNSt3__15tupleIJiNS_6vectorINS1_IiNS_9allocatorIiEEEENS2_IS4_EEEEiiiEEC2ERKS7_, symObjAddr: 0x137D4, symBinAddr: 0x10001456C, symSize: 0x34 }
  - { offsetInCU: 0x2624A, offset: 0x2624A, size: 0x8, addend: 0x0, symName: __ZNSt3__112__tuple_implINS_15__tuple_indicesIJLm0ELm1ELm2ELm3ELm4EEEEJiNS_6vectorINS3_IiNS_9allocatorIiEEEENS4_IS6_EEEEiiiEEC1ERKS9_, symObjAddr: 0x13808, symBinAddr: 0x1000145A0, symSize: 0x34 }
  - { offsetInCU: 0x26280, offset: 0x26280, size: 0x8, addend: 0x0, symName: __ZNSt3__112__tuple_implINS_15__tuple_indicesIJLm0ELm1ELm2ELm3ELm4EEEEJiNS_6vectorINS3_IiNS_9allocatorIiEEEENS4_IS6_EEEEiiiEEC2ERKS9_, symObjAddr: 0x1383C, symBinAddr: 0x1000145D4, symSize: 0x6C }
  - { offsetInCU: 0x262B6, offset: 0x262B6, size: 0x8, addend: 0x0, symName: __ZNSt3__112__tuple_leafILm1ENS_6vectorINS1_IiNS_9allocatorIiEEEENS2_IS4_EEEELb0EEC2B8ue170006ERKS7_, symObjAddr: 0x138A8, symBinAddr: 0x100014640, symSize: 0x34 }
  - { offsetInCU: 0x262EF, offset: 0x262EF, size: 0x8, addend: 0x0, symName: __ZNSt3__128__exception_guard_exceptionsINS_29_AllocatorDestroyRangeReverseINS_9allocatorINS_5tupleIJiNS_6vectorINS4_IiNS2_IiEEEENS2_IS6_EEEEiiiEEEEEPS9_EEED2B8ue170006Ev, symObjAddr: 0x138DC, symBinAddr: 0x100014674, symSize: 0x50 }
  - { offsetInCU: 0x26319, offset: 0x26319, size: 0x8, addend: 0x0, symName: __ZNKSt3__129_AllocatorDestroyRangeReverseINS_9allocatorINS_5tupleIJiNS_6vectorINS3_IiNS1_IiEEEENS1_IS5_EEEEiiiEEEEEPS8_EclB8ue170006Ev, symObjAddr: 0x1392C, symBinAddr: 0x1000146C4, symSize: 0x68 }
  - { offsetInCU: 0x2633F, offset: 0x2633F, size: 0x8, addend: 0x0, symName: __ZNSt3__116reverse_iteratorIPNS_5tupleIJiNS_6vectorINS2_IiNS_9allocatorIiEEEENS3_IS5_EEEEiiiEEEEC1B8ue170006ES9_, symObjAddr: 0x13A04, symBinAddr: 0x10001479C, symSize: 0x34 }
  - { offsetInCU: 0x26377, offset: 0x26377, size: 0x8, addend: 0x0, symName: __ZNSt3__116allocator_traitsINS_9allocatorINS_5tupleIJiNS_6vectorINS3_IiNS1_IiEEEENS1_IS5_EEEEiiiEEEEEE7destroyB8ue170006IS8_vEEvRS9_PT_, symObjAddr: 0x13A80, symBinAddr: 0x100014818, symSize: 0x2C }
  - { offsetInCU: 0x263B4, offset: 0x263B4, size: 0x8, addend: 0x0, symName: __ZNSt3__116reverse_iteratorIPNS_5tupleIJiNS_6vectorINS2_IiNS_9allocatorIiEEEENS3_IS5_EEEEiiiEEEEppB8ue170006Ev, symObjAddr: 0x13AD0, symBinAddr: 0x100014868, symSize: 0x20 }
  - { offsetInCU: 0x263DA, offset: 0x263DA, size: 0x8, addend: 0x0, symName: __ZNKSt3__116reverse_iteratorIPNS_5tupleIJiNS_6vectorINS2_IiNS_9allocatorIiEEEENS3_IS5_EEEEiiiEEEE4baseB8ue170006Ev, symObjAddr: 0x13AF0, symBinAddr: 0x100014888, symSize: 0x18 }
  - { offsetInCU: 0x26400, offset: 0x26400, size: 0x8, addend: 0x0, symName: __ZNSt3__19allocatorINS_5tupleIJiNS_6vectorINS2_IiNS0_IiEEEENS0_IS4_EEEEiiiEEEE7destroyB8ue170006EPS7_, symObjAddr: 0x13B08, symBinAddr: 0x1000148A0, symSize: 0x28 }
  - { offsetInCU: 0x2643A, offset: 0x2643A, size: 0x8, addend: 0x0, symName: __ZNSt3__119__to_address_helperINS_16reverse_iteratorIPNS_5tupleIJiNS_6vectorINS3_IiNS_9allocatorIiEEEENS4_IS6_EEEEiiiEEEEEvE6__callB8ue170006ERKSB_, symObjAddr: 0x13B30, symBinAddr: 0x1000148C8, symSize: 0x38 }
  - { offsetInCU: 0x2645D, offset: 0x2645D, size: 0x8, addend: 0x0, symName: __ZNKSt3__116reverse_iteratorIPNS_5tupleIJiNS_6vectorINS2_IiNS_9allocatorIiEEEENS3_IS5_EEEEiiiEEEEptB8ue170006Ev, symObjAddr: 0x13B68, symBinAddr: 0x100014900, symSize: 0x24 }
  - { offsetInCU: 0x26483, offset: 0x26483, size: 0x8, addend: 0x0, symName: __ZNKSt3__116reverse_iteratorIPNS_5tupleIJiNS_6vectorINS2_IiNS_9allocatorIiEEEENS3_IS5_EEEEiiiEEEEdeB8ue170006Ev, symObjAddr: 0x13B8C, symBinAddr: 0x100014924, symSize: 0x28 }
  - { offsetInCU: 0x264B7, offset: 0x264B7, size: 0x8, addend: 0x0, symName: __ZNSt3__116reverse_iteratorIPNS_5tupleIJiNS_6vectorINS2_IiNS_9allocatorIiEEEENS3_IS5_EEEEiiiEEEEC2B8ue170006ES9_, symObjAddr: 0x13BB4, symBinAddr: 0x10001494C, symSize: 0x28 }
  - { offsetInCU: 0x264EF, offset: 0x264EF, size: 0x8, addend: 0x0, symName: __ZNSt3__118__unwrap_iter_implIPNS_5tupleIJiNS_6vectorINS2_IiNS_9allocatorIiEEEENS3_IS5_EEEEiiiEEELb1EE8__unwrapB8ue170006ES9_, symObjAddr: 0x13BDC, symBinAddr: 0x100014974, symSize: 0x24 }
  - { offsetInCU: 0x26512, offset: 0x26512, size: 0x8, addend: 0x0, symName: __ZNSt3__118__unwrap_iter_implIPNS_5tupleIJiNS_6vectorINS2_IiNS_9allocatorIiEEEENS3_IS5_EEEEiiiEEELb1EE8__rewrapB8ue170006ES9_S9_, symObjAddr: 0x13C00, symBinAddr: 0x100014998, symSize: 0x58 }
  - { offsetInCU: 0x26543, offset: 0x26543, size: 0x8, addend: 0x0, symName: __ZNSt3__16vectorINS_5tupleIJiNS0_INS0_IiNS_9allocatorIiEEEENS2_IS4_EEEEiiiEEENS2_IS7_EEE21_ConstructTransactionD2B8ue170006Ev, symObjAddr: 0x13C58, symBinAddr: 0x1000149F0, symSize: 0x20 }
  - { offsetInCU: 0x2656D, offset: 0x2656D, size: 0x8, addend: 0x0, symName: __ZNSt3__128__exception_guard_exceptionsINS_6vectorINS_5tupleIJiNS1_INS1_IiNS_9allocatorIiEEEENS3_IS5_EEEEiiiEEENS3_IS8_EEE16__destroy_vectorEED2B8ue170006Ev, symObjAddr: 0x13C78, symBinAddr: 0x100014A10, symSize: 0x50 }
  - { offsetInCU: 0x26597, offset: 0x26597, size: 0x8, addend: 0x0, symName: __ZNSt3__16vectorINS_5tupleIJiNS0_INS0_IiNS_9allocatorIiEEEENS2_IS4_EEEEiiiEEENS2_IS7_EEE16__destroy_vectorclB8ue170006Ev, symObjAddr: 0x13CC8, symBinAddr: 0x100014A60, symSize: 0x90 }
  - { offsetInCU: 0x265BD, offset: 0x265BD, size: 0x8, addend: 0x0, symName: __ZNSt3__16vectorINS_5tupleIJiNS0_INS0_IiNS_9allocatorIiEEEENS2_IS4_EEEEiiiEEENS2_IS7_EEE7__clearB8ue170006Ev, symObjAddr: 0x13D58, symBinAddr: 0x100014AF0, symSize: 0x28 }
  - { offsetInCU: 0x265E3, offset: 0x265E3, size: 0x8, addend: 0x0, symName: __ZNKSt3__16vectorINS_5tupleIJiNS0_INS0_IiNS_9allocatorIiEEEENS2_IS4_EEEEiiiEEENS2_IS7_EEE17__annotate_deleteB8ue170006Ev, symObjAddr: 0x13D80, symBinAddr: 0x100014B18, symSize: 0xD4 }
  - { offsetInCU: 0x26609, offset: 0x26609, size: 0x8, addend: 0x0, symName: __ZNSt3__116allocator_traitsINS_9allocatorINS_5tupleIJiNS_6vectorINS3_IiNS1_IiEEEENS1_IS5_EEEEiiiEEEEEE10deallocateB8ue170006ERS9_PS8_m, symObjAddr: 0x13E54, symBinAddr: 0x100014BEC, symSize: 0x34 }
  - { offsetInCU: 0x2664B, offset: 0x2664B, size: 0x8, addend: 0x0, symName: __ZNSt3__16vectorINS_5tupleIJiNS0_INS0_IiNS_9allocatorIiEEEENS2_IS4_EEEEiiiEEENS2_IS7_EEE22__base_destruct_at_endB8ue170006EPS7_, symObjAddr: 0x13E88, symBinAddr: 0x100014C20, symSize: 0x8C }
  - { offsetInCU: 0x2668F, offset: 0x2668F, size: 0x8, addend: 0x0, symName: __ZNKSt3__16vectorINS_5tupleIJiNS0_INS0_IiNS_9allocatorIiEEEENS2_IS4_EEEEiiiEEENS2_IS7_EEE4sizeB8ue170006Ev, symObjAddr: 0x13F14, symBinAddr: 0x100014CAC, symSize: 0x28 }
  - { offsetInCU: 0x266B5, offset: 0x266B5, size: 0x8, addend: 0x0, symName: __ZNSt3__19allocatorINS_5tupleIJiNS_6vectorINS2_IiNS0_IiEEEENS0_IS4_EEEEiiiEEEE10deallocateB8ue170006EPS7_m, symObjAddr: 0x13F3C, symBinAddr: 0x100014CD4, symSize: 0x44 }
  - { offsetInCU: 0x266F7, offset: 0x266F7, size: 0x8, addend: 0x0, symName: __ZNSt3__16vectorINS_5tupleIJiNS0_INS0_IiNS_9allocatorIiEEEENS2_IS4_EEEEiiiEEENS2_IS7_EEED2B8ue170006Ev, symObjAddr: 0x13F80, symBinAddr: 0x100014D18, symSize: 0x40 }
  - { offsetInCU: 0x26721, offset: 0x26721, size: 0x8, addend: 0x0, symName: __ZNSt3__16vectorIZ4mainE9ResultadoNS_9allocatorIS1_EEEC2B8ue170006Ev, symObjAddr: 0x13FC0, symBinAddr: 0x100014D58, symSize: 0x4C }
  - { offsetInCU: 0x2674B, offset: 0x2674B, size: 0x8, addend: 0x0, symName: __ZNSt3__117__compressed_pairIPZ4mainE9ResultadoNS_9allocatorIS1_EEEC1B8ue170006IDnNS_18__default_init_tagEEEOT_OT0_, symObjAddr: 0x1400C, symBinAddr: 0x100014DA4, symSize: 0x3C }
  - { offsetInCU: 0x267A3, offset: 0x267A3, size: 0x8, addend: 0x0, symName: __ZNSt3__117__compressed_pairIPZ4mainE9ResultadoNS_9allocatorIS1_EEEC2B8ue170006IDnNS_18__default_init_tagEEEOT_OT0_, symObjAddr: 0x14048, symBinAddr: 0x100014DE0, symSize: 0x40 }
  - { offsetInCU: 0x267FB, offset: 0x267FB, size: 0x8, addend: 0x0, symName: __ZNSt3__122__compressed_pair_elemIPZ4mainE9ResultadoLi0ELb0EEC2B8ue170006IDnvEEOT_, symObjAddr: 0x14088, symBinAddr: 0x100014E20, symSize: 0x1C }
  - { offsetInCU: 0x2683D, offset: 0x2683D, size: 0x8, addend: 0x0, symName: __ZNSt3__122__compressed_pair_elemINS_9allocatorIZ4mainE9ResultadoEELi1ELb1EEC2B8ue170006ENS_18__default_init_tagE, symObjAddr: 0x140A4, symBinAddr: 0x100014E3C, symSize: 0x2C }
  - { offsetInCU: 0x26871, offset: 0x26871, size: 0x8, addend: 0x0, symName: __ZNSt3__19allocatorIZ4mainE9ResultadoEC2B8ue170006Ev, symObjAddr: 0x140D0, symBinAddr: 0x100014E68, symSize: 0x2C }
  - { offsetInCU: 0x2689B, offset: 0x2689B, size: 0x8, addend: 0x0, symName: __ZNSt3__116__non_trivial_ifILb1ENS_9allocatorIZ4mainE9ResultadoEEEC2B8ue170006Ev, symObjAddr: 0x140FC, symBinAddr: 0x100014E94, symSize: 0x14 }
  - { offsetInCU: 0x268C5, offset: 0x268C5, size: 0x8, addend: 0x0, symName: __ZNSt3__16vectorIZ4mainE9ResultadoNS_9allocatorIS1_EEED2B8ue170006Ev, symObjAddr: 0x14110, symBinAddr: 0x100014EA8, symSize: 0x44 }
  - { offsetInCU: 0x268EF, offset: 0x268EF, size: 0x8, addend: 0x0, symName: __ZNSt3__16vectorIZ4mainE9ResultadoNS_9allocatorIS1_EEE16__destroy_vectorC1B8ue170006ERS4_, symObjAddr: 0x14154, symBinAddr: 0x100014EEC, symSize: 0x34 }
  - { offsetInCU: 0x26928, offset: 0x26928, size: 0x8, addend: 0x0, symName: __ZNSt3__16vectorIZ4mainE9ResultadoNS_9allocatorIS1_EEE16__destroy_vectorclB8ue170006Ev, symObjAddr: 0x14188, symBinAddr: 0x100014F20, symSize: 0x90 }
  - { offsetInCU: 0x2694E, offset: 0x2694E, size: 0x8, addend: 0x0, symName: __ZNSt3__16vectorIZ4mainE9ResultadoNS_9allocatorIS1_EEE16__destroy_vectorC2B8ue170006ERS4_, symObjAddr: 0x14218, symBinAddr: 0x100014FB0, symSize: 0x20 }
  - { offsetInCU: 0x26987, offset: 0x26987, size: 0x8, addend: 0x0, symName: __ZNSt3__16vectorIZ4mainE9ResultadoNS_9allocatorIS1_EEE7__clearB8ue170006Ev, symObjAddr: 0x14238, symBinAddr: 0x100014FD0, symSize: 0x28 }
  - { offsetInCU: 0x269AD, offset: 0x269AD, size: 0x8, addend: 0x0, symName: __ZNKSt3__16vectorIZ4mainE9ResultadoNS_9allocatorIS1_EEE17__annotate_deleteB8ue170006Ev, symObjAddr: 0x14260, symBinAddr: 0x100014FF8, symSize: 0xD4 }
  - { offsetInCU: 0x269D3, offset: 0x269D3, size: 0x8, addend: 0x0, symName: __ZNSt3__116allocator_traitsINS_9allocatorIZ4mainE9ResultadoEEE10deallocateB8ue170006ERS3_PS2_m, symObjAddr: 0x14334, symBinAddr: 0x1000150CC, symSize: 0x34 }
  - { offsetInCU: 0x26A15, offset: 0x26A15, size: 0x8, addend: 0x0, symName: __ZNSt3__16vectorIZ4mainE9ResultadoNS_9allocatorIS1_EEE7__allocB8ue170006Ev, symObjAddr: 0x14368, symBinAddr: 0x100015100, symSize: 0x28 }
  - { offsetInCU: 0x26A3B, offset: 0x26A3B, size: 0x8, addend: 0x0, symName: __ZNKSt3__16vectorIZ4mainE9ResultadoNS_9allocatorIS1_EEE8capacityB8ue170006Ev, symObjAddr: 0x14390, symBinAddr: 0x100015128, symSize: 0x40 }
  - { offsetInCU: 0x26A61, offset: 0x26A61, size: 0x8, addend: 0x0, symName: __ZNSt3__16vectorIZ4mainE9ResultadoNS_9allocatorIS1_EEE22__base_destruct_at_endB8ue170006EPS1_, symObjAddr: 0x143D0, symBinAddr: 0x100015168, symSize: 0x8C }
  - { offsetInCU: 0x26AA5, offset: 0x26AA5, size: 0x8, addend: 0x0, symName: __ZNSt3__116allocator_traitsINS_9allocatorIZ4mainE9ResultadoEEE7destroyB8ue170006IS2_vEEvRS3_PT_, symObjAddr: 0x1445C, symBinAddr: 0x1000151F4, symSize: 0x2C }
  - { offsetInCU: 0x26AE2, offset: 0x26AE2, size: 0x8, addend: 0x0, symName: __ZNSt3__19allocatorIZ4mainE9ResultadoE7destroyB8ue170006EPS1_, symObjAddr: 0x1449C, symBinAddr: 0x100015234, symSize: 0x28 }
  - { offsetInCU: 0x26B1C, offset: 0x26B1C, size: 0x8, addend: 0x0, symName: __ZZ4mainEN9ResultadoD1Ev, symObjAddr: 0x144C4, symBinAddr: 0x10001525C, symSize: 0x2C }
  - { offsetInCU: 0x26B49, offset: 0x26B49, size: 0x8, addend: 0x0, symName: __ZZ4mainEN9ResultadoD2Ev, symObjAddr: 0x144F0, symBinAddr: 0x100015288, symSize: 0x30 }
  - { offsetInCU: 0x26B76, offset: 0x26B76, size: 0x8, addend: 0x0, symName: __ZNKSt3__16vectorIZ4mainE9ResultadoNS_9allocatorIS1_EEE31__annotate_contiguous_containerB8ue170006EPKvS6_S6_S6_, symObjAddr: 0x14520, symBinAddr: 0x1000152B8, symSize: 0x20 }
  - { offsetInCU: 0x26BCC, offset: 0x26BCC, size: 0x8, addend: 0x0, symName: __ZNKSt3__16vectorIZ4mainE9ResultadoNS_9allocatorIS1_EEE4dataB8ue170006Ev, symObjAddr: 0x14540, symBinAddr: 0x1000152D8, symSize: 0x28 }
  - { offsetInCU: 0x26BF2, offset: 0x26BF2, size: 0x8, addend: 0x0, symName: __ZNKSt3__16vectorIZ4mainE9ResultadoNS_9allocatorIS1_EEE4sizeB8ue170006Ev, symObjAddr: 0x14568, symBinAddr: 0x100015300, symSize: 0x28 }
  - { offsetInCU: 0x26C18, offset: 0x26C18, size: 0x8, addend: 0x0, symName: __ZNSt3__19allocatorIZ4mainE9ResultadoE10deallocateB8ue170006EPS1_m, symObjAddr: 0x14590, symBinAddr: 0x100015328, symSize: 0x44 }
  - { offsetInCU: 0x26C5A, offset: 0x26C5A, size: 0x8, addend: 0x0, symName: __ZNSt3__117__compressed_pairIPZ4mainE9ResultadoNS_9allocatorIS1_EEE6secondB8ue170006Ev, symObjAddr: 0x145D4, symBinAddr: 0x10001536C, symSize: 0x24 }
  - { offsetInCU: 0x26C80, offset: 0x26C80, size: 0x8, addend: 0x0, symName: __ZNSt3__122__compressed_pair_elemINS_9allocatorIZ4mainE9ResultadoEELi1ELb1EE5__getB8ue170006Ev, symObjAddr: 0x145F8, symBinAddr: 0x100015390, symSize: 0x14 }
  - { offsetInCU: 0x26CA6, offset: 0x26CA6, size: 0x8, addend: 0x0, symName: __ZNKSt3__16vectorIZ4mainE9ResultadoNS_9allocatorIS1_EEE9__end_capB8ue170006Ev, symObjAddr: 0x1460C, symBinAddr: 0x1000153A4, symSize: 0x28 }
  - { offsetInCU: 0x26CCC, offset: 0x26CCC, size: 0x8, addend: 0x0, symName: __ZNKSt3__117__compressed_pairIPZ4mainE9ResultadoNS_9allocatorIS1_EEE5firstB8ue170006Ev, symObjAddr: 0x14634, symBinAddr: 0x1000153CC, symSize: 0x24 }
  - { offsetInCU: 0x26CF2, offset: 0x26CF2, size: 0x8, addend: 0x0, symName: __ZNKSt3__122__compressed_pair_elemIPZ4mainE9ResultadoLi0ELb0EE5__getB8ue170006Ev, symObjAddr: 0x14658, symBinAddr: 0x1000153F0, symSize: 0x14 }
  - { offsetInCU: 0x26D18, offset: 0x26D18, size: 0x8, addend: 0x0, symName: __ZNSt3__16vectorINS_5tupleIJiNS0_INS0_IiNS_9allocatorIiEEEENS2_IS4_EEEEiiiEEENS2_IS7_EEE11__make_iterB8ue170006EPS7_, symObjAddr: 0x1466C, symBinAddr: 0x100015404, symSize: 0x30 }
  - { offsetInCU: 0x26D4D, offset: 0x26D4D, size: 0x8, addend: 0x0, symName: __ZNSt3__111__wrap_iterIPNS_5tupleIJiNS_6vectorINS2_IiNS_9allocatorIiEEEENS3_IS5_EEEEiiiEEEEC1B8ue170006ES9_, symObjAddr: 0x1469C, symBinAddr: 0x100015434, symSize: 0x34 }
  - { offsetInCU: 0x26D85, offset: 0x26D85, size: 0x8, addend: 0x0, symName: __ZNSt3__111__wrap_iterIPNS_5tupleIJiNS_6vectorINS2_IiNS_9allocatorIiEEEENS3_IS5_EEEEiiiEEEEC2B8ue170006ES9_, symObjAddr: 0x146D0, symBinAddr: 0x100015468, symSize: 0x20 }
  - { offsetInCU: 0x26DBD, offset: 0x26DBD, size: 0x8, addend: 0x0, symName: __ZNKSt3__112__tuple_leafILm1ENS_6vectorINS1_IiNS_9allocatorIiEEEENS2_IS4_EEEELb0EE3getB8ue170006Ev, symObjAddr: 0x146F0, symBinAddr: 0x100015488, symSize: 0x14 }
  - { offsetInCU: 0x26DE3, offset: 0x26DE3, size: 0x8, addend: 0x0, symName: __ZNKSt3__112__tuple_leafILm3EiLb0EE3getB8ue170006Ev, symObjAddr: 0x14704, symBinAddr: 0x10001549C, symSize: 0x14 }
  - { offsetInCU: 0x26E09, offset: 0x26E09, size: 0x8, addend: 0x0, symName: __ZNKSt3__112__tuple_leafILm4EiLb0EE3getB8ue170006Ev, symObjAddr: 0x14718, symBinAddr: 0x1000154B0, symSize: 0x14 }
...
